Archive member included because of file (symbol)

/opt/microchip/xc32/v1.31/bin/../lib/gcc/pic32mx/4.5.2/../../../../pic32mx/lib/mips16/libmchp_peripheral.a(open_core_timer_lib.o)
                              build/default/production/src/hal/hal_timer.o (OpenCoreTimer)
/opt/microchip/xc32/v1.31/bin/../lib/gcc/pic32mx/4.5.2/../../../../pic32mx/lib/mips16/libmchp_peripheral.a(update_core_timer_lib.o)
                              build/default/production/src/hal/hal_timer.o (UpdateCoreTimer)
/opt/microchip/xc32/v1.31/bin/../lib/gcc/pic32mx/4.5.2/../../../../pic32mx/lib/mips16/libmchp_peripheral_32MX350F256L.a(pcache.o)
                              build/default/production/src/hal/hal_sys.o (CheKseg0CacheOn)
/opt/microchip/xc32/v1.31/bin/../lib/gcc/pic32mx/4.5.2/../../../../pic32mx/lib/mips16/libmchp_peripheral_32MX350F256L.a(int_configure_system_lib.o)
                              build/default/production/src/hal/hal_sys.o (INTConfigureSystem)
/opt/microchip/xc32/v1.31/bin/../lib/gcc/pic32mx/4.5.2/../../../../pic32mx/lib/mips16/libmchp_peripheral_32MX350F256L.a(int_disable_interrupts_lib.o)
                              build/default/production/src/hal/hal_sys.o (INTDisableInterrupts)
/opt/microchip/xc32/v1.31/bin/../lib/gcc/pic32mx/4.5.2/../../../../pic32mx/lib/mips16/libmchp_peripheral_32MX350F256L.a(int_restore_interrupts_lib.o)
                              build/default/production/src/hal/hal_sys.o (INTRestoreInterrupts)
/opt/microchip/xc32/v1.31/bin/../lib/gcc/pic32mx/4.5.2/../../../../pic32mx/lib/mips16/libmchp_peripheral_32MX350F256L.a(int_tbl_lib.o)
                              build/default/production/src/hal/hal_adc.o (INTClearFlag)
/opt/microchip/xc32/v1.31/bin/../lib/gcc/pic32mx/4.5.2/../../../../pic32mx/lib/mips16/libmchp_peripheral_32MX350F256L.a(spi_chn_open_lib.o)
                              build/default/production/src/hal/hal_adc.o (SpiChnOpen)
/opt/microchip/xc32/v1.31/bin/../lib/gcc/pic32mx/4.5.2/../../../../pic32mx/lib/mips16/libmchp_peripheral_32MX350F256L.a(spi_chn_putc_lib.o)
                              build/default/production/src/hal/hal_adc.o (SpiChnPutC)
/opt/microchip/xc32/v1.31/bin/../lib/gcc/pic32mx/4.5.2/../../../../pic32mx/lib/mips16/libmchp_peripheral_32MX350F256L.a(spi_map_tbl_libp.o)
                              /opt/microchip/xc32/v1.31/bin/../lib/gcc/pic32mx/4.5.2/../../../../pic32mx/lib/mips16/libmchp_peripheral_32MX350F256L.a(spi_chn_open_lib.o) (_SpiMapTbl)
/opt/microchip/xc32/v1.31/bin/../lib/gcc/pic32mx/4.5.2/../../../../pic32mx/lib/mips16/libmchp_peripheral_32MX350F256L.a(power_idle_lib.o)
                              build/default/production/src/hal/hal_sys.o (PowerSaveIdle)
/opt/microchip/xc32/v1.31/bin/../lib/gcc/pic32mx/4.5.2/../../../../pic32mx/lib/mips16/libmchp_peripheral_32MX350F256L.a(port_set_pins_digital_in_lib.o)
                              build/default/production/src/hal/hal_adc.o (PORTSetPinsDigitalIn)
/opt/microchip/xc32/v1.31/bin/../lib/gcc/pic32mx/4.5.2/../../../../pic32mx/lib/mips16/libmchp_peripheral_32MX350F256L.a(port_set_pins_digital_out_lib.o)
                              build/default/production/src/hal/hal_adc.o (PORTSetPinsDigitalOut)
/opt/microchip/xc32/v1.31/bin/../lib/gcc/pic32mx/4.5.2/../../../../pic32mx/lib/mips16/libmchp_peripheral_32MX350F256L.a(port_read_bits_lib.o)
                              build/default/production/src/hal/hal_io.o (PORTReadBits)
/opt/microchip/xc32/v1.31/bin/../lib/gcc/pic32mx/4.5.2/../../../../pic32mx/lib/mips16/libmchp_peripheral_32MX350F256L.a(port_clear_bits_lib.o)
                              build/default/production/src/hal/hal_i2c.o (PORTClearBits)
/opt/microchip/xc32/v1.31/bin/../lib/gcc/pic32mx/4.5.2/../../../../pic32mx/lib/mips16/libmchp_peripheral_32MX350F256L.a(port_set_bits_lib.o)
                              build/default/production/src/hal/hal_i2c.o (PORTSetBits)
/opt/microchip/xc32/v1.31/bin/../lib/gcc/pic32mx/4.5.2/../../../../pic32mx/lib/mips16/libmchp_peripheral_32MX350F256L.a(port_toggle_bits_lib.o)
                              build/default/production/src/hal/hal_io.o (PORTToggleBits)
/opt/microchip/xc32/v1.31/bin/../lib/gcc/pic32mx/4.5.2/../../../../pic32mx/lib/mips16/libmchp_peripheral_32MX350F256L.a(_ports_tbl_libp.o)
                              /opt/microchip/xc32/v1.31/bin/../lib/gcc/pic32mx/4.5.2/../../../../pic32mx/lib/mips16/libmchp_peripheral_32MX350F256L.a(port_set_pins_digital_in_lib.o) (PortRegTbl)
/opt/microchip/xc32/v1.31/bin/../lib/gcc/pic32mx/4.5.2/../../../../pic32mx/lib/mips16/libmchp_peripheral_32MX350F256L.a(uart_lib.o)
                              build/default/production/src/hal/hal_uart.o (UARTEnable)
/opt/microchip/xc32/v1.31/bin/../lib/gcc/pic32mx/4.5.2/../../../../pic32mx/lib/mips16/libmchp_peripheral_32MX350F256L.a(I2CAcknowledgeByte.o)
                              build/default/production/src/hal/hal_i2c.o (I2CAcknowledgeByte)
/opt/microchip/xc32/v1.31/bin/../lib/gcc/pic32mx/4.5.2/../../../../pic32mx/lib/mips16/libmchp_peripheral_32MX350F256L.a(I2CAcknowledgeHasCompleted.o)
                              build/default/production/src/hal/hal_i2c.o (I2CAcknowledgeHasCompleted)
/opt/microchip/xc32/v1.31/bin/../lib/gcc/pic32mx/4.5.2/../../../../pic32mx/lib/mips16/libmchp_peripheral_32MX350F256L.a(I2CBusIsIdle.o)
                              build/default/production/src/hal/hal_i2c.o (I2CBusIsIdle)
/opt/microchip/xc32/v1.31/bin/../lib/gcc/pic32mx/4.5.2/../../../../pic32mx/lib/mips16/libmchp_peripheral_32MX350F256L.a(I2CByteWasAcknowledged.o)
                              build/default/production/src/hal/hal_i2c.o (I2CByteWasAcknowledged)
/opt/microchip/xc32/v1.31/bin/../lib/gcc/pic32mx/4.5.2/../../../../pic32mx/lib/mips16/libmchp_peripheral_32MX350F256L.a(I2CConfigure.o)
                              build/default/production/src/hal/hal_i2c.o (I2CConfigure)
/opt/microchip/xc32/v1.31/bin/../lib/gcc/pic32mx/4.5.2/../../../../pic32mx/lib/mips16/libmchp_peripheral_32MX350F256L.a(I2CEnable.o)
                              build/default/production/src/hal/hal_i2c.o (I2CEnable)
/opt/microchip/xc32/v1.31/bin/../lib/gcc/pic32mx/4.5.2/../../../../pic32mx/lib/mips16/libmchp_peripheral_32MX350F256L.a(I2CGetByte.o)
                              build/default/production/src/hal/hal_i2c.o (I2CGetByte)
/opt/microchip/xc32/v1.31/bin/../lib/gcc/pic32mx/4.5.2/../../../../pic32mx/lib/mips16/libmchp_peripheral_32MX350F256L.a(I2CGetStatus.o)
                              build/default/production/src/hal/hal_i2c.o (I2CGetStatus)
/opt/microchip/xc32/v1.31/bin/../lib/gcc/pic32mx/4.5.2/../../../../pic32mx/lib/mips16/libmchp_peripheral_32MX350F256L.a(I2CReceivedDataIsAvailable.o)
                              build/default/production/src/hal/hal_i2c.o (I2CReceivedDataIsAvailable)
/opt/microchip/xc32/v1.31/bin/../lib/gcc/pic32mx/4.5.2/../../../../pic32mx/lib/mips16/libmchp_peripheral_32MX350F256L.a(I2CReceiverEnable.o)
                              build/default/production/src/hal/hal_i2c.o (I2CReceiverEnable)
/opt/microchip/xc32/v1.31/bin/../lib/gcc/pic32mx/4.5.2/../../../../pic32mx/lib/mips16/libmchp_peripheral_32MX350F256L.a(I2CRepeatStart.o)
                              build/default/production/src/hal/hal_i2c.o (I2CRepeatStart)
/opt/microchip/xc32/v1.31/bin/../lib/gcc/pic32mx/4.5.2/../../../../pic32mx/lib/mips16/libmchp_peripheral_32MX350F256L.a(I2CSendByte.o)
                              build/default/production/src/hal/hal_i2c.o (I2CSendByte)
/opt/microchip/xc32/v1.31/bin/../lib/gcc/pic32mx/4.5.2/../../../../pic32mx/lib/mips16/libmchp_peripheral_32MX350F256L.a(I2CSetFrequency.o)
                              build/default/production/src/hal/hal_i2c.o (I2CSetFrequency)
/opt/microchip/xc32/v1.31/bin/../lib/gcc/pic32mx/4.5.2/../../../../pic32mx/lib/mips16/libmchp_peripheral_32MX350F256L.a(I2CStart.o)
                              build/default/production/src/hal/hal_i2c.o (I2CStart)
/opt/microchip/xc32/v1.31/bin/../lib/gcc/pic32mx/4.5.2/../../../../pic32mx/lib/mips16/libmchp_peripheral_32MX350F256L.a(I2CStop.o)
                              build/default/production/src/hal/hal_i2c.o (I2CStop)
/opt/microchip/xc32/v1.31/bin/../lib/gcc/pic32mx/4.5.2/../../../../pic32mx/lib/mips16/libmchp_peripheral_32MX350F256L.a(I2CTransmissionHasCompleted.o)
                              build/default/production/src/hal/hal_i2c.o (I2CTransmissionHasCompleted)
/opt/microchip/xc32/v1.31/bin/../lib/gcc/pic32mx/4.5.2/../../../../pic32mx/lib/mips16/libmchp_peripheral_32MX350F256L.a(I2CTransmitterIsReady.o)
                              build/default/production/src/hal/hal_i2c.o (I2CTransmitterIsReady)
/opt/microchip/xc32/v1.31/bin/../lib/gcc/pic32mx/4.5.2/../../../../pic32mx/lib/mips16/libmchp_peripheral_32MX350F256L.a(I2CPrivate.o)
                              /opt/microchip/xc32/v1.31/bin/../lib/gcc/pic32mx/4.5.2/../../../../pic32mx/lib/mips16/libmchp_peripheral_32MX350F256L.a(I2CAcknowledgeByte.o) (i2cBase)
/opt/microchip/xc32/v1.31/bin/../lib/gcc/pic32mx/4.5.2/mips16/libgcc.a(_floatundidf.o)
                              build/default/production/src/scpi-parser/libscpi/src/parser.o (__floatundidf)
/opt/microchip/xc32/v1.31/bin/../lib/gcc/pic32mx/4.5.2/mips16/libgcc.a(_udivdi3.o)
                              build/default/production/src/hal/hal_adc.o (__udivdi3)
/opt/microchip/xc32/v1.31/bin/../lib/gcc/pic32mx/4.5.2/mips16/libgcc.a(floatunsidf.o)
                              build/default/production/src/utils/src/fitlinear.o (__floatunsidf)
/opt/microchip/xc32/v1.31/bin/../lib/gcc/pic32mx/4.5.2/mips16/libgcc.a(floatunsisf.o)
                              build/default/production/src/scpi-parser/libscpi/src/parser.o (__floatunsisf)
/opt/microchip/xc32/v1.31/bin/../lib/gcc/pic32mx/4.5.2/mips16/libgcc.a(_clz.o)
                              /opt/microchip/xc32/v1.31/bin/../lib/gcc/pic32mx/4.5.2/mips16/libgcc.a(_floatundidf.o) (__clz_tab)
/opt/microchip/xc32/v1.31/bin/../lib/gcc/pic32mx/4.5.2/../../../../pic32mx/lib/mips16/libpic32.a(default-bootstrap-exception-handler.o)
                              /opt/microchip/xc32/v1.31/bin/../lib/gcc/pic32mx/4.5.2/../../../../pic32mx/lib/./proc/32MX350F256L/crt0_mips32r2.o (_bootstrap_exception_handler)
/opt/microchip/xc32/v1.31/bin/../lib/gcc/pic32mx/4.5.2/../../../../pic32mx/lib/mips16/libpic32.a(default-on-reset.o)
                              /opt/microchip/xc32/v1.31/bin/../lib/gcc/pic32mx/4.5.2/../../../../pic32mx/lib/./proc/32MX350F256L/crt0_mips32r2.o (_on_reset)
/opt/microchip/xc32/v1.31/bin/../lib/gcc/pic32mx/4.5.2/../../../../pic32mx/lib/mips16/libpic32.a(default-on-bootstrap.o)
                              /opt/microchip/xc32/v1.31/bin/../lib/gcc/pic32mx/4.5.2/../../../../pic32mx/lib/./proc/32MX350F256L/crt0_mips32r2.o (_on_bootstrap)
/opt/microchip/xc32/v1.31/bin/../lib/gcc/pic32mx/4.5.2/../../../../pic32mx/lib/mips16/libpic32.a(default-nmi-handler.o)
                              /opt/microchip/xc32/v1.31/bin/../lib/gcc/pic32mx/4.5.2/../../../../pic32mx/lib/./proc/32MX350F256L/crt0_mips32r2.o (_nmi_handler)
/opt/microchip/xc32/v1.31/bin/../lib/gcc/pic32mx/4.5.2/../../../../pic32mx/lib/mips16/libpic32.a(pic32_software_reset.o)
                              /opt/microchip/xc32/v1.31/bin/../lib/gcc/pic32mx/4.5.2/../../../../pic32mx/lib/mips16/libpic32.a(default-bootstrap-exception-handler.o) (__pic32_software_reset)
/opt/microchip/xc32/v1.31/bin/../lib/gcc/pic32mx/4.5.2/../../../../pic32mx/lib/mips16/libpic32.a(general-exception.o)
                              /opt/microchip/xc32/v1.31/bin/../lib/gcc/pic32mx/4.5.2/../../../../pic32mx/lib/./proc/32MX350F256L/crt0_mips32r2.o (_general_exception_context)
/opt/microchip/xc32/v1.31/bin/../lib/gcc/pic32mx/4.5.2/../../../../pic32mx/lib/mips16/libpic32.a(vector2.o)
                              /opt/microchip/xc32/v1.31/bin/../lib/gcc/pic32mx/4.5.2/../../../../pic32mx/lib/./proc/32MX350F256L/default_isr_vectors.o (__vector_dispatch_2)
/opt/microchip/xc32/v1.31/bin/../lib/gcc/pic32mx/4.5.2/../../../../pic32mx/lib/mips16/libpic32.a(vector3.o)
                              /opt/microchip/xc32/v1.31/bin/../lib/gcc/pic32mx/4.5.2/../../../../pic32mx/lib/./proc/32MX350F256L/default_isr_vectors.o (__vector_dispatch_3)
/opt/microchip/xc32/v1.31/bin/../lib/gcc/pic32mx/4.5.2/../../../../pic32mx/lib/mips16/libpic32.a(vector5.o)
                              /opt/microchip/xc32/v1.31/bin/../lib/gcc/pic32mx/4.5.2/../../../../pic32mx/lib/./proc/32MX350F256L/default_isr_vectors.o (__vector_dispatch_5)
/opt/microchip/xc32/v1.31/bin/../lib/gcc/pic32mx/4.5.2/../../../../pic32mx/lib/mips16/libpic32.a(vector6.o)
                              /opt/microchip/xc32/v1.31/bin/../lib/gcc/pic32mx/4.5.2/../../../../pic32mx/lib/./proc/32MX350F256L/default_isr_vectors.o (__vector_dispatch_6)
/opt/microchip/xc32/v1.31/bin/../lib/gcc/pic32mx/4.5.2/../../../../pic32mx/lib/mips16/libpic32.a(vector7.o)
                              /opt/microchip/xc32/v1.31/bin/../lib/gcc/pic32mx/4.5.2/../../../../pic32mx/lib/./proc/32MX350F256L/default_isr_vectors.o (__vector_dispatch_7)
/opt/microchip/xc32/v1.31/bin/../lib/gcc/pic32mx/4.5.2/../../../../pic32mx/lib/mips16/libpic32.a(vector8.o)
                              /opt/microchip/xc32/v1.31/bin/../lib/gcc/pic32mx/4.5.2/../../../../pic32mx/lib/./proc/32MX350F256L/default_isr_vectors.o (__vector_dispatch_8)
/opt/microchip/xc32/v1.31/bin/../lib/gcc/pic32mx/4.5.2/../../../../pic32mx/lib/mips16/libpic32.a(vector9.o)
                              /opt/microchip/xc32/v1.31/bin/../lib/gcc/pic32mx/4.5.2/../../../../pic32mx/lib/./proc/32MX350F256L/default_isr_vectors.o (__vector_dispatch_9)
/opt/microchip/xc32/v1.31/bin/../lib/gcc/pic32mx/4.5.2/../../../../pic32mx/lib/mips16/libpic32.a(vector10.o)
                              /opt/microchip/xc32/v1.31/bin/../lib/gcc/pic32mx/4.5.2/../../../../pic32mx/lib/./proc/32MX350F256L/default_isr_vectors.o (__vector_dispatch_10)
/opt/microchip/xc32/v1.31/bin/../lib/gcc/pic32mx/4.5.2/../../../../pic32mx/lib/mips16/libpic32.a(vector11.o)
                              /opt/microchip/xc32/v1.31/bin/../lib/gcc/pic32mx/4.5.2/../../../../pic32mx/lib/./proc/32MX350F256L/default_isr_vectors.o (__vector_dispatch_11)
/opt/microchip/xc32/v1.31/bin/../lib/gcc/pic32mx/4.5.2/../../../../pic32mx/lib/mips16/libpic32.a(vector12.o)
                              /opt/microchip/xc32/v1.31/bin/../lib/gcc/pic32mx/4.5.2/../../../../pic32mx/lib/./proc/32MX350F256L/default_isr_vectors.o (__vector_dispatch_12)
/opt/microchip/xc32/v1.31/bin/../lib/gcc/pic32mx/4.5.2/../../../../pic32mx/lib/mips16/libpic32.a(vector13.o)
                              /opt/microchip/xc32/v1.31/bin/../lib/gcc/pic32mx/4.5.2/../../../../pic32mx/lib/./proc/32MX350F256L/default_isr_vectors.o (__vector_dispatch_13)
/opt/microchip/xc32/v1.31/bin/../lib/gcc/pic32mx/4.5.2/../../../../pic32mx/lib/mips16/libpic32.a(vector15.o)
                              /opt/microchip/xc32/v1.31/bin/../lib/gcc/pic32mx/4.5.2/../../../../pic32mx/lib/./proc/32MX350F256L/default_isr_vectors.o (__vector_dispatch_15)
/opt/microchip/xc32/v1.31/bin/../lib/gcc/pic32mx/4.5.2/../../../../pic32mx/lib/mips16/libpic32.a(vector16.o)
                              /opt/microchip/xc32/v1.31/bin/../lib/gcc/pic32mx/4.5.2/../../../../pic32mx/lib/./proc/32MX350F256L/default_isr_vectors.o (__vector_dispatch_16)
/opt/microchip/xc32/v1.31/bin/../lib/gcc/pic32mx/4.5.2/../../../../pic32mx/lib/mips16/libpic32.a(vector17.o)
                              /opt/microchip/xc32/v1.31/bin/../lib/gcc/pic32mx/4.5.2/../../../../pic32mx/lib/./proc/32MX350F256L/default_isr_vectors.o (__vector_dispatch_17)
/opt/microchip/xc32/v1.31/bin/../lib/gcc/pic32mx/4.5.2/../../../../pic32mx/lib/mips16/libpic32.a(vector18.o)
                              /opt/microchip/xc32/v1.31/bin/../lib/gcc/pic32mx/4.5.2/../../../../pic32mx/lib/./proc/32MX350F256L/default_isr_vectors.o (__vector_dispatch_18)
/opt/microchip/xc32/v1.31/bin/../lib/gcc/pic32mx/4.5.2/../../../../pic32mx/lib/mips16/libpic32.a(vector19.o)
                              /opt/microchip/xc32/v1.31/bin/../lib/gcc/pic32mx/4.5.2/../../../../pic32mx/lib/./proc/32MX350F256L/default_isr_vectors.o (__vector_dispatch_19)
/opt/microchip/xc32/v1.31/bin/../lib/gcc/pic32mx/4.5.2/../../../../pic32mx/lib/mips16/libpic32.a(vector20.o)
                              /opt/microchip/xc32/v1.31/bin/../lib/gcc/pic32mx/4.5.2/../../../../pic32mx/lib/./proc/32MX350F256L/default_isr_vectors.o (__vector_dispatch_20)
/opt/microchip/xc32/v1.31/bin/../lib/gcc/pic32mx/4.5.2/../../../../pic32mx/lib/mips16/libpic32.a(vector21.o)
                              /opt/microchip/xc32/v1.31/bin/../lib/gcc/pic32mx/4.5.2/../../../../pic32mx/lib/./proc/32MX350F256L/default_isr_vectors.o (__vector_dispatch_21)
/opt/microchip/xc32/v1.31/bin/../lib/gcc/pic32mx/4.5.2/../../../../pic32mx/lib/mips16/libpic32.a(vector22.o)
                              /opt/microchip/xc32/v1.31/bin/../lib/gcc/pic32mx/4.5.2/../../../../pic32mx/lib/./proc/32MX350F256L/default_isr_vectors.o (__vector_dispatch_22)
/opt/microchip/xc32/v1.31/bin/../lib/gcc/pic32mx/4.5.2/../../../../pic32mx/lib/mips16/libpic32.a(vector23.o)
                              /opt/microchip/xc32/v1.31/bin/../lib/gcc/pic32mx/4.5.2/../../../../pic32mx/lib/./proc/32MX350F256L/default_isr_vectors.o (__vector_dispatch_23)
/opt/microchip/xc32/v1.31/bin/../lib/gcc/pic32mx/4.5.2/../../../../pic32mx/lib/mips16/libpic32.a(vector24.o)
                              /opt/microchip/xc32/v1.31/bin/../lib/gcc/pic32mx/4.5.2/../../../../pic32mx/lib/./proc/32MX350F256L/default_isr_vectors.o (__vector_dispatch_24)
/opt/microchip/xc32/v1.31/bin/../lib/gcc/pic32mx/4.5.2/../../../../pic32mx/lib/mips16/libpic32.a(vector25.o)
                              /opt/microchip/xc32/v1.31/bin/../lib/gcc/pic32mx/4.5.2/../../../../pic32mx/lib/./proc/32MX350F256L/default_isr_vectors.o (__vector_dispatch_25)
/opt/microchip/xc32/v1.31/bin/../lib/gcc/pic32mx/4.5.2/../../../../pic32mx/lib/mips16/libpic32.a(vector26.o)
                              /opt/microchip/xc32/v1.31/bin/../lib/gcc/pic32mx/4.5.2/../../../../pic32mx/lib/./proc/32MX350F256L/default_isr_vectors.o (__vector_dispatch_26)
/opt/microchip/xc32/v1.31/bin/../lib/gcc/pic32mx/4.5.2/../../../../pic32mx/lib/mips16/libpic32.a(vector27.o)
                              /opt/microchip/xc32/v1.31/bin/../lib/gcc/pic32mx/4.5.2/../../../../pic32mx/lib/./proc/32MX350F256L/default_isr_vectors.o (__vector_dispatch_27)
/opt/microchip/xc32/v1.31/bin/../lib/gcc/pic32mx/4.5.2/../../../../pic32mx/lib/mips16/libpic32.a(vector28.o)
                              /opt/microchip/xc32/v1.31/bin/../lib/gcc/pic32mx/4.5.2/../../../../pic32mx/lib/./proc/32MX350F256L/default_isr_vectors.o (__vector_dispatch_28)
/opt/microchip/xc32/v1.31/bin/../lib/gcc/pic32mx/4.5.2/../../../../pic32mx/lib/mips16/libpic32.a(vector29.o)
                              /opt/microchip/xc32/v1.31/bin/../lib/gcc/pic32mx/4.5.2/../../../../pic32mx/lib/./proc/32MX350F256L/default_isr_vectors.o (__vector_dispatch_29)
/opt/microchip/xc32/v1.31/bin/../lib/gcc/pic32mx/4.5.2/../../../../pic32mx/lib/mips16/libpic32.a(vector30.o)
                              /opt/microchip/xc32/v1.31/bin/../lib/gcc/pic32mx/4.5.2/../../../../pic32mx/lib/./proc/32MX350F256L/default_isr_vectors.o (__vector_dispatch_30)
/opt/microchip/xc32/v1.31/bin/../lib/gcc/pic32mx/4.5.2/../../../../pic32mx/lib/mips16/libpic32.a(vector32.o)
                              /opt/microchip/xc32/v1.31/bin/../lib/gcc/pic32mx/4.5.2/../../../../pic32mx/lib/./proc/32MX350F256L/default_isr_vectors.o (__vector_dispatch_32)
/opt/microchip/xc32/v1.31/bin/../lib/gcc/pic32mx/4.5.2/../../../../pic32mx/lib/mips16/libpic32.a(vector33.o)
                              /opt/microchip/xc32/v1.31/bin/../lib/gcc/pic32mx/4.5.2/../../../../pic32mx/lib/./proc/32MX350F256L/default_isr_vectors.o (__vector_dispatch_33)
/opt/microchip/xc32/v1.31/bin/../lib/gcc/pic32mx/4.5.2/../../../../pic32mx/lib/mips16/libpic32.a(vector34.o)
                              /opt/microchip/xc32/v1.31/bin/../lib/gcc/pic32mx/4.5.2/../../../../pic32mx/lib/./proc/32MX350F256L/default_isr_vectors.o (__vector_dispatch_34)
/opt/microchip/xc32/v1.31/bin/../lib/gcc/pic32mx/4.5.2/../../../../pic32mx/lib/mips16/libpic32.a(vector35.o)
                              /opt/microchip/xc32/v1.31/bin/../lib/gcc/pic32mx/4.5.2/../../../../pic32mx/lib/./proc/32MX350F256L/default_isr_vectors.o (__vector_dispatch_35)
/opt/microchip/xc32/v1.31/bin/../lib/gcc/pic32mx/4.5.2/../../../../pic32mx/lib/mips16/libpic32.a(vector37.o)
                              /opt/microchip/xc32/v1.31/bin/../lib/gcc/pic32mx/4.5.2/../../../../pic32mx/lib/./proc/32MX350F256L/default_isr_vectors.o (__vector_dispatch_37)
/opt/microchip/xc32/v1.31/bin/../lib/gcc/pic32mx/4.5.2/../../../../pic32mx/lib/mips16/libpic32.a(vector41.o)
                              /opt/microchip/xc32/v1.31/bin/../lib/gcc/pic32mx/4.5.2/../../../../pic32mx/lib/./proc/32MX350F256L/default_isr_vectors.o (__vector_dispatch_41)
/opt/microchip/xc32/v1.31/bin/../lib/gcc/pic32mx/4.5.2/../../../../pic32mx/lib/mips16/libpic32.a(vector42.o)
                              /opt/microchip/xc32/v1.31/bin/../lib/gcc/pic32mx/4.5.2/../../../../pic32mx/lib/./proc/32MX350F256L/default_isr_vectors.o (__vector_dispatch_42)
/opt/microchip/xc32/v1.31/bin/../lib/gcc/pic32mx/4.5.2/../../../../pic32mx/lib/mips16/libpic32.a(vector43.o)
                              /opt/microchip/xc32/v1.31/bin/../lib/gcc/pic32mx/4.5.2/../../../../pic32mx/lib/./proc/32MX350F256L/default_isr_vectors.o (__vector_dispatch_43)
/opt/microchip/xc32/v1.31/bin/../lib/gcc/pic32mx/4.5.2/../../../../pic32mx/lib/mips16/libpic32.a(vector44.o)
                              /opt/microchip/xc32/v1.31/bin/../lib/gcc/pic32mx/4.5.2/../../../../pic32mx/lib/./proc/32MX350F256L/default_isr_vectors.o (__vector_dispatch_44)
/opt/microchip/xc32/v1.31/bin/../lib/gcc/pic32mx/4.5.2/../../../../pic32mx/lib/mips16/libpic32.a(vector45.o)
                              /opt/microchip/xc32/v1.31/bin/../lib/gcc/pic32mx/4.5.2/../../../../pic32mx/lib/./proc/32MX350F256L/default_isr_vectors.o (__vector_dispatch_45)
/opt/microchip/xc32/v1.31/bin/../lib/gcc/pic32mx/4.5.2/../../../../pic32mx/lib/mips16/libpic32.a(vector46.o)
                              /opt/microchip/xc32/v1.31/bin/../lib/gcc/pic32mx/4.5.2/../../../../pic32mx/lib/./proc/32MX350F256L/default_isr_vectors.o (__vector_dispatch_46)
/opt/microchip/xc32/v1.31/bin/../lib/gcc/pic32mx/4.5.2/../../../../pic32mx/lib/mips16/libpic32.a(vector47.o)
                              /opt/microchip/xc32/v1.31/bin/../lib/gcc/pic32mx/4.5.2/../../../../pic32mx/lib/./proc/32MX350F256L/default_isr_vectors.o (__vector_dispatch_47)
/opt/microchip/xc32/v1.31/bin/../lib/gcc/pic32mx/4.5.2/../../../../pic32mx/lib/mips16/libpic32.a(vector48.o)
                              /opt/microchip/xc32/v1.31/bin/../lib/gcc/pic32mx/4.5.2/../../../../pic32mx/lib/./proc/32MX350F256L/default_isr_vectors.o (__vector_dispatch_48)
/opt/microchip/xc32/v1.31/bin/../lib/gcc/pic32mx/4.5.2/../../../../pic32mx/lib/mips16/libpic32.a(vector49.o)
                              /opt/microchip/xc32/v1.31/bin/../lib/gcc/pic32mx/4.5.2/../../../../pic32mx/lib/./proc/32MX350F256L/default_isr_vectors.o (__vector_dispatch_49)
/opt/microchip/xc32/v1.31/bin/../lib/gcc/pic32mx/4.5.2/../../../../pic32mx/lib/mips16/libpic32.a(vector50.o)
                              /opt/microchip/xc32/v1.31/bin/../lib/gcc/pic32mx/4.5.2/../../../../pic32mx/lib/./proc/32MX350F256L/default_isr_vectors.o (__vector_dispatch_50)
/opt/microchip/xc32/v1.31/bin/../lib/gcc/pic32mx/4.5.2/../../../../pic32mx/lib/mips16/libpic32.a(vector51.o)
                              /opt/microchip/xc32/v1.31/bin/../lib/gcc/pic32mx/4.5.2/../../../../pic32mx/lib/./proc/32MX350F256L/default_isr_vectors.o (__vector_dispatch_51)
/opt/microchip/xc32/v1.31/bin/../lib/gcc/pic32mx/4.5.2/../../../../pic32mx/lib/mips16/libpic32.a(vector52.o)
                              /opt/microchip/xc32/v1.31/bin/../lib/gcc/pic32mx/4.5.2/../../../../pic32mx/lib/./proc/32MX350F256L/default_isr_vectors.o (__vector_dispatch_52)
/opt/microchip/xc32/v1.31/bin/../lib/gcc/pic32mx/4.5.2/../../../../pic32mx/lib/mips16/libpic32.a(vector53.o)
                              /opt/microchip/xc32/v1.31/bin/../lib/gcc/pic32mx/4.5.2/../../../../pic32mx/lib/./proc/32MX350F256L/default_isr_vectors.o (__vector_dispatch_53)
/opt/microchip/xc32/v1.31/bin/../lib/gcc/pic32mx/4.5.2/../../../../pic32mx/lib/mips16/libpic32.a(vector54.o)
                              /opt/microchip/xc32/v1.31/bin/../lib/gcc/pic32mx/4.5.2/../../../../pic32mx/lib/./proc/32MX350F256L/default_isr_vectors.o (__vector_dispatch_54)
/opt/microchip/xc32/v1.31/bin/../lib/gcc/pic32mx/4.5.2/../../../../pic32mx/lib/mips16/libpic32.a(vector55.o)
                              /opt/microchip/xc32/v1.31/bin/../lib/gcc/pic32mx/4.5.2/../../../../pic32mx/lib/./proc/32MX350F256L/default_isr_vectors.o (__vector_dispatch_55)
/opt/microchip/xc32/v1.31/bin/../lib/gcc/pic32mx/4.5.2/../../../../pic32mx/lib/mips16/libpic32.a(vector56.o)
                              /opt/microchip/xc32/v1.31/bin/../lib/gcc/pic32mx/4.5.2/../../../../pic32mx/lib/./proc/32MX350F256L/default_isr_vectors.o (__vector_dispatch_56)
/opt/microchip/xc32/v1.31/bin/../lib/gcc/pic32mx/4.5.2/../../../../pic32mx/lib/mips16/libpic32.a(vector57.o)
                              /opt/microchip/xc32/v1.31/bin/../lib/gcc/pic32mx/4.5.2/../../../../pic32mx/lib/./proc/32MX350F256L/default_isr_vectors.o (__vector_dispatch_57)
/opt/microchip/xc32/v1.31/bin/../lib/gcc/pic32mx/4.5.2/../../../../pic32mx/lib/mips16/libpic32.a(vector58.o)
                              /opt/microchip/xc32/v1.31/bin/../lib/gcc/pic32mx/4.5.2/../../../../pic32mx/lib/./proc/32MX350F256L/default_isr_vectors.o (__vector_dispatch_58)
/opt/microchip/xc32/v1.31/bin/../lib/gcc/pic32mx/4.5.2/../../../../pic32mx/lib/mips16/libpic32.a(vector59.o)
                              /opt/microchip/xc32/v1.31/bin/../lib/gcc/pic32mx/4.5.2/../../../../pic32mx/lib/./proc/32MX350F256L/default_isr_vectors.o (__vector_dispatch_59)
/opt/microchip/xc32/v1.31/bin/../lib/gcc/pic32mx/4.5.2/../../../../pic32mx/lib/mips16/libpic32.a(vector60.o)
                              /opt/microchip/xc32/v1.31/bin/../lib/gcc/pic32mx/4.5.2/../../../../pic32mx/lib/./proc/32MX350F256L/default_isr_vectors.o (__vector_dispatch_60)
/opt/microchip/xc32/v1.31/bin/../lib/gcc/pic32mx/4.5.2/../../../../pic32mx/lib/mips16/libpic32.a(vector61.o)
                              /opt/microchip/xc32/v1.31/bin/../lib/gcc/pic32mx/4.5.2/../../../../pic32mx/lib/./proc/32MX350F256L/default_isr_vectors.o (__vector_dispatch_61)
/opt/microchip/xc32/v1.31/bin/../lib/gcc/pic32mx/4.5.2/../../../../pic32mx/lib/mips16/libpic32.a(vector62.o)
                              /opt/microchip/xc32/v1.31/bin/../lib/gcc/pic32mx/4.5.2/../../../../pic32mx/lib/./proc/32MX350F256L/default_isr_vectors.o (__vector_dispatch_62)
/opt/microchip/xc32/v1.31/bin/../lib/gcc/pic32mx/4.5.2/../../../../pic32mx/lib/mips16/libpic32.a(vector63.o)
                              /opt/microchip/xc32/v1.31/bin/../lib/gcc/pic32mx/4.5.2/../../../../pic32mx/lib/./proc/32MX350F256L/default_isr_vectors.o (__vector_dispatch_63)
/opt/microchip/xc32/v1.31/bin/../lib/gcc/pic32mx/4.5.2/../../../../pic32mx/lib/mips16/libm.a(mod32.o)
                              build/default/production/src/scpi-parser/libscpi/src/utils.o (modf)
/opt/microchip/xc32/v1.31/bin/../lib/gcc/pic32mx/4.5.2/../../../../pic32mx/lib/mips16/libm.a(w_pow.o)
                              build/default/production/src/utils/fcvt-1.1/fcvt.o (pow)
/opt/microchip/xc32/v1.31/bin/../lib/gcc/pic32mx/4.5.2/../../../../pic32mx/lib/mips16/libm.a(w_log10.o)
                              build/default/production/src/utils/fcvt-1.1/fcvt.o (log10)
/opt/microchip/xc32/v1.31/bin/../lib/gcc/pic32mx/4.5.2/../../../../pic32mx/lib/mips16/libm.a(floor.o)
                              build/default/production/src/utils/src/strutils.o (rintl)
/opt/microchip/xc32/v1.31/bin/../lib/gcc/pic32mx/4.5.2/../../../../pic32mx/lib/mips16/libm.a(ceil32.o)
                              build/default/production/src/utils/fcvt-1.1/fcvt.o (ceil)
/opt/microchip/xc32/v1.31/bin/../lib/gcc/pic32mx/4.5.2/../../../../pic32mx/lib/mips16/libm.a(dp32.o)
                              build/default/production/src/drivers/adc.o (dpsub)
/opt/microchip/xc32/v1.31/bin/../lib/gcc/pic32mx/4.5.2/../../../../pic32mx/lib/mips16/libm.a(w_sqrt.o)
                              build/default/production/src/utils/src/fitlinear.o (sqrt)
/opt/microchip/xc32/v1.31/bin/../lib/gcc/pic32mx/4.5.2/../../../../pic32mx/lib/mips16/libm.a(fp32.o)
                              /opt/microchip/xc32/v1.31/bin/../lib/gcc/pic32mx/4.5.2/mips16/libgcc.a(floatunsisf.o) (fpadd)
/opt/microchip/xc32/v1.31/bin/../lib/gcc/pic32mx/4.5.2/../../../../pic32mx/lib/mips16/libm.a(s_lib_ver.o)
                              /opt/microchip/xc32/v1.31/bin/../lib/gcc/pic32mx/4.5.2/../../../../pic32mx/lib/mips16/libm.a(w_pow.o) (math_errhandling)
/opt/microchip/xc32/v1.31/bin/../lib/gcc/pic32mx/4.5.2/../../../../pic32mx/lib/mips16/libm.a(support.o)
                              /opt/microchip/xc32/v1.31/bin/../lib/gcc/pic32mx/4.5.2/../../../../pic32mx/lib/mips16/libm.a(floor.o) (copysignl)
/opt/microchip/xc32/v1.31/bin/../lib/gcc/pic32mx/4.5.2/../../../../pic32mx/lib/mips16/libm.a(w_ldexp.o)
                              /opt/microchip/xc32/v1.31/bin/../lib/gcc/pic32mx/4.5.2/../../../../pic32mx/lib/mips16/libm.a(support.o) (ldexp)
/opt/microchip/xc32/v1.31/bin/../lib/gcc/pic32mx/4.5.2/../../../../pic32mx/lib/mips16/libm.a(pow32.o)
                              /opt/microchip/xc32/v1.31/bin/../lib/gcc/pic32mx/4.5.2/../../../../pic32mx/lib/mips16/libm.a(w_pow.o) (__mchp_pow)
/opt/microchip/xc32/v1.31/bin/../lib/gcc/pic32mx/4.5.2/../../../../pic32mx/lib/mips16/libm.a(log32.o)
                              /opt/microchip/xc32/v1.31/bin/../lib/gcc/pic32mx/4.5.2/../../../../pic32mx/lib/mips16/libm.a(pow32.o) (exlog)
/opt/microchip/xc32/v1.31/bin/../lib/gcc/pic32mx/4.5.2/../../../../pic32mx/lib/mips16/libm.a(func32.o)
                              /opt/microchip/xc32/v1.31/bin/../lib/gcc/pic32mx/4.5.2/../../../../pic32mx/lib/mips16/libm.a(log32.o) (sigmax)
/opt/microchip/xc32/v1.31/bin/../lib/gcc/pic32mx/4.5.2/../../../../pic32mx/lib/mips16/libm.a(sqrt32.o)
                              /opt/microchip/xc32/v1.31/bin/../lib/gcc/pic32mx/4.5.2/../../../../pic32mx/lib/mips16/libm.a(w_sqrt.o) (__mchp_sqrt)
/opt/microchip/xc32/v1.31/bin/../lib/gcc/pic32mx/4.5.2/../../../../pic32mx/lib/mips16/libm.a(exp32.o)
                              /opt/microchip/xc32/v1.31/bin/../lib/gcc/pic32mx/4.5.2/../../../../pic32mx/lib/mips16/libm.a(pow32.o) (exexp)
/opt/microchip/xc32/v1.31/bin/../lib/gcc/pic32mx/4.5.2/../../../../pic32mx/lib/mips16/libe.a(_unorddf2.o)
                              build/default/production/src/scpi-parser/libscpi/src/utils.o (__unorddf2)
/opt/microchip/xc32/v1.31/bin/../lib/gcc/pic32mx/4.5.2/../../../../pic32mx/lib/mips16/libpic32.a(errno.o)
                              /opt/microchip/xc32/v1.31/bin/../lib/gcc/pic32mx/4.5.2/../../../../pic32mx/lib/mips16/libm.a(w_pow.o) (errno)
/opt/microchip/xc32/v1.31/bin/../lib/gcc/pic32mx/4.5.2/../../../../pic32mx/lib/mips16/libpic32.a(isinf.o)
                              /opt/microchip/xc32/v1.31/bin/../lib/gcc/pic32mx/4.5.2/../../../../pic32mx/lib/mips16/libm.a(w_pow.o) (isinfl)
/opt/microchip/xc32/v1.31/bin/../lib/gcc/pic32mx/4.5.2/../../../../pic32mx/lib/mips16/libc.a(_iob.o)
                              build/default/production/src/tasks/task_scpi.o (_iob)
/opt/microchip/xc32/v1.31/bin/../lib/gcc/pic32mx/4.5.2/../../../../pic32mx/lib/mips16/libc.a(fwrite.o)
                              build/default/production/src/tasks/task_scpi.o (fwrite)
/opt/microchip/xc32/v1.31/bin/../lib/gcc/pic32mx/4.5.2/../../../../pic32mx/lib/mips16/libc.a(ctype.o)
                              build/default/production/src/scpi-parser/libscpi/src/lexer.o (_ctype)
/opt/microchip/xc32/v1.31/bin/../lib/gcc/pic32mx/4.5.2/../../../../pic32mx/lib/mips16/libc.a(ctypef.o)
                              build/default/production/src/tasks/tskmgr.o (toupper)
/opt/microchip/xc32/v1.31/bin/../lib/gcc/pic32mx/4.5.2/../../../../pic32mx/lib/mips16/libc.a(memcmp.o)
                              build/default/production/src/FreeRTOS/portable/MPLAB/PIC32MX/port.o (memcmp)
/opt/microchip/xc32/v1.31/bin/../lib/gcc/pic32mx/4.5.2/../../../../pic32mx/lib/mips16/libc.a(memcpy.o)
                              build/default/production/src/eefs/eefs.o (memcpy)
/opt/microchip/xc32/v1.31/bin/../lib/gcc/pic32mx/4.5.2/../../../../pic32mx/lib/mips16/libc.a(memmove.o)
                              build/default/production/src/scpi-parser/libscpi/src/parser.o (memmove)
/opt/microchip/xc32/v1.31/bin/../lib/gcc/pic32mx/4.5.2/../../../../pic32mx/lib/mips16/libc.a(memset.o)
                              build/default/production/src/drivers/dispkyb.o (memset)
/opt/microchip/xc32/v1.31/bin/../lib/gcc/pic32mx/4.5.2/../../../../pic32mx/lib/mips16/libc.a(puts.o)
                              build/default/production/src/tasks/task_scpi.o (puts)
/opt/microchip/xc32/v1.31/bin/../lib/gcc/pic32mx/4.5.2/../../../../pic32mx/lib/mips16/libc.a(strchr.o)
                              build/default/production/src/utils/src/strutils.o (strchr)
/opt/microchip/xc32/v1.31/bin/../lib/gcc/pic32mx/4.5.2/../../../../pic32mx/lib/mips16/libc.a(strlen.o)
                              build/default/production/src/scpi-parser/libscpi/src/ieee488.o (strlen)
/opt/microchip/xc32/v1.31/bin/../lib/gcc/pic32mx/4.5.2/../../../../pic32mx/lib/mips16/libc.a(strncasecmp.o)
                              build/default/production/src/scpi-parser/libscpi/src/utils.o (strncasecmp)
/opt/microchip/xc32/v1.31/bin/../lib/gcc/pic32mx/4.5.2/../../../../pic32mx/lib/mips16/libc.a(strncat.o)
                              build/default/production/src/scpi-parser/libscpi/src/units.o (strncat)
/opt/microchip/xc32/v1.31/bin/../lib/gcc/pic32mx/4.5.2/../../../../pic32mx/lib/mips16/libc.a(strncpy.o)
                              build/default/production/src/scpi-parser/libscpi/src/units.o (strncpy)
/opt/microchip/xc32/v1.31/bin/../lib/gcc/pic32mx/4.5.2/../../../../pic32mx/lib/mips16/libc.a(strtod.o)
                              build/default/production/src/scpi-parser/libscpi/src/utils.o (_dstrtod)
/opt/microchip/xc32/v1.31/bin/../lib/gcc/pic32mx/4.5.2/../../../../pic32mx/lib/mips16/libc.a(strtof.o)
                              build/default/production/src/scpi-parser/libscpi/src/utils.o (strtof)
/opt/microchip/xc32/v1.31/bin/../lib/gcc/pic32mx/4.5.2/../../../../pic32mx/lib/mips16/libc.a(strstr.o)
                              build/default/production/src/utils/src/strutils.o (strstr)
/opt/microchip/xc32/v1.31/bin/../lib/gcc/pic32mx/4.5.2/../../../../pic32mx/lib/mips16/libc.a(strtol.o)
                              build/default/production/src/scpi-parser/libscpi/src/utils.o (strtoul)
/opt/microchip/xc32/v1.31/bin/../lib/gcc/pic32mx/4.5.2/../../../../pic32mx/lib/mips16/libc.a(strtoll.o)
                              build/default/production/src/scpi-parser/libscpi/src/utils.o (strtoull)
/opt/microchip/xc32/v1.31/bin/../lib/gcc/pic32mx/4.5.2/../../../../pic32mx/lib/mips16/libc.a(printf_cdfFnopsuxX.eo)
                              build/default/production/src/tasks/task_scpi.o (_printf_cdfFnopsuxX)
/opt/microchip/xc32/v1.31/bin/../lib/gcc/pic32mx/4.5.2/../../../../pic32mx/lib/mips16/libc.a(printf_fFs.eo)
                              build/default/production/src/tasks/task_scpi.o (_printf_fFs)
/opt/microchip/xc32/v1.31/bin/../lib/gcc/pic32mx/4.5.2/../../../../pic32mx/lib/mips16/libc.a(printf_s.eo)
                              build/default/production/src/tasks/task_scpi.o (_printf_s)
/opt/microchip/xc32/v1.31/bin/../lib/gcc/pic32mx/4.5.2/../../../../pic32mx/lib/mips16/libc.a(vprintf.o)
                              build/default/production/src/utils/src/diag.o (vprintf)
/opt/microchip/xc32/v1.31/bin/../lib/gcc/pic32mx/4.5.2/../../../../pic32mx/lib/mips16/libc.a(snprintf_gG.eo)
                              build/default/production/src/scpi-parser/libscpi/src/utils.o (_snprintf_gG)
/opt/microchip/xc32/v1.31/bin/../lib/gcc/pic32mx/4.5.2/../../../../pic32mx/lib/mips16/libc.a(vsnprintf_gG.eo)
                              /opt/microchip/xc32/v1.31/bin/../lib/gcc/pic32mx/4.5.2/../../../../pic32mx/lib/mips16/libc.a(snprintf_gG.eo) (_vsnprintf_gG)
/opt/microchip/xc32/v1.31/bin/../lib/gcc/pic32mx/4.5.2/../../../../pic32mx/lib/mips16/libc.a(fflush.o)
                              /opt/microchip/xc32/v1.31/bin/../lib/gcc/pic32mx/4.5.2/../../../../pic32mx/lib/mips16/libc.a(fwrite.o) (fflush)
/opt/microchip/xc32/v1.31/bin/../lib/gcc/pic32mx/4.5.2/../../../../pic32mx/lib/mips16/libc.a(_fputc_simple.o)
                              /opt/microchip/xc32/v1.31/bin/../lib/gcc/pic32mx/4.5.2/../../../../pic32mx/lib/mips16/libc.a(fwrite.o) (fputc)
/opt/microchip/xc32/v1.31/bin/../lib/gcc/pic32mx/4.5.2/../../../../pic32mx/lib/mips16/libc.a(fseek.o)
                              /opt/microchip/xc32/v1.31/bin/../lib/gcc/pic32mx/4.5.2/../../../../pic32mx/lib/mips16/libc.a(fwrite.o) (fseek)
/opt/microchip/xc32/v1.31/bin/../lib/gcc/pic32mx/4.5.2/../../../../pic32mx/lib/mips16/libc.a(strncmp.o)
                              /opt/microchip/xc32/v1.31/bin/../lib/gcc/pic32mx/4.5.2/../../../../pic32mx/lib/mips16/libc.a(strstr.o) (strncmp)
/opt/microchip/xc32/v1.31/bin/../lib/gcc/pic32mx/4.5.2/../../../../pic32mx/lib/mips16/libc.a(doprnt_cdfFnopsuxX.eo)
                              /opt/microchip/xc32/v1.31/bin/../lib/gcc/pic32mx/4.5.2/../../../../pic32mx/lib/mips16/libc.a(printf_cdfFnopsuxX.eo) (_vfprintf_cdfFnopsuxX)
/opt/microchip/xc32/v1.31/bin/../lib/gcc/pic32mx/4.5.2/../../../../pic32mx/lib/mips16/libc.a(doprnt_fFs.eo)
                              /opt/microchip/xc32/v1.31/bin/../lib/gcc/pic32mx/4.5.2/../../../../pic32mx/lib/mips16/libc.a(printf_fFs.eo) (_vfprintf_fFs)
/opt/microchip/xc32/v1.31/bin/../lib/gcc/pic32mx/4.5.2/../../../../pic32mx/lib/mips16/libc.a(doprnt_gG.eo)
                              /opt/microchip/xc32/v1.31/bin/../lib/gcc/pic32mx/4.5.2/../../../../pic32mx/lib/mips16/libc.a(vsnprintf_gG.eo) (_vfprintf_gG)
/opt/microchip/xc32/v1.31/bin/../lib/gcc/pic32mx/4.5.2/../../../../pic32mx/lib/mips16/libc.a(doprnt_s.eo)
                              /opt/microchip/xc32/v1.31/bin/../lib/gcc/pic32mx/4.5.2/../../../../pic32mx/lib/mips16/libc.a(printf_s.eo) (_vfprintf_s)
/opt/microchip/xc32/v1.31/bin/../lib/gcc/pic32mx/4.5.2/../../../../pic32mx/lib/mips16/libc.a(doprnt.o)
                              /opt/microchip/xc32/v1.31/bin/../lib/gcc/pic32mx/4.5.2/../../../../pic32mx/lib/mips16/libc.a(vprintf.o) (vfprintf)
/opt/microchip/xc32/v1.31/bin/../lib/gcc/pic32mx/4.5.2/../../../../pic32mx/lib/mips16/libc.a(_flsbuf_simple.o)
                              /opt/microchip/xc32/v1.31/bin/../lib/gcc/pic32mx/4.5.2/../../../../pic32mx/lib/mips16/libc.a(_fputc_simple.o) (_flsbuf)
/opt/microchip/xc32/v1.31/bin/../lib/gcc/pic32mx/4.5.2/../../../../pic32mx/lib/mips16/libc.a(powersf.o)
                              /opt/microchip/xc32/v1.31/bin/../lib/gcc/pic32mx/4.5.2/../../../../pic32mx/lib/mips16/libc.a(doprnt_cdfFnopsuxX.eo) (_powers_f)
/opt/microchip/xc32/v1.31/bin/../lib/gcc/pic32mx/4.5.2/../../../../pic32mx/lib/mips16/libpic32.a(write.o)
                              /opt/microchip/xc32/v1.31/bin/../lib/gcc/pic32mx/4.5.2/../../../../pic32mx/lib/mips16/libc.a(fflush.o) (write)
/opt/microchip/xc32/v1.31/bin/../lib/gcc/pic32mx/4.5.2/../../../../pic32mx/lib/mips16/libpic32.a(lseek.o)
                              /opt/microchip/xc32/v1.31/bin/../lib/gcc/pic32mx/4.5.2/../../../../pic32mx/lib/mips16/libc.a(fseek.o) (lseek)
/opt/microchip/xc32/v1.31/bin/../lib/gcc/pic32mx/4.5.2/../../../../pic32mx/lib/mips16/libm.a(fpmod32.o)
                              /opt/microchip/xc32/v1.31/bin/../lib/gcc/pic32mx/4.5.2/../../../../pic32mx/lib/mips16/libc.a(doprnt_cdfFnopsuxX.eo) (frexpf)
/opt/microchip/xc32/v1.31/bin/../lib/gcc/pic32mx/4.5.2/../../../../pic32mx/lib/mips16/libe.a(_floatdisf.o)
                              /opt/microchip/xc32/v1.31/bin/../lib/gcc/pic32mx/4.5.2/../../../../pic32mx/lib/mips16/libc.a(doprnt_cdfFnopsuxX.eo) (__floatdisf)
/opt/microchip/xc32/v1.31/bin/../lib/gcc/pic32mx/4.5.2/../../../../pic32mx/lib/mips16/libe.a(_strtod.o)
                              /opt/microchip/xc32/v1.31/bin/../lib/gcc/pic32mx/4.5.2/../../../../pic32mx/lib/mips16/libc.a(strtod.o) (__strtod)
/opt/microchip/xc32/v1.31/bin/../lib/gcc/pic32mx/4.5.2/../../../../pic32mx/lib/mips16/libe.a(_strtof.o)
                              /opt/microchip/xc32/v1.31/bin/../lib/gcc/pic32mx/4.5.2/../../../../pic32mx/lib/mips16/libc.a(strtof.o) (__strtof)
/opt/microchip/xc32/v1.31/bin/../lib/gcc/pic32mx/4.5.2/../../../../pic32mx/lib/mips16/libe.a(_ldexp.o)
                              /opt/microchip/xc32/v1.31/bin/../lib/gcc/pic32mx/4.5.2/../../../../pic32mx/lib/mips16/libe.a(_strtod.o) (__ldexp)
/opt/microchip/xc32/v1.31/bin/../lib/gcc/pic32mx/4.5.2/../../../../pic32mx/lib/mips16/libe.a(_ldexpf.o)
                              /opt/microchip/xc32/v1.31/bin/../lib/gcc/pic32mx/4.5.2/../../../../pic32mx/lib/mips16/libe.a(_strtof.o) (__ldexpf)
/opt/microchip/xc32/v1.31/bin/../lib/gcc/pic32mx/4.5.2/mips16/libgcc.a(_lshrdi3.o)
                              /opt/microchip/xc32/v1.31/bin/../lib/gcc/pic32mx/4.5.2/../../../../pic32mx/lib/mips16/libe.a(_ldexp.o) (__lshrdi3)
/opt/microchip/xc32/v1.31/bin/../lib/gcc/pic32mx/4.5.2/mips16/libgcc.a(_floatundisf.o)
                              /opt/microchip/xc32/v1.31/bin/../lib/gcc/pic32mx/4.5.2/../../../../pic32mx/lib/mips16/libc.a(doprnt_cdfFnopsuxX.eo) (__floatundisf)
/opt/microchip/xc32/v1.31/bin/../lib/gcc/pic32mx/4.5.2/mips16/libgcc.a(_umoddi3.o)
                              /opt/microchip/xc32/v1.31/bin/../lib/gcc/pic32mx/4.5.2/../../../../pic32mx/lib/mips16/libc.a(doprnt_cdfFnopsuxX.eo) (__umoddi3)
/opt/microchip/xc32/v1.31/bin/../lib/gcc/pic32mx/4.5.2/../../../../pic32mx/lib/mips16/libc.a(doprnt_cdfFgGnopsuxX.eo)
                              (_vfprintf_cdfFgGnopsuxX)

Allocating common symbols
Common symbol       size              file

event_queue         0x4               build/default/production/src/drivers/dispkyb.o
on_data_received    0x14              build/default/production/src/hal/hal_uart.o
usb_queue           0x4               build/default/production/src/drivers/usb_uart.o
on_data_sent        0x14              build/default/production/src/hal/hal_uart.o
buffers             0x40              build/default/production/src/utils/src/util_ringbuff.o
buff                0x32              build/default/production/src/tasks/task_scpi.o
gui32DebugFlags     0x4               build/default/production/src/utils/src/diag.o

Microchip PIC32 Memory-Usage Report

kseg0 Program-Memory Usage
section                    address  length [bytes]      (dec)  Description
-------                 ----------  -------------------------  -----------
.text                   0x9d000000         0x5d80       23936  App's exec code 
.text._vfprintf_cdfFgGn 0x9d005d80         0x1388        5000   
.text                   0x9d007108         0x4c5c       19548  App's exec code 
.rodata                 0x9d00bd64            0x4           4  Read-only const 
.text                   0x9d00bd68         0x1b3c        6972  App's exec code 
.text._on_reset         0x9d00d8a4            0x4           4   
.text                   0x9d00d8a8          0x7f0        2032  App's exec code 
.dinit                  0x9d00e098          0x730        1840   
.text                   0x9d00e7c8          0x6ac        1708  App's exec code 
.text._on_bootstrap     0x9d00ee74            0x4           4   
.text                   0x9d00ee78         0x1264        4708  App's exec code 
.rodata                 0x9d0100dc          0x5dc        1500  Read-only const 
.text                   0x9d0106b8         0x2668        9832  App's exec code 
.rodata                 0x9d012d20          0x4c4        1220  Read-only const 
.text                   0x9d0131e4          0x8c8        2248  App's exec code 
.rodata                 0x9d013aac          0x410        1040  Read-only const 
.text.lseek             0x9d013ebc            0x4           4   
.text                   0x9d013ec0          0x820        2080  App's exec code 
.rodata                 0x9d0146e0          0x400        1024  Read-only const 
.text                   0x9d014ae0          0xf54        3924  App's exec code 
.text                   0x9d015a38         0x1ac4        6852  App's exec code 
.rodata                 0x9d017500          0x280         640  Read-only const 
.text.__strtod          0x9d017780          0x280         640   
.text                   0x9d017a00          0x498        1176  App's exec code 
.text.__strtof          0x9d017e98          0x234         564   
.text                   0x9d0180cc          0x534        1332  App's exec code 
.text.strtoull          0x9d018600          0x17c         380   
.rodata                 0x9d01877c          0x178         376  Read-only const 
.text                   0x9d0188f4          0x528        1320  App's exec code 
.text.PowerSaveIdle     0x9d018e1c          0x10c         268   
.rodata                 0x9d018f28          0x204         516  Read-only const 
.text                   0x9d01912c           0xfc         252  App's exec code 
.text.fwrite            0x9d019228           0xfc         252   
.text.strtoul           0x9d019324           0xfc         252   
.text.__floatdisf       0x9d019420           0xf4         244   
.text                   0x9d019518           0xf0         240  App's exec code 
.text.scale             0x9d019608           0xe8         232   
.text.strtoll           0x9d0196f0           0xe0         224   
.text.general_exception 0x9d0197d0           0xdc         220   
.text.ieee754dp_format  0x9d0198ac           0xd8         216   
.text                   0x9d019988           0xd0         208  App's exec code 
.text.pow               0x9d019a58           0xd0         208   
.rodata                 0x9d019b28           0xd0         208  Read-only const 
.text.fputc             0x9d019bf8           0xc4         196   
.text.fseek             0x9d019cbc           0xc0         192   
.text                   0x9d019d7c           0xb8         184  App's exec code 
.text.strtol            0x9d019e34           0xb0         176   
.text._flsbuf           0x9d019ee4           0xb0         176   
.text.fround            0x9d019f94           0xb0         176   
.text                   0x9d01a044           0x90         144  App's exec code 
.text.rintl             0x9d01a0d8           0x90         144   
.rodata                 0x9d01a168           0x8c         140  Read-only const 
.text.ieee754sp_format  0x9d01a1f4          0x108         264   
.text.log10             0x9d01a300           0x80         128   
.text.__ldexp           0x9d01a380           0x6c         108   
.rodata                 0x9d01a3ec           0x68         104  Read-only const 
.text.fflush            0x9d01a454           0x60          96   
.text                   0x9d01a4b4           0x58          88  App's exec code 
.rodata                 0x9d01a50c           0xa4         164  Read-only const 
.text.main_entry        0x9d01a5b0           0x4c          76   
.text.UARTEnable        0x9d01a5fc           0x4c          76   
.text                   0x9d01a648           0x48          72  App's exec code 
.rodata.f5pow.f5pow     0x9d01a690           0x48          72   
.rodata                 0x9d01a6d8           0x44          68  Read-only const 
.text                   0x9d01a71c           0x44          68  App's exec code 
.text.SpiChnOpen        0x9d01a760           0x44          68   
.text                   0x9d01a7a4           0x44          68  App's exec code 
.text.write             0x9d01a7e8           0x44          68   
.text.__ldexpf          0x9d01a82c           0x44          68   
.text.sqrt              0x9d01a870           0x40          64   
.text.strstr            0x9d01a8b0           0x40          64   
.rodata                 0x9d01a8f0           0x78         120  Read-only const 
.text.memcmp            0x9d01a968           0x3c          60   
.text.strncat           0x9d01a9a4           0x3c          60   
.text.strncmp           0x9d01a9e0           0x3c          60   
.rodata                 0x9d01aa1c           0x38          56  Read-only const 
.text.SpiChnPutC        0x9d01aa54           0x38          56   
.text.UARTSetDataRate   0x9d01aa8c           0x38          56   
.text.I2CBusIsIdle      0x9d01aac4           0x38          56   
.text._bootstrap_except 0x9d01aafc           0x38          56   
.text.strncasecmp       0x9d01ab34           0x38          56   
.rodata                 0x9d01ab6c           0x34          52  Read-only const 
.text.memmove           0x9d01aba0           0x34          52   
.text.ftell             0x9d01abd4           0x34          52   
.rodata                 0x9d01ac08           0x30          48  Read-only const 
.text.INTConfigureSyste 0x9d01ac38           0x30          48   
.text.I2CReceiverEnable 0x9d01ac68           0x30          48   
.text.strncpy           0x9d01ac98           0x30          48   
.text._vsnprintf_gG     0x9d01acc8           0x30          48   
.text._ssize.clone.0    0x9d01acf8           0x30          48   
.text.INTEnable         0x9d01ad28           0x2c          44   
.text.I2CGetStatus      0x9d01ad54           0x2c          44   
.text.I2CSetFrequency   0x9d01ad80           0x2c          44   
.text.copysignl         0x9d01adac           0x2c          44   
.text                   0x9d01add8           0x2c          44  App's exec code 
.text.UARTConfigure     0x9d01ae04           0x28          40   
.text                   0x9d01ae30           0x50          80  App's exec code 
.text.__unorddf2        0x9d01ae80           0x28          40   
.text.fputs             0x9d01aea8           0x28          40   
.text.I2CAcknowledgeByt 0x9d01aed0           0x24          36   
.text.I2CEnable         0x9d01aef4           0x24          36   
.text.I2CRepeatStart    0x9d01af18           0x24          36   
.text.I2CSendByte       0x9d01af3c           0x24          36   
.text.I2CStart          0x9d01af60           0x24          36   
.text.isinfl            0x9d01af84           0x24          36   
.text.INTSetVectorPrior 0x9d01afa8           0x20          32   
.text.PORTSetPinsDigita 0x9d01afc8           0x20          32   
.text.PORTSetPinsDigita 0x9d01afe8           0x20          32   
.text.ieee754dp_isnan   0x9d01b008           0x20          32   
.text.puts              0x9d01b028           0x20          32   
.text                   0x9d01b048           0x1c          28  App's exec code 
.text.INTRestoreInterru 0x9d01b064           0x1c          28   
.text.I2CByteWasAcknowl 0x9d01b080           0x1c          28   
.text.I2CTransmissionHa 0x9d01b09c           0x1c          28   
.rodata                 0x9d01b0b8           0x18          24  Read-only const 
.text.CheKseg0CacheOn   0x9d01b0d0           0x18          24   
.text.INTClearFlag      0x9d01b0e8           0x18          24   
.text.INTGetFlag        0x9d01b100           0x18          24   
.text.PORTReadBits      0x9d01b118           0x18          24   
.text.UARTSetFifoMode   0x9d01b130           0x18          24   
.text.I2CAcknowledgeHas 0x9d01b148           0x18          24   
.text.I2CReceivedDataIs 0x9d01b160           0x18          24   
.text.I2CTransmitterIsR 0x9d01b178           0x18          24   
.text                   0x9d01b190           0x18          24  App's exec code 
.text.tolower           0x9d01b1a8           0x18          24   
.text.toupper           0x9d01b1c0           0x18          24   
.text.memcpy            0x9d01b1d8           0x18          24   
.text._printf_cdfFnopsu 0x9d01b1f0           0x18          24   
.text.ieee754dp_isinf   0x9d01b208           0x18          24   
.rodata.f5pow.f5pow     0x9d01b220           0x18          24   
.rodata                 0x9d01b238           0x14          20  Read-only const 
.text.PORTClearBits     0x9d01b24c           0x14          20   
.text.PORTSetBits       0x9d01b260           0x14          20   
.text.PORTToggleBits    0x9d01b274           0x14          20   
.text.UARTSetLineContro 0x9d01b288           0x14          20   
.rodata                 0x9d01b29c           0x14          20  Read-only const 
.text.I2CGetByte        0x9d01b2b0           0x14          20   
.text.I2CStop           0x9d01b2c4           0x14          20   
.text.memset            0x9d01b2d8           0x14          20   
.text.strchr            0x9d01b2ec           0x14          20   
.text.UpdateCoreTimer   0x9d01b300           0x10          16   
.text.SpiChnWriteC      0x9d01b310           0x10          16   
.text.I2CConfigure      0x9d01b320           0x10          16   
.text.strlen            0x9d01b330           0x10          16   
.text._snprintf_gG      0x9d01b340           0x10          16   
.text.ieee754sp_isinf   0x9d01b350           0x10          16   
.text.builddp           0x9d01b360           0x10          16   
.rodata                 0x9d01b370           0x18          24  Read-only const 
.text.OpenCoreTimer     0x9d01b388            0xc          12   
.text._dstrtod          0x9d01b394            0xc          12   
.text.strtof            0x9d01b3a0            0xc          12   
.text.buildsp           0x9d01b3ac           0x18          24   
.rodata                 0x9d01b3c4            0x8           8  Read-only const 
.text.INTDisableInterru 0x9d01b3cc            0x8           8   
.rodata                 0x9d01b3d4            0x8           8  Read-only const 
      Total kseg0_program_mem used  :     0x1b3c0      111552  42.6% of 0x40000

kseg0 Boot-Memory Usage
section                    address  length [bytes]      (dec)  Description
-------                 ----------  -------------------------  -----------
         Total kseg0_boot_mem used  :           0           0  <1% of 0x970

Exception-Memory Usage 
section                    address  length [bytes]      (dec)  Description
-------                 ----------  -------------------------  -----------
.app_excpt              0x9fc01180           0x10          16  General-Exception 
.vector_0               0x9fc01200            0x8           8  Interrupt Vector 0 
.vector_1               0x9fc01220            0x8           8  Interrupt Vector 1 
.vector_2               0x9fc01240            0x8           8  Interrupt Vector 2 
.vector_3               0x9fc01260            0x8           8  Interrupt Vector 3 
.vector_4               0x9fc01280            0x8           8  Interrupt Vector 4 
.vector_5               0x9fc012a0            0x8           8  Interrupt Vector 5 
.vector_6               0x9fc012c0            0x8           8  Interrupt Vector 6 
.vector_7               0x9fc012e0            0x8           8  Interrupt Vector 7 
.vector_8               0x9fc01300            0x8           8  Interrupt Vector 8 
.vector_9               0x9fc01320            0x8           8  Interrupt Vector 9 
.vector_10              0x9fc01340            0x8           8  Interrupt Vector 10 
.vector_11              0x9fc01360            0x8           8  Interrupt Vector 11 
.vector_12              0x9fc01380            0x8           8  Interrupt Vector 12 
.vector_13              0x9fc013a0            0x8           8  Interrupt Vector 13 
.vector_14              0x9fc013c0            0x8           8  Interrupt Vector 14 
.vector_15              0x9fc013e0            0x8           8  Interrupt Vector 15 
.vector_16              0x9fc01400            0x8           8  Interrupt Vector 16 
.vector_17              0x9fc01420            0x8           8  Interrupt Vector 17 
.vector_18              0x9fc01440            0x8           8  Interrupt Vector 18 
.vector_19              0x9fc01460            0x8           8  Interrupt Vector 19 
.vector_20              0x9fc01480            0x8           8  Interrupt Vector 20 
.vector_21              0x9fc014a0            0x8           8  Interrupt Vector 21 
.vector_22              0x9fc014c0            0x8           8  Interrupt Vector 22 
.vector_23              0x9fc014e0            0x8           8  Interrupt Vector 23 
.vector_24              0x9fc01500            0x8           8  Interrupt Vector 24 
.vector_25              0x9fc01520            0x8           8  Interrupt Vector 25 
.vector_26              0x9fc01540            0x8           8  Interrupt Vector 26 
.vector_27              0x9fc01560            0x8           8  Interrupt Vector 27 
.vector_28              0x9fc01580            0x8           8  Interrupt Vector 28 
.vector_29              0x9fc015a0            0x8           8  Interrupt Vector 29 
.vector_30              0x9fc015c0            0x8           8  Interrupt Vector 30 
.vector_31              0x9fc015e0            0x8           8  Interrupt Vector 31 
.vector_32              0x9fc01600            0x8           8  Interrupt Vector 32 
.vector_33              0x9fc01620            0x8           8  Interrupt Vector 33 
.vector_34              0x9fc01640            0x8           8  Interrupt Vector 34 
.vector_35              0x9fc01660            0x8           8  Interrupt Vector 35 
.vector_36              0x9fc01680            0x8           8  Interrupt Vector 36 
.vector_37              0x9fc016a0            0x8           8  Interrupt Vector 37 
.vector_38              0x9fc016c0            0x8           8  Interrupt Vector 38 
.vector_39              0x9fc016e0            0x8           8  Interrupt Vector 39 
.vector_40              0x9fc01700            0x8           8  Interrupt Vector 40 
.vector_41              0x9fc01720            0x8           8  Interrupt Vector 41 
.vector_42              0x9fc01740            0x8           8  Interrupt Vector 42 
.vector_43              0x9fc01760            0x8           8  Interrupt Vector 43 
.vector_44              0x9fc01780            0x8           8  Interrupt Vector 44 
.vector_45              0x9fc017a0            0x8           8  Interrupt Vector 45 
.vector_46              0x9fc017c0            0x8           8  Interrupt Vector 46 
.vector_47              0x9fc017e0            0x8           8  Interrupt Vector 47 
.vector_48              0x9fc01800            0x8           8  Interrupt Vector 48 
.vector_49              0x9fc01820            0x8           8  Interrupt Vector 49 
.vector_50              0x9fc01840            0x8           8  Interrupt Vector 50 
.vector_51              0x9fc01860            0x8           8  Interrupt Vector 51 
.vector_52              0x9fc01880            0x8           8  Interrupt Vector 52 
.vector_53              0x9fc018a0            0x8           8  Interrupt Vector 53 
.vector_54              0x9fc018c0            0x8           8  Interrupt Vector 54 
.vector_55              0x9fc018e0            0x8           8  Interrupt Vector 55 
.vector_56              0x9fc01900            0x8           8  Interrupt Vector 56 
.vector_57              0x9fc01920            0x8           8  Interrupt Vector 57 
.vector_58              0x9fc01940            0x8           8  Interrupt Vector 58 
.vector_59              0x9fc01960            0x8           8  Interrupt Vector 59 
.vector_60              0x9fc01980            0x8           8  Interrupt Vector 60 
.vector_61              0x9fc019a0            0x8           8  Interrupt Vector 61 
.vector_62              0x9fc019c0            0x8           8  Interrupt Vector 62 
.vector_63              0x9fc019e0            0x8           8  Interrupt Vector 63 
          Total exception_mem used  :       0x210         528  12.9% of 0x1000

kseg1 Boot-Memory Usage
section                    address  length [bytes]      (dec)  Description
-------                 ----------  -------------------------  -----------
.reset                  0xbfc00000          0x1e8         488  Reset handler 
.bev_excpt              0xbfc00380           0x10          16  BEV-Exception 
         Total kseg1_boot_mem used  :       0x1f8         504  43.2% of 0x490
        --------------------------------------------------------------------------
         Total Program Memory used  :     0x1b7c8      112584  41.7% of 0x41e00
        --------------------------------------------------------------------------


kseg1 Data-Memory Usage
section                    address  length [bytes]      (dec)  Description
-------                 ----------  -------------------------  -----------
.eh_frame               0xa0000000           0x40          64   
.sdata                  0xa0000040           0x2c          44  Small init data 
.sbss                   0xa000006c          0x108         264  Small uninit data 
.bss                    0xa0000174           0x9c         156  Uninitialized data 
.bss                    0xa0000210         0x73b0       29616  Uninitialized data 
.data                   0xa00075c0          0x1b4         436  Initialized data 
.bss                    0xa0007774           0xc8         200  Uninitialized data 
.data                   0xa000783c          0x28c         652  Initialized data 
.bss                    0xa0007ac8          0x118         280  Uninitialized data 
.data                   0xa0007be0           0x30          48  Initialized data 
.data.math_errhandling_ 0xa0007c10            0x4           4   
         Total kseg1_data_mem used  :      0x7c14       31764  48.5% of 0x10000
        --------------------------------------------------------------------------
            Total Data Memory used  :      0x7c14       31764  48.5% of 0x10000
        --------------------------------------------------------------------------


Dynamic Data-Memory Reservation
section                    address  length [bytes]      (dec)  Description
-------                 ----------  -------------------------  -----------
heap                    0xa0007c18          0x7d0        2000  Reserved for heap 
stack                   0xa0008400         0x7bf0       31728  Reserved for stack 

        --------------------------------------------------------------------------

Discarded input sections

 .text          0x00000000        0x0 /opt/microchip/xc32/v1.31/bin/../lib/gcc/pic32mx/4.5.2/../../../../pic32mx/lib/./proc/32MX350F256L/crt0_mips32r2.o
 .data          0x00000000        0x0 /opt/microchip/xc32/v1.31/bin/../lib/gcc/pic32mx/4.5.2/../../../../pic32mx/lib/./proc/32MX350F256L/crt0_mips32r2.o
 .bss           0x00000000        0x0 /opt/microchip/xc32/v1.31/bin/../lib/gcc/pic32mx/4.5.2/../../../../pic32mx/lib/./proc/32MX350F256L/crt0_mips32r2.o
 .data          0x00000000        0x0 build/default/production/src/drivers/eeprom.o
 .bss           0x00000000        0x0 build/default/production/src/drivers/eeprom.o
 .reginfo       0x00000000       0x18 build/default/production/src/drivers/eeprom.o
 .data          0x00000000        0x0 build/default/production/src/drivers/tmp275.o
 .bss           0x00000000        0x0 build/default/production/src/drivers/tmp275.o
 .reginfo       0x00000000       0x18 build/default/production/src/drivers/tmp275.o
 .data          0x00000000        0x0 build/default/production/src/drivers/dispkyb.o
 .reginfo       0x00000000       0x18 build/default/production/src/drivers/dispkyb.o
 .data          0x00000000        0x0 build/default/production/src/drivers/usb_uart.o
 .bss           0x00000000        0x0 build/default/production/src/drivers/usb_uart.o
 .reginfo       0x00000000       0x18 build/default/production/src/drivers/usb_uart.o
 .data          0x00000000        0x0 build/default/production/src/drivers/adc.o
 .bss           0x00000000        0x0 build/default/production/src/drivers/adc.o
 .reginfo       0x00000000       0x18 build/default/production/src/drivers/adc.o
 .bss           0x00000000        0x0 build/default/production/src/drivers/adcctrl.o
 .reginfo       0x00000000       0x18 build/default/production/src/drivers/adcctrl.o
 .data          0x00000000        0x0 build/default/production/src/eefs/crc32.o
 .bss           0x00000000        0x0 build/default/production/src/eefs/crc32.o
 .reginfo       0x00000000       0x18 build/default/production/src/eefs/crc32.o
 .data          0x00000000        0x0 build/default/production/src/eefs/eefs.o
 .reginfo       0x00000000       0x18 build/default/production/src/eefs/eefs.o
 .data          0x00000000        0x0 build/default/production/src/FreeRTOS/portable/MemMang/heap_4.o
 .reginfo       0x00000000       0x18 build/default/production/src/FreeRTOS/portable/MemMang/heap_4.o
 .data          0x00000000        0x0 build/default/production/src/FreeRTOS/portable/MPLAB/PIC32MX/port.o
 .reginfo       0x00000000       0x18 build/default/production/src/FreeRTOS/portable/MPLAB/PIC32MX/port.o
 .data          0x00000000        0x0 build/default/production/src/FreeRTOS/portable/MPLAB/PIC32MX/port_asm.o
 .bss           0x00000000        0x0 build/default/production/src/FreeRTOS/portable/MPLAB/PIC32MX/port_asm.o
 .reginfo       0x00000000       0x18 build/default/production/src/FreeRTOS/portable/MPLAB/PIC32MX/port_asm.o
 .text          0x00000000        0x0 build/default/production/src/FreeRTOS/timers.o
 .data          0x00000000        0x0 build/default/production/src/FreeRTOS/timers.o
 .bss           0x00000000        0x0 build/default/production/src/FreeRTOS/timers.o
 .reginfo       0x00000000       0x18 build/default/production/src/FreeRTOS/timers.o
 .data          0x00000000        0x0 build/default/production/src/FreeRTOS/tasks.o
 .reginfo       0x00000000       0x18 build/default/production/src/FreeRTOS/tasks.o
 .data          0x00000000        0x0 build/default/production/src/FreeRTOS/list.o
 .bss           0x00000000        0x0 build/default/production/src/FreeRTOS/list.o
 .reginfo       0x00000000       0x18 build/default/production/src/FreeRTOS/list.o
 .text          0x00000000      0x520 build/default/production/src/FreeRTOS/event_groups.o
 .data          0x00000000        0x0 build/default/production/src/FreeRTOS/event_groups.o
 .bss           0x00000000        0x0 build/default/production/src/FreeRTOS/event_groups.o
 .reginfo       0x00000000       0x18 build/default/production/src/FreeRTOS/event_groups.o
 .rodata        0x00000000       0x1c build/default/production/src/FreeRTOS/event_groups.o
 .text          0x00000000      0x4dc build/default/production/src/FreeRTOS/croutine.o
 .data          0x00000000        0x0 build/default/production/src/FreeRTOS/croutine.o
 .bss           0x00000000       0x64 build/default/production/src/FreeRTOS/croutine.o
 .reginfo       0x00000000       0x18 build/default/production/src/FreeRTOS/croutine.o
 .data          0x00000000        0x0 build/default/production/src/FreeRTOS/queue.o
 .bss           0x00000000        0x0 build/default/production/src/FreeRTOS/queue.o
 .reginfo       0x00000000       0x18 build/default/production/src/FreeRTOS/queue.o
 .text          0x00000000        0x0 build/default/production/src/hal/fuses.o
 .data          0x00000000        0x0 build/default/production/src/hal/fuses.o
 .bss           0x00000000        0x0 build/default/production/src/hal/fuses.o
 .reginfo       0x00000000       0x18 build/default/production/src/hal/fuses.o
 .data          0x00000000        0x0 build/default/production/src/hal/exceptions.o
 .bss           0x00000000        0x0 build/default/production/src/hal/exceptions.o
 .reginfo       0x00000000       0x18 build/default/production/src/hal/exceptions.o
 .data          0x00000000        0x0 build/default/production/src/hal/isrWrappers.o
 .bss           0x00000000        0x0 build/default/production/src/hal/isrWrappers.o
 .reginfo       0x00000000       0x18 build/default/production/src/hal/isrWrappers.o
 .data          0x00000000        0x0 build/default/production/src/hal/hal_adc.o
 .bss           0x00000000        0x0 build/default/production/src/hal/hal_adc.o
 .reginfo       0x00000000       0x18 build/default/production/src/hal/hal_adc.o
 .data          0x00000000        0x0 build/default/production/src/hal/hal_uart.o
 .reginfo       0x00000000       0x18 build/default/production/src/hal/hal_uart.o
 .data          0x00000000        0x0 build/default/production/src/hal/hal_i2c.o
 .bss           0x00000000        0x0 build/default/production/src/hal/hal_i2c.o
 .reginfo       0x00000000       0x18 build/default/production/src/hal/hal_i2c.o
 .data          0x00000000        0x0 build/default/production/src/hal/hal_spi.o
 .bss           0x00000000        0x0 build/default/production/src/hal/hal_spi.o
 .reginfo       0x00000000       0x18 build/default/production/src/hal/hal_spi.o
 .data          0x00000000        0x0 build/default/production/src/hal/hal_timer.o
 .bss           0x00000000        0x0 build/default/production/src/hal/hal_timer.o
 .reginfo       0x00000000       0x18 build/default/production/src/hal/hal_timer.o
 .bss           0x00000000        0x0 build/default/production/src/hal/hal_io.o
 .reginfo       0x00000000       0x18 build/default/production/src/hal/hal_io.o
 .data          0x00000000        0x0 build/default/production/src/hal/hal_sys.o
 .bss           0x00000000        0x0 build/default/production/src/hal/hal_sys.o
 .reginfo       0x00000000       0x18 build/default/production/src/hal/hal_sys.o
 .data          0x00000000        0x0 build/default/production/src/scpi-parser/libscpi/src/lexer.o
 .bss           0x00000000        0x0 build/default/production/src/scpi-parser/libscpi/src/lexer.o
 .reginfo       0x00000000       0x18 build/default/production/src/scpi-parser/libscpi/src/lexer.o
 .data          0x00000000        0x0 build/default/production/src/scpi-parser/libscpi/src/error.o
 .bss           0x00000000        0x0 build/default/production/src/scpi-parser/libscpi/src/error.o
 .reginfo       0x00000000       0x18 build/default/production/src/scpi-parser/libscpi/src/error.o
 .data          0x00000000        0x0 build/default/production/src/scpi-parser/libscpi/src/fifo.o
 .bss           0x00000000        0x0 build/default/production/src/scpi-parser/libscpi/src/fifo.o
 .reginfo       0x00000000       0x18 build/default/production/src/scpi-parser/libscpi/src/fifo.o
 .data          0x00000000        0x0 build/default/production/src/scpi-parser/libscpi/src/ieee488.o
 .bss           0x00000000        0x0 build/default/production/src/scpi-parser/libscpi/src/ieee488.o
 .reginfo       0x00000000       0x18 build/default/production/src/scpi-parser/libscpi/src/ieee488.o
 .data          0x00000000        0x0 build/default/production/src/scpi-parser/libscpi/src/minimal.o
 .bss           0x00000000        0x0 build/default/production/src/scpi-parser/libscpi/src/minimal.o
 .reginfo       0x00000000       0x18 build/default/production/src/scpi-parser/libscpi/src/minimal.o
 .data          0x00000000        0x0 build/default/production/src/scpi-parser/libscpi/src/parser.o
 .bss           0x00000000        0x0 build/default/production/src/scpi-parser/libscpi/src/parser.o
 .reginfo       0x00000000       0x18 build/default/production/src/scpi-parser/libscpi/src/parser.o
 .data          0x00000000        0x0 build/default/production/src/scpi-parser/libscpi/src/units.o
 .bss           0x00000000        0x0 build/default/production/src/scpi-parser/libscpi/src/units.o
 .reginfo       0x00000000       0x18 build/default/production/src/scpi-parser/libscpi/src/units.o
 .data          0x00000000        0x0 build/default/production/src/scpi-parser/libscpi/src/utils.o
 .bss           0x00000000        0x0 build/default/production/src/scpi-parser/libscpi/src/utils.o
 .reginfo       0x00000000       0x18 build/default/production/src/scpi-parser/libscpi/src/utils.o
 .data          0x00000000        0x0 build/default/production/src/sys/src/system.o
 .bss           0x00000000        0x0 build/default/production/src/sys/src/system.o
 .reginfo       0x00000000       0x18 build/default/production/src/sys/src/system.o
 .data          0x00000000        0x0 build/default/production/src/sys/src/settings.o
 .reginfo       0x00000000       0x18 build/default/production/src/sys/src/settings.o
 .bss           0x00000000        0x0 build/default/production/src/tasks/task_calibration.o
 .reginfo       0x00000000       0x18 build/default/production/src/tasks/task_calibration.o
 .bss           0x00000000        0x0 build/default/production/src/tasks/task_multimeter.o
 .reginfo       0x00000000       0x18 build/default/production/src/tasks/task_multimeter.o
 .data          0x00000000        0x0 build/default/production/src/tasks/main.o
 .bss           0x00000000        0x0 build/default/production/src/tasks/main.o
 .reginfo       0x00000000       0x18 build/default/production/src/tasks/main.o
 .data          0x00000000        0x0 build/default/production/src/tasks/tskmgr.o
 .bss           0x00000000        0x0 build/default/production/src/tasks/tskmgr.o
 .reginfo       0x00000000       0x18 build/default/production/src/tasks/tskmgr.o
 .reginfo       0x00000000       0x18 build/default/production/src/tasks/task_scpi.o
 .data          0x00000000        0x0 build/default/production/src/utils/fcvt-1.1/fcvt.o
 .bss           0x00000000        0x0 build/default/production/src/utils/fcvt-1.1/fcvt.o
 .reginfo       0x00000000       0x18 build/default/production/src/utils/fcvt-1.1/fcvt.o
 .text          0x00000000       0xa0 build/default/production/src/utils/src/diag.o
 .data          0x00000000        0x0 build/default/production/src/utils/src/diag.o
 .bss           0x00000000        0x0 build/default/production/src/utils/src/diag.o
 .reginfo       0x00000000       0x18 build/default/production/src/utils/src/diag.o
 .rodata        0x00000000        0xc build/default/production/src/utils/src/diag.o
 .data          0x00000000        0x0 build/default/production/src/utils/src/fitlinear.o
 .bss           0x00000000        0x0 build/default/production/src/utils/src/fitlinear.o
 .reginfo       0x00000000       0x18 build/default/production/src/utils/src/fitlinear.o
 .data          0x00000000        0x0 build/default/production/src/utils/src/disfmt.o
 .bss           0x00000000        0x0 build/default/production/src/utils/src/disfmt.o
 .reginfo       0x00000000       0x18 build/default/production/src/utils/src/disfmt.o
 .data          0x00000000        0x0 build/default/production/src/utils/src/util_ringbuff.o
 .bss           0x00000000        0x0 build/default/production/src/utils/src/util_ringbuff.o
 .reginfo       0x00000000       0x18 build/default/production/src/utils/src/util_ringbuff.o
 .data          0x00000000        0x0 build/default/production/src/utils/src/strutils.o
 .bss           0x00000000        0x0 build/default/production/src/utils/src/strutils.o
 .reginfo       0x00000000       0x18 build/default/production/src/utils/src/strutils.o
 .text          0x00000000        0x0 /opt/microchip/xc32/v1.31/bin/../lib/gcc/pic32mx/4.5.2/../../../../pic32mx/lib/./proc/32MX350F256L/default_isr_vectors.o
 .data          0x00000000        0x0 /opt/microchip/xc32/v1.31/bin/../lib/gcc/pic32mx/4.5.2/../../../../pic32mx/lib/./proc/32MX350F256L/default_isr_vectors.o
 .bss           0x00000000        0x0 /opt/microchip/xc32/v1.31/bin/../lib/gcc/pic32mx/4.5.2/../../../../pic32mx/lib/./proc/32MX350F256L/default_isr_vectors.o
 .reginfo       0x00000000       0x18 /opt/microchip/xc32/v1.31/bin/../lib/gcc/pic32mx/4.5.2/../../../../pic32mx/lib/./proc/32MX350F256L/default_isr_vectors.o
 .discard       0x00000000      0x100 /opt/microchip/xc32/v1.31/bin/../lib/gcc/pic32mx/4.5.2/../../../../pic32mx/lib/./proc/32MX350F256L/default_isr_vectors.o
 .text          0x00000000        0x0 /opt/microchip/xc32/v1.31/bin/../lib/gcc/pic32mx/4.5.2/../../../../pic32mx/lib/./proc/32MX350F256L/processor.o
 .data          0x00000000        0x0 /opt/microchip/xc32/v1.31/bin/../lib/gcc/pic32mx/4.5.2/../../../../pic32mx/lib/./proc/32MX350F256L/processor.o
 .bss           0x00000000        0x0 /opt/microchip/xc32/v1.31/bin/../lib/gcc/pic32mx/4.5.2/../../../../pic32mx/lib/./proc/32MX350F256L/processor.o
 .reginfo       0x00000000       0x18 /opt/microchip/xc32/v1.31/bin/../lib/gcc/pic32mx/4.5.2/../../../../pic32mx/lib/./proc/32MX350F256L/processor.o
 .text          0x00000000        0x0 /opt/microchip/xc32/v1.31/bin/../lib/gcc/pic32mx/4.5.2/../../../../pic32mx/lib/mips16/libmchp_peripheral.a(open_core_timer_lib.o)
 .data          0x00000000        0x0 /opt/microchip/xc32/v1.31/bin/../lib/gcc/pic32mx/4.5.2/../../../../pic32mx/lib/mips16/libmchp_peripheral.a(open_core_timer_lib.o)
 .bss           0x00000000        0x0 /opt/microchip/xc32/v1.31/bin/../lib/gcc/pic32mx/4.5.2/../../../../pic32mx/lib/mips16/libmchp_peripheral.a(open_core_timer_lib.o)
 .reginfo       0x00000000       0x18 /opt/microchip/xc32/v1.31/bin/../lib/gcc/pic32mx/4.5.2/../../../../pic32mx/lib/mips16/libmchp_peripheral.a(open_core_timer_lib.o)
 .pdr           0x00000000       0x20 /opt/microchip/xc32/v1.31/bin/../lib/gcc/pic32mx/4.5.2/../../../../pic32mx/lib/mips16/libmchp_peripheral.a(open_core_timer_lib.o)
 .text          0x00000000        0x0 /opt/microchip/xc32/v1.31/bin/../lib/gcc/pic32mx/4.5.2/../../../../pic32mx/lib/mips16/libmchp_peripheral.a(update_core_timer_lib.o)
 .data          0x00000000        0x0 /opt/microchip/xc32/v1.31/bin/../lib/gcc/pic32mx/4.5.2/../../../../pic32mx/lib/mips16/libmchp_peripheral.a(update_core_timer_lib.o)
 .bss           0x00000000        0x0 /opt/microchip/xc32/v1.31/bin/../lib/gcc/pic32mx/4.5.2/../../../../pic32mx/lib/mips16/libmchp_peripheral.a(update_core_timer_lib.o)
 .reginfo       0x00000000       0x18 /opt/microchip/xc32/v1.31/bin/../lib/gcc/pic32mx/4.5.2/../../../../pic32mx/lib/mips16/libmchp_peripheral.a(update_core_timer_lib.o)
 .pdr           0x00000000       0x20 /opt/microchip/xc32/v1.31/bin/../lib/gcc/pic32mx/4.5.2/../../../../pic32mx/lib/mips16/libmchp_peripheral.a(update_core_timer_lib.o)
 .text          0x00000000        0x0 /opt/microchip/xc32/v1.31/bin/../lib/gcc/pic32mx/4.5.2/../../../../pic32mx/lib/mips16/libmchp_peripheral_32MX350F256L.a(pcache.o)
 .data          0x00000000        0x0 /opt/microchip/xc32/v1.31/bin/../lib/gcc/pic32mx/4.5.2/../../../../pic32mx/lib/mips16/libmchp_peripheral_32MX350F256L.a(pcache.o)
 .bss           0x00000000        0x0 /opt/microchip/xc32/v1.31/bin/../lib/gcc/pic32mx/4.5.2/../../../../pic32mx/lib/mips16/libmchp_peripheral_32MX350F256L.a(pcache.o)
 .reginfo       0x00000000       0x18 /opt/microchip/xc32/v1.31/bin/../lib/gcc/pic32mx/4.5.2/../../../../pic32mx/lib/mips16/libmchp_peripheral_32MX350F256L.a(pcache.o)
 .pdr           0x00000000       0x40 /opt/microchip/xc32/v1.31/bin/../lib/gcc/pic32mx/4.5.2/../../../../pic32mx/lib/mips16/libmchp_peripheral_32MX350F256L.a(pcache.o)
 .text.CheKseg0CacheOff
                0x00000000       0x18 /opt/microchip/xc32/v1.31/bin/../lib/gcc/pic32mx/4.5.2/../../../../pic32mx/lib/mips16/libmchp_peripheral_32MX350F256L.a(pcache.o)
 .text          0x00000000        0x0 /opt/microchip/xc32/v1.31/bin/../lib/gcc/pic32mx/4.5.2/../../../../pic32mx/lib/mips16/libmchp_peripheral_32MX350F256L.a(int_configure_system_lib.o)
 .data          0x00000000        0x0 /opt/microchip/xc32/v1.31/bin/../lib/gcc/pic32mx/4.5.2/../../../../pic32mx/lib/mips16/libmchp_peripheral_32MX350F256L.a(int_configure_system_lib.o)
 .bss           0x00000000        0x0 /opt/microchip/xc32/v1.31/bin/../lib/gcc/pic32mx/4.5.2/../../../../pic32mx/lib/mips16/libmchp_peripheral_32MX350F256L.a(int_configure_system_lib.o)
 .reginfo       0x00000000       0x18 /opt/microchip/xc32/v1.31/bin/../lib/gcc/pic32mx/4.5.2/../../../../pic32mx/lib/mips16/libmchp_peripheral_32MX350F256L.a(int_configure_system_lib.o)
 .pdr           0x00000000       0x20 /opt/microchip/xc32/v1.31/bin/../lib/gcc/pic32mx/4.5.2/../../../../pic32mx/lib/mips16/libmchp_peripheral_32MX350F256L.a(int_configure_system_lib.o)
 .text          0x00000000        0x0 /opt/microchip/xc32/v1.31/bin/../lib/gcc/pic32mx/4.5.2/../../../../pic32mx/lib/mips16/libmchp_peripheral_32MX350F256L.a(int_disable_interrupts_lib.o)
 .data          0x00000000        0x0 /opt/microchip/xc32/v1.31/bin/../lib/gcc/pic32mx/4.5.2/../../../../pic32mx/lib/mips16/libmchp_peripheral_32MX350F256L.a(int_disable_interrupts_lib.o)
 .bss           0x00000000        0x0 /opt/microchip/xc32/v1.31/bin/../lib/gcc/pic32mx/4.5.2/../../../../pic32mx/lib/mips16/libmchp_peripheral_32MX350F256L.a(int_disable_interrupts_lib.o)
 .reginfo       0x00000000       0x18 /opt/microchip/xc32/v1.31/bin/../lib/gcc/pic32mx/4.5.2/../../../../pic32mx/lib/mips16/libmchp_peripheral_32MX350F256L.a(int_disable_interrupts_lib.o)
 .pdr           0x00000000       0x20 /opt/microchip/xc32/v1.31/bin/../lib/gcc/pic32mx/4.5.2/../../../../pic32mx/lib/mips16/libmchp_peripheral_32MX350F256L.a(int_disable_interrupts_lib.o)
 .text          0x00000000        0x0 /opt/microchip/xc32/v1.31/bin/../lib/gcc/pic32mx/4.5.2/../../../../pic32mx/lib/mips16/libmchp_peripheral_32MX350F256L.a(int_restore_interrupts_lib.o)
 .data          0x00000000        0x0 /opt/microchip/xc32/v1.31/bin/../lib/gcc/pic32mx/4.5.2/../../../../pic32mx/lib/mips16/libmchp_peripheral_32MX350F256L.a(int_restore_interrupts_lib.o)
 .bss           0x00000000        0x0 /opt/microchip/xc32/v1.31/bin/../lib/gcc/pic32mx/4.5.2/../../../../pic32mx/lib/mips16/libmchp_peripheral_32MX350F256L.a(int_restore_interrupts_lib.o)
 .reginfo       0x00000000       0x18 /opt/microchip/xc32/v1.31/bin/../lib/gcc/pic32mx/4.5.2/../../../../pic32mx/lib/mips16/libmchp_peripheral_32MX350F256L.a(int_restore_interrupts_lib.o)
 .pdr           0x00000000       0x20 /opt/microchip/xc32/v1.31/bin/../lib/gcc/pic32mx/4.5.2/../../../../pic32mx/lib/mips16/libmchp_peripheral_32MX350F256L.a(int_restore_interrupts_lib.o)
 .text          0x00000000        0x0 /opt/microchip/xc32/v1.31/bin/../lib/gcc/pic32mx/4.5.2/../../../../pic32mx/lib/mips16/libmchp_peripheral_32MX350F256L.a(int_tbl_lib.o)
 .data          0x00000000        0x0 /opt/microchip/xc32/v1.31/bin/../lib/gcc/pic32mx/4.5.2/../../../../pic32mx/lib/mips16/libmchp_peripheral_32MX350F256L.a(int_tbl_lib.o)
 .bss           0x00000000        0x0 /opt/microchip/xc32/v1.31/bin/../lib/gcc/pic32mx/4.5.2/../../../../pic32mx/lib/mips16/libmchp_peripheral_32MX350F256L.a(int_tbl_lib.o)
 .reginfo       0x00000000       0x18 /opt/microchip/xc32/v1.31/bin/../lib/gcc/pic32mx/4.5.2/../../../../pic32mx/lib/mips16/libmchp_peripheral_32MX350F256L.a(int_tbl_lib.o)
 .pdr           0x00000000      0x120 /opt/microchip/xc32/v1.31/bin/../lib/gcc/pic32mx/4.5.2/../../../../pic32mx/lib/mips16/libmchp_peripheral_32MX350F256L.a(int_tbl_lib.o)
 .text.INTSetFlag
                0x00000000       0x18 /opt/microchip/xc32/v1.31/bin/../lib/gcc/pic32mx/4.5.2/../../../../pic32mx/lib/mips16/libmchp_peripheral_32MX350F256L.a(int_tbl_lib.o)
 .text.INTGetEnable
                0x00000000       0x18 /opt/microchip/xc32/v1.31/bin/../lib/gcc/pic32mx/4.5.2/../../../../pic32mx/lib/mips16/libmchp_peripheral_32MX350F256L.a(int_tbl_lib.o)
 .text.INTGetVectorPriority
                0x00000000       0x1c /opt/microchip/xc32/v1.31/bin/../lib/gcc/pic32mx/4.5.2/../../../../pic32mx/lib/mips16/libmchp_peripheral_32MX350F256L.a(int_tbl_lib.o)
 .text.INTSetVectorSubPriority
                0x00000000       0x20 /opt/microchip/xc32/v1.31/bin/../lib/gcc/pic32mx/4.5.2/../../../../pic32mx/lib/mips16/libmchp_peripheral_32MX350F256L.a(int_tbl_lib.o)
 .text.INTGetVectorSubPriority
                0x00000000       0x1c /opt/microchip/xc32/v1.31/bin/../lib/gcc/pic32mx/4.5.2/../../../../pic32mx/lib/mips16/libmchp_peripheral_32MX350F256L.a(int_tbl_lib.o)
 .text          0x00000000        0x0 /opt/microchip/xc32/v1.31/bin/../lib/gcc/pic32mx/4.5.2/../../../../pic32mx/lib/mips16/libmchp_peripheral_32MX350F256L.a(spi_chn_open_lib.o)
 .data          0x00000000        0x0 /opt/microchip/xc32/v1.31/bin/../lib/gcc/pic32mx/4.5.2/../../../../pic32mx/lib/mips16/libmchp_peripheral_32MX350F256L.a(spi_chn_open_lib.o)
 .bss           0x00000000        0x0 /opt/microchip/xc32/v1.31/bin/../lib/gcc/pic32mx/4.5.2/../../../../pic32mx/lib/mips16/libmchp_peripheral_32MX350F256L.a(spi_chn_open_lib.o)
 .reginfo       0x00000000       0x18 /opt/microchip/xc32/v1.31/bin/../lib/gcc/pic32mx/4.5.2/../../../../pic32mx/lib/mips16/libmchp_peripheral_32MX350F256L.a(spi_chn_open_lib.o)
 .pdr           0x00000000       0x20 /opt/microchip/xc32/v1.31/bin/../lib/gcc/pic32mx/4.5.2/../../../../pic32mx/lib/mips16/libmchp_peripheral_32MX350F256L.a(spi_chn_open_lib.o)
 .text          0x00000000        0x0 /opt/microchip/xc32/v1.31/bin/../lib/gcc/pic32mx/4.5.2/../../../../pic32mx/lib/mips16/libmchp_peripheral_32MX350F256L.a(spi_chn_putc_lib.o)
 .data          0x00000000        0x0 /opt/microchip/xc32/v1.31/bin/../lib/gcc/pic32mx/4.5.2/../../../../pic32mx/lib/mips16/libmchp_peripheral_32MX350F256L.a(spi_chn_putc_lib.o)
 .bss           0x00000000        0x0 /opt/microchip/xc32/v1.31/bin/../lib/gcc/pic32mx/4.5.2/../../../../pic32mx/lib/mips16/libmchp_peripheral_32MX350F256L.a(spi_chn_putc_lib.o)
 .reginfo       0x00000000       0x18 /opt/microchip/xc32/v1.31/bin/../lib/gcc/pic32mx/4.5.2/../../../../pic32mx/lib/mips16/libmchp_peripheral_32MX350F256L.a(spi_chn_putc_lib.o)
 .pdr           0x00000000       0x60 /opt/microchip/xc32/v1.31/bin/../lib/gcc/pic32mx/4.5.2/../../../../pic32mx/lib/mips16/libmchp_peripheral_32MX350F256L.a(spi_chn_putc_lib.o)
 .text.SpiChnBuffer
                0x00000000       0x10 /opt/microchip/xc32/v1.31/bin/../lib/gcc/pic32mx/4.5.2/../../../../pic32mx/lib/mips16/libmchp_peripheral_32MX350F256L.a(spi_chn_putc_lib.o)
 .text          0x00000000        0x0 /opt/microchip/xc32/v1.31/bin/../lib/gcc/pic32mx/4.5.2/../../../../pic32mx/lib/mips16/libmchp_peripheral_32MX350F256L.a(spi_map_tbl_libp.o)
 .data          0x00000000        0x0 /opt/microchip/xc32/v1.31/bin/../lib/gcc/pic32mx/4.5.2/../../../../pic32mx/lib/mips16/libmchp_peripheral_32MX350F256L.a(spi_map_tbl_libp.o)
 .bss           0x00000000        0x0 /opt/microchip/xc32/v1.31/bin/../lib/gcc/pic32mx/4.5.2/../../../../pic32mx/lib/mips16/libmchp_peripheral_32MX350F256L.a(spi_map_tbl_libp.o)
 .reginfo       0x00000000       0x18 /opt/microchip/xc32/v1.31/bin/../lib/gcc/pic32mx/4.5.2/../../../../pic32mx/lib/mips16/libmchp_peripheral_32MX350F256L.a(spi_map_tbl_libp.o)
 .pdr           0x00000000        0x0 /opt/microchip/xc32/v1.31/bin/../lib/gcc/pic32mx/4.5.2/../../../../pic32mx/lib/mips16/libmchp_peripheral_32MX350F256L.a(spi_map_tbl_libp.o)
 .text          0x00000000        0x0 /opt/microchip/xc32/v1.31/bin/../lib/gcc/pic32mx/4.5.2/../../../../pic32mx/lib/mips16/libmchp_peripheral_32MX350F256L.a(power_idle_lib.o)
 .data          0x00000000        0x0 /opt/microchip/xc32/v1.31/bin/../lib/gcc/pic32mx/4.5.2/../../../../pic32mx/lib/mips16/libmchp_peripheral_32MX350F256L.a(power_idle_lib.o)
 .bss           0x00000000        0x0 /opt/microchip/xc32/v1.31/bin/../lib/gcc/pic32mx/4.5.2/../../../../pic32mx/lib/mips16/libmchp_peripheral_32MX350F256L.a(power_idle_lib.o)
 .reginfo       0x00000000       0x18 /opt/microchip/xc32/v1.31/bin/../lib/gcc/pic32mx/4.5.2/../../../../pic32mx/lib/mips16/libmchp_peripheral_32MX350F256L.a(power_idle_lib.o)
 .pdr           0x00000000       0x20 /opt/microchip/xc32/v1.31/bin/../lib/gcc/pic32mx/4.5.2/../../../../pic32mx/lib/mips16/libmchp_peripheral_32MX350F256L.a(power_idle_lib.o)
 .text          0x00000000        0x0 /opt/microchip/xc32/v1.31/bin/../lib/gcc/pic32mx/4.5.2/../../../../pic32mx/lib/mips16/libmchp_peripheral_32MX350F256L.a(port_set_pins_digital_in_lib.o)
 .data          0x00000000        0x0 /opt/microchip/xc32/v1.31/bin/../lib/gcc/pic32mx/4.5.2/../../../../pic32mx/lib/mips16/libmchp_peripheral_32MX350F256L.a(port_set_pins_digital_in_lib.o)
 .bss           0x00000000        0x0 /opt/microchip/xc32/v1.31/bin/../lib/gcc/pic32mx/4.5.2/../../../../pic32mx/lib/mips16/libmchp_peripheral_32MX350F256L.a(port_set_pins_digital_in_lib.o)
 .reginfo       0x00000000       0x18 /opt/microchip/xc32/v1.31/bin/../lib/gcc/pic32mx/4.5.2/../../../../pic32mx/lib/mips16/libmchp_peripheral_32MX350F256L.a(port_set_pins_digital_in_lib.o)
 .pdr           0x00000000       0x20 /opt/microchip/xc32/v1.31/bin/../lib/gcc/pic32mx/4.5.2/../../../../pic32mx/lib/mips16/libmchp_peripheral_32MX350F256L.a(port_set_pins_digital_in_lib.o)
 .text          0x00000000        0x0 /opt/microchip/xc32/v1.31/bin/../lib/gcc/pic32mx/4.5.2/../../../../pic32mx/lib/mips16/libmchp_peripheral_32MX350F256L.a(port_set_pins_digital_out_lib.o)
 .data          0x00000000        0x0 /opt/microchip/xc32/v1.31/bin/../lib/gcc/pic32mx/4.5.2/../../../../pic32mx/lib/mips16/libmchp_peripheral_32MX350F256L.a(port_set_pins_digital_out_lib.o)
 .bss           0x00000000        0x0 /opt/microchip/xc32/v1.31/bin/../lib/gcc/pic32mx/4.5.2/../../../../pic32mx/lib/mips16/libmchp_peripheral_32MX350F256L.a(port_set_pins_digital_out_lib.o)
 .reginfo       0x00000000       0x18 /opt/microchip/xc32/v1.31/bin/../lib/gcc/pic32mx/4.5.2/../../../../pic32mx/lib/mips16/libmchp_peripheral_32MX350F256L.a(port_set_pins_digital_out_lib.o)
 .pdr           0x00000000       0x20 /opt/microchip/xc32/v1.31/bin/../lib/gcc/pic32mx/4.5.2/../../../../pic32mx/lib/mips16/libmchp_peripheral_32MX350F256L.a(port_set_pins_digital_out_lib.o)
 .text          0x00000000        0x0 /opt/microchip/xc32/v1.31/bin/../lib/gcc/pic32mx/4.5.2/../../../../pic32mx/lib/mips16/libmchp_peripheral_32MX350F256L.a(port_read_bits_lib.o)
 .data          0x00000000        0x0 /opt/microchip/xc32/v1.31/bin/../lib/gcc/pic32mx/4.5.2/../../../../pic32mx/lib/mips16/libmchp_peripheral_32MX350F256L.a(port_read_bits_lib.o)
 .bss           0x00000000        0x0 /opt/microchip/xc32/v1.31/bin/../lib/gcc/pic32mx/4.5.2/../../../../pic32mx/lib/mips16/libmchp_peripheral_32MX350F256L.a(port_read_bits_lib.o)
 .reginfo       0x00000000       0x18 /opt/microchip/xc32/v1.31/bin/../lib/gcc/pic32mx/4.5.2/../../../../pic32mx/lib/mips16/libmchp_peripheral_32MX350F256L.a(port_read_bits_lib.o)
 .pdr           0x00000000       0x20 /opt/microchip/xc32/v1.31/bin/../lib/gcc/pic32mx/4.5.2/../../../../pic32mx/lib/mips16/libmchp_peripheral_32MX350F256L.a(port_read_bits_lib.o)
 .text          0x00000000        0x0 /opt/microchip/xc32/v1.31/bin/../lib/gcc/pic32mx/4.5.2/../../../../pic32mx/lib/mips16/libmchp_peripheral_32MX350F256L.a(port_clear_bits_lib.o)
 .data          0x00000000        0x0 /opt/microchip/xc32/v1.31/bin/../lib/gcc/pic32mx/4.5.2/../../../../pic32mx/lib/mips16/libmchp_peripheral_32MX350F256L.a(port_clear_bits_lib.o)
 .bss           0x00000000        0x0 /opt/microchip/xc32/v1.31/bin/../lib/gcc/pic32mx/4.5.2/../../../../pic32mx/lib/mips16/libmchp_peripheral_32MX350F256L.a(port_clear_bits_lib.o)
 .reginfo       0x00000000       0x18 /opt/microchip/xc32/v1.31/bin/../lib/gcc/pic32mx/4.5.2/../../../../pic32mx/lib/mips16/libmchp_peripheral_32MX350F256L.a(port_clear_bits_lib.o)
 .pdr           0x00000000       0x20 /opt/microchip/xc32/v1.31/bin/../lib/gcc/pic32mx/4.5.2/../../../../pic32mx/lib/mips16/libmchp_peripheral_32MX350F256L.a(port_clear_bits_lib.o)
 .text          0x00000000        0x0 /opt/microchip/xc32/v1.31/bin/../lib/gcc/pic32mx/4.5.2/../../../../pic32mx/lib/mips16/libmchp_peripheral_32MX350F256L.a(port_set_bits_lib.o)
 .data          0x00000000        0x0 /opt/microchip/xc32/v1.31/bin/../lib/gcc/pic32mx/4.5.2/../../../../pic32mx/lib/mips16/libmchp_peripheral_32MX350F256L.a(port_set_bits_lib.o)
 .bss           0x00000000        0x0 /opt/microchip/xc32/v1.31/bin/../lib/gcc/pic32mx/4.5.2/../../../../pic32mx/lib/mips16/libmchp_peripheral_32MX350F256L.a(port_set_bits_lib.o)
 .reginfo       0x00000000       0x18 /opt/microchip/xc32/v1.31/bin/../lib/gcc/pic32mx/4.5.2/../../../../pic32mx/lib/mips16/libmchp_peripheral_32MX350F256L.a(port_set_bits_lib.o)
 .pdr           0x00000000       0x20 /opt/microchip/xc32/v1.31/bin/../lib/gcc/pic32mx/4.5.2/../../../../pic32mx/lib/mips16/libmchp_peripheral_32MX350F256L.a(port_set_bits_lib.o)
 .text          0x00000000        0x0 /opt/microchip/xc32/v1.31/bin/../lib/gcc/pic32mx/4.5.2/../../../../pic32mx/lib/mips16/libmchp_peripheral_32MX350F256L.a(port_toggle_bits_lib.o)
 .data          0x00000000        0x0 /opt/microchip/xc32/v1.31/bin/../lib/gcc/pic32mx/4.5.2/../../../../pic32mx/lib/mips16/libmchp_peripheral_32MX350F256L.a(port_toggle_bits_lib.o)
 .bss           0x00000000        0x0 /opt/microchip/xc32/v1.31/bin/../lib/gcc/pic32mx/4.5.2/../../../../pic32mx/lib/mips16/libmchp_peripheral_32MX350F256L.a(port_toggle_bits_lib.o)
 .reginfo       0x00000000       0x18 /opt/microchip/xc32/v1.31/bin/../lib/gcc/pic32mx/4.5.2/../../../../pic32mx/lib/mips16/libmchp_peripheral_32MX350F256L.a(port_toggle_bits_lib.o)
 .pdr           0x00000000       0x20 /opt/microchip/xc32/v1.31/bin/../lib/gcc/pic32mx/4.5.2/../../../../pic32mx/lib/mips16/libmchp_peripheral_32MX350F256L.a(port_toggle_bits_lib.o)
 .text          0x00000000        0x0 /opt/microchip/xc32/v1.31/bin/../lib/gcc/pic32mx/4.5.2/../../../../pic32mx/lib/mips16/libmchp_peripheral_32MX350F256L.a(_ports_tbl_libp.o)
 .data          0x00000000        0x0 /opt/microchip/xc32/v1.31/bin/../lib/gcc/pic32mx/4.5.2/../../../../pic32mx/lib/mips16/libmchp_peripheral_32MX350F256L.a(_ports_tbl_libp.o)
 .bss           0x00000000        0x0 /opt/microchip/xc32/v1.31/bin/../lib/gcc/pic32mx/4.5.2/../../../../pic32mx/lib/mips16/libmchp_peripheral_32MX350F256L.a(_ports_tbl_libp.o)
 .reginfo       0x00000000       0x18 /opt/microchip/xc32/v1.31/bin/../lib/gcc/pic32mx/4.5.2/../../../../pic32mx/lib/mips16/libmchp_peripheral_32MX350F256L.a(_ports_tbl_libp.o)
 .pdr           0x00000000        0x0 /opt/microchip/xc32/v1.31/bin/../lib/gcc/pic32mx/4.5.2/../../../../pic32mx/lib/mips16/libmchp_peripheral_32MX350F256L.a(_ports_tbl_libp.o)
 .text          0x00000000        0x0 /opt/microchip/xc32/v1.31/bin/../lib/gcc/pic32mx/4.5.2/../../../../pic32mx/lib/mips16/libmchp_peripheral_32MX350F256L.a(uart_lib.o)
 .data          0x00000000        0x0 /opt/microchip/xc32/v1.31/bin/../lib/gcc/pic32mx/4.5.2/../../../../pic32mx/lib/mips16/libmchp_peripheral_32MX350F256L.a(uart_lib.o)
 .bss           0x00000000        0x0 /opt/microchip/xc32/v1.31/bin/../lib/gcc/pic32mx/4.5.2/../../../../pic32mx/lib/mips16/libmchp_peripheral_32MX350F256L.a(uart_lib.o)
 .reginfo       0x00000000       0x18 /opt/microchip/xc32/v1.31/bin/../lib/gcc/pic32mx/4.5.2/../../../../pic32mx/lib/mips16/libmchp_peripheral_32MX350F256L.a(uart_lib.o)
 .pdr           0x00000000      0x100 /opt/microchip/xc32/v1.31/bin/../lib/gcc/pic32mx/4.5.2/../../../../pic32mx/lib/mips16/libmchp_peripheral_32MX350F256L.a(uart_lib.o)
 .text.UARTGetDataRate
                0x00000000       0x28 /opt/microchip/xc32/v1.31/bin/../lib/gcc/pic32mx/4.5.2/../../../../pic32mx/lib/mips16/libmchp_peripheral_32MX350F256L.a(uart_lib.o)
 .text.UARTSetAddress
                0x00000000       0x28 /opt/microchip/xc32/v1.31/bin/../lib/gcc/pic32mx/4.5.2/../../../../pic32mx/lib/mips16/libmchp_peripheral_32MX350F256L.a(uart_lib.o)
 .text.UARTWatchForAddress
                0x00000000       0x20 /opt/microchip/xc32/v1.31/bin/../lib/gcc/pic32mx/4.5.2/../../../../pic32mx/lib/mips16/libmchp_peripheral_32MX350F256L.a(uart_lib.o)
 .text          0x00000000        0x0 /opt/microchip/xc32/v1.31/bin/../lib/gcc/pic32mx/4.5.2/../../../../pic32mx/lib/mips16/libmchp_peripheral_32MX350F256L.a(I2CAcknowledgeByte.o)
 .data          0x00000000        0x0 /opt/microchip/xc32/v1.31/bin/../lib/gcc/pic32mx/4.5.2/../../../../pic32mx/lib/mips16/libmchp_peripheral_32MX350F256L.a(I2CAcknowledgeByte.o)
 .bss           0x00000000        0x0 /opt/microchip/xc32/v1.31/bin/../lib/gcc/pic32mx/4.5.2/../../../../pic32mx/lib/mips16/libmchp_peripheral_32MX350F256L.a(I2CAcknowledgeByte.o)
 .reginfo       0x00000000       0x18 /opt/microchip/xc32/v1.31/bin/../lib/gcc/pic32mx/4.5.2/../../../../pic32mx/lib/mips16/libmchp_peripheral_32MX350F256L.a(I2CAcknowledgeByte.o)
 .pdr           0x00000000       0x20 /opt/microchip/xc32/v1.31/bin/../lib/gcc/pic32mx/4.5.2/../../../../pic32mx/lib/mips16/libmchp_peripheral_32MX350F256L.a(I2CAcknowledgeByte.o)
 .text          0x00000000        0x0 /opt/microchip/xc32/v1.31/bin/../lib/gcc/pic32mx/4.5.2/../../../../pic32mx/lib/mips16/libmchp_peripheral_32MX350F256L.a(I2CAcknowledgeHasCompleted.o)
 .data          0x00000000        0x0 /opt/microchip/xc32/v1.31/bin/../lib/gcc/pic32mx/4.5.2/../../../../pic32mx/lib/mips16/libmchp_peripheral_32MX350F256L.a(I2CAcknowledgeHasCompleted.o)
 .bss           0x00000000        0x0 /opt/microchip/xc32/v1.31/bin/../lib/gcc/pic32mx/4.5.2/../../../../pic32mx/lib/mips16/libmchp_peripheral_32MX350F256L.a(I2CAcknowledgeHasCompleted.o)
 .reginfo       0x00000000       0x18 /opt/microchip/xc32/v1.31/bin/../lib/gcc/pic32mx/4.5.2/../../../../pic32mx/lib/mips16/libmchp_peripheral_32MX350F256L.a(I2CAcknowledgeHasCompleted.o)
 .pdr           0x00000000       0x20 /opt/microchip/xc32/v1.31/bin/../lib/gcc/pic32mx/4.5.2/../../../../pic32mx/lib/mips16/libmchp_peripheral_32MX350F256L.a(I2CAcknowledgeHasCompleted.o)
 .text          0x00000000        0x0 /opt/microchip/xc32/v1.31/bin/../lib/gcc/pic32mx/4.5.2/../../../../pic32mx/lib/mips16/libmchp_peripheral_32MX350F256L.a(I2CBusIsIdle.o)
 .data          0x00000000        0x0 /opt/microchip/xc32/v1.31/bin/../lib/gcc/pic32mx/4.5.2/../../../../pic32mx/lib/mips16/libmchp_peripheral_32MX350F256L.a(I2CBusIsIdle.o)
 .bss           0x00000000        0x0 /opt/microchip/xc32/v1.31/bin/../lib/gcc/pic32mx/4.5.2/../../../../pic32mx/lib/mips16/libmchp_peripheral_32MX350F256L.a(I2CBusIsIdle.o)
 .reginfo       0x00000000       0x18 /opt/microchip/xc32/v1.31/bin/../lib/gcc/pic32mx/4.5.2/../../../../pic32mx/lib/mips16/libmchp_peripheral_32MX350F256L.a(I2CBusIsIdle.o)
 .pdr           0x00000000       0x20 /opt/microchip/xc32/v1.31/bin/../lib/gcc/pic32mx/4.5.2/../../../../pic32mx/lib/mips16/libmchp_peripheral_32MX350F256L.a(I2CBusIsIdle.o)
 .text          0x00000000        0x0 /opt/microchip/xc32/v1.31/bin/../lib/gcc/pic32mx/4.5.2/../../../../pic32mx/lib/mips16/libmchp_peripheral_32MX350F256L.a(I2CByteWasAcknowledged.o)
 .data          0x00000000        0x0 /opt/microchip/xc32/v1.31/bin/../lib/gcc/pic32mx/4.5.2/../../../../pic32mx/lib/mips16/libmchp_peripheral_32MX350F256L.a(I2CByteWasAcknowledged.o)
 .bss           0x00000000        0x0 /opt/microchip/xc32/v1.31/bin/../lib/gcc/pic32mx/4.5.2/../../../../pic32mx/lib/mips16/libmchp_peripheral_32MX350F256L.a(I2CByteWasAcknowledged.o)
 .reginfo       0x00000000       0x18 /opt/microchip/xc32/v1.31/bin/../lib/gcc/pic32mx/4.5.2/../../../../pic32mx/lib/mips16/libmchp_peripheral_32MX350F256L.a(I2CByteWasAcknowledged.o)
 .pdr           0x00000000       0x20 /opt/microchip/xc32/v1.31/bin/../lib/gcc/pic32mx/4.5.2/../../../../pic32mx/lib/mips16/libmchp_peripheral_32MX350F256L.a(I2CByteWasAcknowledged.o)
 .text          0x00000000        0x0 /opt/microchip/xc32/v1.31/bin/../lib/gcc/pic32mx/4.5.2/../../../../pic32mx/lib/mips16/libmchp_peripheral_32MX350F256L.a(I2CConfigure.o)
 .data          0x00000000        0x0 /opt/microchip/xc32/v1.31/bin/../lib/gcc/pic32mx/4.5.2/../../../../pic32mx/lib/mips16/libmchp_peripheral_32MX350F256L.a(I2CConfigure.o)
 .bss           0x00000000        0x0 /opt/microchip/xc32/v1.31/bin/../lib/gcc/pic32mx/4.5.2/../../../../pic32mx/lib/mips16/libmchp_peripheral_32MX350F256L.a(I2CConfigure.o)
 .reginfo       0x00000000       0x18 /opt/microchip/xc32/v1.31/bin/../lib/gcc/pic32mx/4.5.2/../../../../pic32mx/lib/mips16/libmchp_peripheral_32MX350F256L.a(I2CConfigure.o)
 .pdr           0x00000000       0x20 /opt/microchip/xc32/v1.31/bin/../lib/gcc/pic32mx/4.5.2/../../../../pic32mx/lib/mips16/libmchp_peripheral_32MX350F256L.a(I2CConfigure.o)
 .text          0x00000000        0x0 /opt/microchip/xc32/v1.31/bin/../lib/gcc/pic32mx/4.5.2/../../../../pic32mx/lib/mips16/libmchp_peripheral_32MX350F256L.a(I2CEnable.o)
 .data          0x00000000        0x0 /opt/microchip/xc32/v1.31/bin/../lib/gcc/pic32mx/4.5.2/../../../../pic32mx/lib/mips16/libmchp_peripheral_32MX350F256L.a(I2CEnable.o)
 .bss           0x00000000        0x0 /opt/microchip/xc32/v1.31/bin/../lib/gcc/pic32mx/4.5.2/../../../../pic32mx/lib/mips16/libmchp_peripheral_32MX350F256L.a(I2CEnable.o)
 .reginfo       0x00000000       0x18 /opt/microchip/xc32/v1.31/bin/../lib/gcc/pic32mx/4.5.2/../../../../pic32mx/lib/mips16/libmchp_peripheral_32MX350F256L.a(I2CEnable.o)
 .pdr           0x00000000       0x20 /opt/microchip/xc32/v1.31/bin/../lib/gcc/pic32mx/4.5.2/../../../../pic32mx/lib/mips16/libmchp_peripheral_32MX350F256L.a(I2CEnable.o)
 .text          0x00000000        0x0 /opt/microchip/xc32/v1.31/bin/../lib/gcc/pic32mx/4.5.2/../../../../pic32mx/lib/mips16/libmchp_peripheral_32MX350F256L.a(I2CGetByte.o)
 .data          0x00000000        0x0 /opt/microchip/xc32/v1.31/bin/../lib/gcc/pic32mx/4.5.2/../../../../pic32mx/lib/mips16/libmchp_peripheral_32MX350F256L.a(I2CGetByte.o)
 .bss           0x00000000        0x0 /opt/microchip/xc32/v1.31/bin/../lib/gcc/pic32mx/4.5.2/../../../../pic32mx/lib/mips16/libmchp_peripheral_32MX350F256L.a(I2CGetByte.o)
 .reginfo       0x00000000       0x18 /opt/microchip/xc32/v1.31/bin/../lib/gcc/pic32mx/4.5.2/../../../../pic32mx/lib/mips16/libmchp_peripheral_32MX350F256L.a(I2CGetByte.o)
 .pdr           0x00000000       0x20 /opt/microchip/xc32/v1.31/bin/../lib/gcc/pic32mx/4.5.2/../../../../pic32mx/lib/mips16/libmchp_peripheral_32MX350F256L.a(I2CGetByte.o)
 .text          0x00000000        0x0 /opt/microchip/xc32/v1.31/bin/../lib/gcc/pic32mx/4.5.2/../../../../pic32mx/lib/mips16/libmchp_peripheral_32MX350F256L.a(I2CGetStatus.o)
 .data          0x00000000        0x0 /opt/microchip/xc32/v1.31/bin/../lib/gcc/pic32mx/4.5.2/../../../../pic32mx/lib/mips16/libmchp_peripheral_32MX350F256L.a(I2CGetStatus.o)
 .bss           0x00000000        0x0 /opt/microchip/xc32/v1.31/bin/../lib/gcc/pic32mx/4.5.2/../../../../pic32mx/lib/mips16/libmchp_peripheral_32MX350F256L.a(I2CGetStatus.o)
 .reginfo       0x00000000       0x18 /opt/microchip/xc32/v1.31/bin/../lib/gcc/pic32mx/4.5.2/../../../../pic32mx/lib/mips16/libmchp_peripheral_32MX350F256L.a(I2CGetStatus.o)
 .pdr           0x00000000       0x20 /opt/microchip/xc32/v1.31/bin/../lib/gcc/pic32mx/4.5.2/../../../../pic32mx/lib/mips16/libmchp_peripheral_32MX350F256L.a(I2CGetStatus.o)
 .text          0x00000000        0x0 /opt/microchip/xc32/v1.31/bin/../lib/gcc/pic32mx/4.5.2/../../../../pic32mx/lib/mips16/libmchp_peripheral_32MX350F256L.a(I2CReceivedDataIsAvailable.o)
 .data          0x00000000        0x0 /opt/microchip/xc32/v1.31/bin/../lib/gcc/pic32mx/4.5.2/../../../../pic32mx/lib/mips16/libmchp_peripheral_32MX350F256L.a(I2CReceivedDataIsAvailable.o)
 .bss           0x00000000        0x0 /opt/microchip/xc32/v1.31/bin/../lib/gcc/pic32mx/4.5.2/../../../../pic32mx/lib/mips16/libmchp_peripheral_32MX350F256L.a(I2CReceivedDataIsAvailable.o)
 .reginfo       0x00000000       0x18 /opt/microchip/xc32/v1.31/bin/../lib/gcc/pic32mx/4.5.2/../../../../pic32mx/lib/mips16/libmchp_peripheral_32MX350F256L.a(I2CReceivedDataIsAvailable.o)
 .pdr           0x00000000       0x20 /opt/microchip/xc32/v1.31/bin/../lib/gcc/pic32mx/4.5.2/../../../../pic32mx/lib/mips16/libmchp_peripheral_32MX350F256L.a(I2CReceivedDataIsAvailable.o)
 .text          0x00000000        0x0 /opt/microchip/xc32/v1.31/bin/../lib/gcc/pic32mx/4.5.2/../../../../pic32mx/lib/mips16/libmchp_peripheral_32MX350F256L.a(I2CReceiverEnable.o)
 .data          0x00000000        0x0 /opt/microchip/xc32/v1.31/bin/../lib/gcc/pic32mx/4.5.2/../../../../pic32mx/lib/mips16/libmchp_peripheral_32MX350F256L.a(I2CReceiverEnable.o)
 .bss           0x00000000        0x0 /opt/microchip/xc32/v1.31/bin/../lib/gcc/pic32mx/4.5.2/../../../../pic32mx/lib/mips16/libmchp_peripheral_32MX350F256L.a(I2CReceiverEnable.o)
 .reginfo       0x00000000       0x18 /opt/microchip/xc32/v1.31/bin/../lib/gcc/pic32mx/4.5.2/../../../../pic32mx/lib/mips16/libmchp_peripheral_32MX350F256L.a(I2CReceiverEnable.o)
 .pdr           0x00000000       0x20 /opt/microchip/xc32/v1.31/bin/../lib/gcc/pic32mx/4.5.2/../../../../pic32mx/lib/mips16/libmchp_peripheral_32MX350F256L.a(I2CReceiverEnable.o)
 .text          0x00000000        0x0 /opt/microchip/xc32/v1.31/bin/../lib/gcc/pic32mx/4.5.2/../../../../pic32mx/lib/mips16/libmchp_peripheral_32MX350F256L.a(I2CRepeatStart.o)
 .data          0x00000000        0x0 /opt/microchip/xc32/v1.31/bin/../lib/gcc/pic32mx/4.5.2/../../../../pic32mx/lib/mips16/libmchp_peripheral_32MX350F256L.a(I2CRepeatStart.o)
 .bss           0x00000000        0x0 /opt/microchip/xc32/v1.31/bin/../lib/gcc/pic32mx/4.5.2/../../../../pic32mx/lib/mips16/libmchp_peripheral_32MX350F256L.a(I2CRepeatStart.o)
 .reginfo       0x00000000       0x18 /opt/microchip/xc32/v1.31/bin/../lib/gcc/pic32mx/4.5.2/../../../../pic32mx/lib/mips16/libmchp_peripheral_32MX350F256L.a(I2CRepeatStart.o)
 .pdr           0x00000000       0x20 /opt/microchip/xc32/v1.31/bin/../lib/gcc/pic32mx/4.5.2/../../../../pic32mx/lib/mips16/libmchp_peripheral_32MX350F256L.a(I2CRepeatStart.o)
 .text          0x00000000        0x0 /opt/microchip/xc32/v1.31/bin/../lib/gcc/pic32mx/4.5.2/../../../../pic32mx/lib/mips16/libmchp_peripheral_32MX350F256L.a(I2CSendByte.o)
 .data          0x00000000        0x0 /opt/microchip/xc32/v1.31/bin/../lib/gcc/pic32mx/4.5.2/../../../../pic32mx/lib/mips16/libmchp_peripheral_32MX350F256L.a(I2CSendByte.o)
 .bss           0x00000000        0x0 /opt/microchip/xc32/v1.31/bin/../lib/gcc/pic32mx/4.5.2/../../../../pic32mx/lib/mips16/libmchp_peripheral_32MX350F256L.a(I2CSendByte.o)
 .reginfo       0x00000000       0x18 /opt/microchip/xc32/v1.31/bin/../lib/gcc/pic32mx/4.5.2/../../../../pic32mx/lib/mips16/libmchp_peripheral_32MX350F256L.a(I2CSendByte.o)
 .pdr           0x00000000       0x20 /opt/microchip/xc32/v1.31/bin/../lib/gcc/pic32mx/4.5.2/../../../../pic32mx/lib/mips16/libmchp_peripheral_32MX350F256L.a(I2CSendByte.o)
 .text          0x00000000        0x0 /opt/microchip/xc32/v1.31/bin/../lib/gcc/pic32mx/4.5.2/../../../../pic32mx/lib/mips16/libmchp_peripheral_32MX350F256L.a(I2CSetFrequency.o)
 .data          0x00000000        0x0 /opt/microchip/xc32/v1.31/bin/../lib/gcc/pic32mx/4.5.2/../../../../pic32mx/lib/mips16/libmchp_peripheral_32MX350F256L.a(I2CSetFrequency.o)
 .bss           0x00000000        0x0 /opt/microchip/xc32/v1.31/bin/../lib/gcc/pic32mx/4.5.2/../../../../pic32mx/lib/mips16/libmchp_peripheral_32MX350F256L.a(I2CSetFrequency.o)
 .reginfo       0x00000000       0x18 /opt/microchip/xc32/v1.31/bin/../lib/gcc/pic32mx/4.5.2/../../../../pic32mx/lib/mips16/libmchp_peripheral_32MX350F256L.a(I2CSetFrequency.o)
 .pdr           0x00000000       0x20 /opt/microchip/xc32/v1.31/bin/../lib/gcc/pic32mx/4.5.2/../../../../pic32mx/lib/mips16/libmchp_peripheral_32MX350F256L.a(I2CSetFrequency.o)
 .text          0x00000000        0x0 /opt/microchip/xc32/v1.31/bin/../lib/gcc/pic32mx/4.5.2/../../../../pic32mx/lib/mips16/libmchp_peripheral_32MX350F256L.a(I2CStart.o)
 .data          0x00000000        0x0 /opt/microchip/xc32/v1.31/bin/../lib/gcc/pic32mx/4.5.2/../../../../pic32mx/lib/mips16/libmchp_peripheral_32MX350F256L.a(I2CStart.o)
 .bss           0x00000000        0x0 /opt/microchip/xc32/v1.31/bin/../lib/gcc/pic32mx/4.5.2/../../../../pic32mx/lib/mips16/libmchp_peripheral_32MX350F256L.a(I2CStart.o)
 .reginfo       0x00000000       0x18 /opt/microchip/xc32/v1.31/bin/../lib/gcc/pic32mx/4.5.2/../../../../pic32mx/lib/mips16/libmchp_peripheral_32MX350F256L.a(I2CStart.o)
 .pdr           0x00000000       0x20 /opt/microchip/xc32/v1.31/bin/../lib/gcc/pic32mx/4.5.2/../../../../pic32mx/lib/mips16/libmchp_peripheral_32MX350F256L.a(I2CStart.o)
 .text          0x00000000        0x0 /opt/microchip/xc32/v1.31/bin/../lib/gcc/pic32mx/4.5.2/../../../../pic32mx/lib/mips16/libmchp_peripheral_32MX350F256L.a(I2CStop.o)
 .data          0x00000000        0x0 /opt/microchip/xc32/v1.31/bin/../lib/gcc/pic32mx/4.5.2/../../../../pic32mx/lib/mips16/libmchp_peripheral_32MX350F256L.a(I2CStop.o)
 .bss           0x00000000        0x0 /opt/microchip/xc32/v1.31/bin/../lib/gcc/pic32mx/4.5.2/../../../../pic32mx/lib/mips16/libmchp_peripheral_32MX350F256L.a(I2CStop.o)
 .reginfo       0x00000000       0x18 /opt/microchip/xc32/v1.31/bin/../lib/gcc/pic32mx/4.5.2/../../../../pic32mx/lib/mips16/libmchp_peripheral_32MX350F256L.a(I2CStop.o)
 .pdr           0x00000000       0x20 /opt/microchip/xc32/v1.31/bin/../lib/gcc/pic32mx/4.5.2/../../../../pic32mx/lib/mips16/libmchp_peripheral_32MX350F256L.a(I2CStop.o)
 .text          0x00000000        0x0 /opt/microchip/xc32/v1.31/bin/../lib/gcc/pic32mx/4.5.2/../../../../pic32mx/lib/mips16/libmchp_peripheral_32MX350F256L.a(I2CTransmissionHasCompleted.o)
 .data          0x00000000        0x0 /opt/microchip/xc32/v1.31/bin/../lib/gcc/pic32mx/4.5.2/../../../../pic32mx/lib/mips16/libmchp_peripheral_32MX350F256L.a(I2CTransmissionHasCompleted.o)
 .bss           0x00000000        0x0 /opt/microchip/xc32/v1.31/bin/../lib/gcc/pic32mx/4.5.2/../../../../pic32mx/lib/mips16/libmchp_peripheral_32MX350F256L.a(I2CTransmissionHasCompleted.o)
 .reginfo       0x00000000       0x18 /opt/microchip/xc32/v1.31/bin/../lib/gcc/pic32mx/4.5.2/../../../../pic32mx/lib/mips16/libmchp_peripheral_32MX350F256L.a(I2CTransmissionHasCompleted.o)
 .pdr           0x00000000       0x20 /opt/microchip/xc32/v1.31/bin/../lib/gcc/pic32mx/4.5.2/../../../../pic32mx/lib/mips16/libmchp_peripheral_32MX350F256L.a(I2CTransmissionHasCompleted.o)
 .text          0x00000000        0x0 /opt/microchip/xc32/v1.31/bin/../lib/gcc/pic32mx/4.5.2/../../../../pic32mx/lib/mips16/libmchp_peripheral_32MX350F256L.a(I2CTransmitterIsReady.o)
 .data          0x00000000        0x0 /opt/microchip/xc32/v1.31/bin/../lib/gcc/pic32mx/4.5.2/../../../../pic32mx/lib/mips16/libmchp_peripheral_32MX350F256L.a(I2CTransmitterIsReady.o)
 .bss           0x00000000        0x0 /opt/microchip/xc32/v1.31/bin/../lib/gcc/pic32mx/4.5.2/../../../../pic32mx/lib/mips16/libmchp_peripheral_32MX350F256L.a(I2CTransmitterIsReady.o)
 .reginfo       0x00000000       0x18 /opt/microchip/xc32/v1.31/bin/../lib/gcc/pic32mx/4.5.2/../../../../pic32mx/lib/mips16/libmchp_peripheral_32MX350F256L.a(I2CTransmitterIsReady.o)
 .pdr           0x00000000       0x20 /opt/microchip/xc32/v1.31/bin/../lib/gcc/pic32mx/4.5.2/../../../../pic32mx/lib/mips16/libmchp_peripheral_32MX350F256L.a(I2CTransmitterIsReady.o)
 .text          0x00000000        0x0 /opt/microchip/xc32/v1.31/bin/../lib/gcc/pic32mx/4.5.2/../../../../pic32mx/lib/mips16/libmchp_peripheral_32MX350F256L.a(I2CPrivate.o)
 .data          0x00000000        0x0 /opt/microchip/xc32/v1.31/bin/../lib/gcc/pic32mx/4.5.2/../../../../pic32mx/lib/mips16/libmchp_peripheral_32MX350F256L.a(I2CPrivate.o)
 .bss           0x00000000        0x0 /opt/microchip/xc32/v1.31/bin/../lib/gcc/pic32mx/4.5.2/../../../../pic32mx/lib/mips16/libmchp_peripheral_32MX350F256L.a(I2CPrivate.o)
 .reginfo       0x00000000       0x18 /opt/microchip/xc32/v1.31/bin/../lib/gcc/pic32mx/4.5.2/../../../../pic32mx/lib/mips16/libmchp_peripheral_32MX350F256L.a(I2CPrivate.o)
 .pdr           0x00000000        0x0 /opt/microchip/xc32/v1.31/bin/../lib/gcc/pic32mx/4.5.2/../../../../pic32mx/lib/mips16/libmchp_peripheral_32MX350F256L.a(I2CPrivate.o)
 .data          0x00000000        0x0 /opt/microchip/xc32/v1.31/bin/../lib/gcc/pic32mx/4.5.2/mips16/libgcc.a(_floatundidf.o)
 .bss           0x00000000        0x0 /opt/microchip/xc32/v1.31/bin/../lib/gcc/pic32mx/4.5.2/mips16/libgcc.a(_floatundidf.o)
 .reginfo       0x00000000       0x18 /opt/microchip/xc32/v1.31/bin/../lib/gcc/pic32mx/4.5.2/mips16/libgcc.a(_floatundidf.o)
 .data          0x00000000        0x0 /opt/microchip/xc32/v1.31/bin/../lib/gcc/pic32mx/4.5.2/mips16/libgcc.a(_udivdi3.o)
 .bss           0x00000000        0x0 /opt/microchip/xc32/v1.31/bin/../lib/gcc/pic32mx/4.5.2/mips16/libgcc.a(_udivdi3.o)
 .reginfo       0x00000000       0x18 /opt/microchip/xc32/v1.31/bin/../lib/gcc/pic32mx/4.5.2/mips16/libgcc.a(_udivdi3.o)
 .data          0x00000000        0x0 /opt/microchip/xc32/v1.31/bin/../lib/gcc/pic32mx/4.5.2/mips16/libgcc.a(floatunsidf.o)
 .bss           0x00000000        0x0 /opt/microchip/xc32/v1.31/bin/../lib/gcc/pic32mx/4.5.2/mips16/libgcc.a(floatunsidf.o)
 .reginfo       0x00000000       0x18 /opt/microchip/xc32/v1.31/bin/../lib/gcc/pic32mx/4.5.2/mips16/libgcc.a(floatunsidf.o)
 .data          0x00000000        0x0 /opt/microchip/xc32/v1.31/bin/../lib/gcc/pic32mx/4.5.2/mips16/libgcc.a(floatunsisf.o)
 .bss           0x00000000        0x0 /opt/microchip/xc32/v1.31/bin/../lib/gcc/pic32mx/4.5.2/mips16/libgcc.a(floatunsisf.o)
 .reginfo       0x00000000       0x18 /opt/microchip/xc32/v1.31/bin/../lib/gcc/pic32mx/4.5.2/mips16/libgcc.a(floatunsisf.o)
 .text          0x00000000        0x0 /opt/microchip/xc32/v1.31/bin/../lib/gcc/pic32mx/4.5.2/mips16/libgcc.a(_clz.o)
 .data          0x00000000        0x0 /opt/microchip/xc32/v1.31/bin/../lib/gcc/pic32mx/4.5.2/mips16/libgcc.a(_clz.o)
 .bss           0x00000000        0x0 /opt/microchip/xc32/v1.31/bin/../lib/gcc/pic32mx/4.5.2/mips16/libgcc.a(_clz.o)
 .reginfo       0x00000000       0x18 /opt/microchip/xc32/v1.31/bin/../lib/gcc/pic32mx/4.5.2/mips16/libgcc.a(_clz.o)
 .text          0x00000000        0x0 /opt/microchip/xc32/v1.31/bin/../lib/gcc/pic32mx/4.5.2/../../../../pic32mx/lib/mips16/libpic32.a(default-bootstrap-exception-handler.o)
 .data          0x00000000        0x0 /opt/microchip/xc32/v1.31/bin/../lib/gcc/pic32mx/4.5.2/../../../../pic32mx/lib/mips16/libpic32.a(default-bootstrap-exception-handler.o)
 .bss           0x00000000        0x0 /opt/microchip/xc32/v1.31/bin/../lib/gcc/pic32mx/4.5.2/../../../../pic32mx/lib/mips16/libpic32.a(default-bootstrap-exception-handler.o)
 .reginfo       0x00000000       0x18 /opt/microchip/xc32/v1.31/bin/../lib/gcc/pic32mx/4.5.2/../../../../pic32mx/lib/mips16/libpic32.a(default-bootstrap-exception-handler.o)
 .text          0x00000000        0x0 /opt/microchip/xc32/v1.31/bin/../lib/gcc/pic32mx/4.5.2/../../../../pic32mx/lib/mips16/libpic32.a(default-on-reset.o)
 .data          0x00000000        0x0 /opt/microchip/xc32/v1.31/bin/../lib/gcc/pic32mx/4.5.2/../../../../pic32mx/lib/mips16/libpic32.a(default-on-reset.o)
 .bss           0x00000000        0x0 /opt/microchip/xc32/v1.31/bin/../lib/gcc/pic32mx/4.5.2/../../../../pic32mx/lib/mips16/libpic32.a(default-on-reset.o)
 .reginfo       0x00000000       0x18 /opt/microchip/xc32/v1.31/bin/../lib/gcc/pic32mx/4.5.2/../../../../pic32mx/lib/mips16/libpic32.a(default-on-reset.o)
 .text          0x00000000        0x0 /opt/microchip/xc32/v1.31/bin/../lib/gcc/pic32mx/4.5.2/../../../../pic32mx/lib/mips16/libpic32.a(default-on-bootstrap.o)
 .data          0x00000000        0x0 /opt/microchip/xc32/v1.31/bin/../lib/gcc/pic32mx/4.5.2/../../../../pic32mx/lib/mips16/libpic32.a(default-on-bootstrap.o)
 .bss           0x00000000        0x0 /opt/microchip/xc32/v1.31/bin/../lib/gcc/pic32mx/4.5.2/../../../../pic32mx/lib/mips16/libpic32.a(default-on-bootstrap.o)
 .reginfo       0x00000000       0x18 /opt/microchip/xc32/v1.31/bin/../lib/gcc/pic32mx/4.5.2/../../../../pic32mx/lib/mips16/libpic32.a(default-on-bootstrap.o)
 .data          0x00000000        0x0 /opt/microchip/xc32/v1.31/bin/../lib/gcc/pic32mx/4.5.2/../../../../pic32mx/lib/mips16/libpic32.a(default-nmi-handler.o)
 .bss           0x00000000        0x0 /opt/microchip/xc32/v1.31/bin/../lib/gcc/pic32mx/4.5.2/../../../../pic32mx/lib/mips16/libpic32.a(default-nmi-handler.o)
 .reginfo       0x00000000       0x18 /opt/microchip/xc32/v1.31/bin/../lib/gcc/pic32mx/4.5.2/../../../../pic32mx/lib/mips16/libpic32.a(default-nmi-handler.o)
 .data          0x00000000        0x0 /opt/microchip/xc32/v1.31/bin/../lib/gcc/pic32mx/4.5.2/../../../../pic32mx/lib/mips16/libpic32.a(pic32_software_reset.o)
 .bss           0x00000000        0x0 /opt/microchip/xc32/v1.31/bin/../lib/gcc/pic32mx/4.5.2/../../../../pic32mx/lib/mips16/libpic32.a(pic32_software_reset.o)
 .reginfo       0x00000000       0x18 /opt/microchip/xc32/v1.31/bin/../lib/gcc/pic32mx/4.5.2/../../../../pic32mx/lib/mips16/libpic32.a(pic32_software_reset.o)
 .text          0x00000000        0x0 /opt/microchip/xc32/v1.31/bin/../lib/gcc/pic32mx/4.5.2/../../../../pic32mx/lib/mips16/libpic32.a(general-exception.o)
 .data          0x00000000        0x0 /opt/microchip/xc32/v1.31/bin/../lib/gcc/pic32mx/4.5.2/../../../../pic32mx/lib/mips16/libpic32.a(general-exception.o)
 .bss           0x00000000        0x0 /opt/microchip/xc32/v1.31/bin/../lib/gcc/pic32mx/4.5.2/../../../../pic32mx/lib/mips16/libpic32.a(general-exception.o)
 .reginfo       0x00000000       0x18 /opt/microchip/xc32/v1.31/bin/../lib/gcc/pic32mx/4.5.2/../../../../pic32mx/lib/mips16/libpic32.a(general-exception.o)
 .text          0x00000000        0x0 /opt/microchip/xc32/v1.31/bin/../lib/gcc/pic32mx/4.5.2/../../../../pic32mx/lib/mips16/libpic32.a(vector2.o)
 .data          0x00000000        0x0 /opt/microchip/xc32/v1.31/bin/../lib/gcc/pic32mx/4.5.2/../../../../pic32mx/lib/mips16/libpic32.a(vector2.o)
 .bss           0x00000000        0x0 /opt/microchip/xc32/v1.31/bin/../lib/gcc/pic32mx/4.5.2/../../../../pic32mx/lib/mips16/libpic32.a(vector2.o)
 .reginfo       0x00000000       0x18 /opt/microchip/xc32/v1.31/bin/../lib/gcc/pic32mx/4.5.2/../../../../pic32mx/lib/mips16/libpic32.a(vector2.o)
 .text          0x00000000        0x0 /opt/microchip/xc32/v1.31/bin/../lib/gcc/pic32mx/4.5.2/../../../../pic32mx/lib/mips16/libpic32.a(vector3.o)
 .data          0x00000000        0x0 /opt/microchip/xc32/v1.31/bin/../lib/gcc/pic32mx/4.5.2/../../../../pic32mx/lib/mips16/libpic32.a(vector3.o)
 .bss           0x00000000        0x0 /opt/microchip/xc32/v1.31/bin/../lib/gcc/pic32mx/4.5.2/../../../../pic32mx/lib/mips16/libpic32.a(vector3.o)
 .reginfo       0x00000000       0x18 /opt/microchip/xc32/v1.31/bin/../lib/gcc/pic32mx/4.5.2/../../../../pic32mx/lib/mips16/libpic32.a(vector3.o)
 .text          0x00000000        0x0 /opt/microchip/xc32/v1.31/bin/../lib/gcc/pic32mx/4.5.2/../../../../pic32mx/lib/mips16/libpic32.a(vector5.o)
 .data          0x00000000        0x0 /opt/microchip/xc32/v1.31/bin/../lib/gcc/pic32mx/4.5.2/../../../../pic32mx/lib/mips16/libpic32.a(vector5.o)
 .bss           0x00000000        0x0 /opt/microchip/xc32/v1.31/bin/../lib/gcc/pic32mx/4.5.2/../../../../pic32mx/lib/mips16/libpic32.a(vector5.o)
 .reginfo       0x00000000       0x18 /opt/microchip/xc32/v1.31/bin/../lib/gcc/pic32mx/4.5.2/../../../../pic32mx/lib/mips16/libpic32.a(vector5.o)
 .text          0x00000000        0x0 /opt/microchip/xc32/v1.31/bin/../lib/gcc/pic32mx/4.5.2/../../../../pic32mx/lib/mips16/libpic32.a(vector6.o)
 .data          0x00000000        0x0 /opt/microchip/xc32/v1.31/bin/../lib/gcc/pic32mx/4.5.2/../../../../pic32mx/lib/mips16/libpic32.a(vector6.o)
 .bss           0x00000000        0x0 /opt/microchip/xc32/v1.31/bin/../lib/gcc/pic32mx/4.5.2/../../../../pic32mx/lib/mips16/libpic32.a(vector6.o)
 .reginfo       0x00000000       0x18 /opt/microchip/xc32/v1.31/bin/../lib/gcc/pic32mx/4.5.2/../../../../pic32mx/lib/mips16/libpic32.a(vector6.o)
 .text          0x00000000        0x0 /opt/microchip/xc32/v1.31/bin/../lib/gcc/pic32mx/4.5.2/../../../../pic32mx/lib/mips16/libpic32.a(vector7.o)
 .data          0x00000000        0x0 /opt/microchip/xc32/v1.31/bin/../lib/gcc/pic32mx/4.5.2/../../../../pic32mx/lib/mips16/libpic32.a(vector7.o)
 .bss           0x00000000        0x0 /opt/microchip/xc32/v1.31/bin/../lib/gcc/pic32mx/4.5.2/../../../../pic32mx/lib/mips16/libpic32.a(vector7.o)
 .reginfo       0x00000000       0x18 /opt/microchip/xc32/v1.31/bin/../lib/gcc/pic32mx/4.5.2/../../../../pic32mx/lib/mips16/libpic32.a(vector7.o)
 .text          0x00000000        0x0 /opt/microchip/xc32/v1.31/bin/../lib/gcc/pic32mx/4.5.2/../../../../pic32mx/lib/mips16/libpic32.a(vector8.o)
 .data          0x00000000        0x0 /opt/microchip/xc32/v1.31/bin/../lib/gcc/pic32mx/4.5.2/../../../../pic32mx/lib/mips16/libpic32.a(vector8.o)
 .bss           0x00000000        0x0 /opt/microchip/xc32/v1.31/bin/../lib/gcc/pic32mx/4.5.2/../../../../pic32mx/lib/mips16/libpic32.a(vector8.o)
 .reginfo       0x00000000       0x18 /opt/microchip/xc32/v1.31/bin/../lib/gcc/pic32mx/4.5.2/../../../../pic32mx/lib/mips16/libpic32.a(vector8.o)
 .text          0x00000000        0x0 /opt/microchip/xc32/v1.31/bin/../lib/gcc/pic32mx/4.5.2/../../../../pic32mx/lib/mips16/libpic32.a(vector9.o)
 .data          0x00000000        0x0 /opt/microchip/xc32/v1.31/bin/../lib/gcc/pic32mx/4.5.2/../../../../pic32mx/lib/mips16/libpic32.a(vector9.o)
 .bss           0x00000000        0x0 /opt/microchip/xc32/v1.31/bin/../lib/gcc/pic32mx/4.5.2/../../../../pic32mx/lib/mips16/libpic32.a(vector9.o)
 .reginfo       0x00000000       0x18 /opt/microchip/xc32/v1.31/bin/../lib/gcc/pic32mx/4.5.2/../../../../pic32mx/lib/mips16/libpic32.a(vector9.o)
 .text          0x00000000        0x0 /opt/microchip/xc32/v1.31/bin/../lib/gcc/pic32mx/4.5.2/../../../../pic32mx/lib/mips16/libpic32.a(vector10.o)
 .data          0x00000000        0x0 /opt/microchip/xc32/v1.31/bin/../lib/gcc/pic32mx/4.5.2/../../../../pic32mx/lib/mips16/libpic32.a(vector10.o)
 .bss           0x00000000        0x0 /opt/microchip/xc32/v1.31/bin/../lib/gcc/pic32mx/4.5.2/../../../../pic32mx/lib/mips16/libpic32.a(vector10.o)
 .reginfo       0x00000000       0x18 /opt/microchip/xc32/v1.31/bin/../lib/gcc/pic32mx/4.5.2/../../../../pic32mx/lib/mips16/libpic32.a(vector10.o)
 .text          0x00000000        0x0 /opt/microchip/xc32/v1.31/bin/../lib/gcc/pic32mx/4.5.2/../../../../pic32mx/lib/mips16/libpic32.a(vector11.o)
 .data          0x00000000        0x0 /opt/microchip/xc32/v1.31/bin/../lib/gcc/pic32mx/4.5.2/../../../../pic32mx/lib/mips16/libpic32.a(vector11.o)
 .bss           0x00000000        0x0 /opt/microchip/xc32/v1.31/bin/../lib/gcc/pic32mx/4.5.2/../../../../pic32mx/lib/mips16/libpic32.a(vector11.o)
 .reginfo       0x00000000       0x18 /opt/microchip/xc32/v1.31/bin/../lib/gcc/pic32mx/4.5.2/../../../../pic32mx/lib/mips16/libpic32.a(vector11.o)
 .text          0x00000000        0x0 /opt/microchip/xc32/v1.31/bin/../lib/gcc/pic32mx/4.5.2/../../../../pic32mx/lib/mips16/libpic32.a(vector12.o)
 .data          0x00000000        0x0 /opt/microchip/xc32/v1.31/bin/../lib/gcc/pic32mx/4.5.2/../../../../pic32mx/lib/mips16/libpic32.a(vector12.o)
 .bss           0x00000000        0x0 /opt/microchip/xc32/v1.31/bin/../lib/gcc/pic32mx/4.5.2/../../../../pic32mx/lib/mips16/libpic32.a(vector12.o)
 .reginfo       0x00000000       0x18 /opt/microchip/xc32/v1.31/bin/../lib/gcc/pic32mx/4.5.2/../../../../pic32mx/lib/mips16/libpic32.a(vector12.o)
 .text          0x00000000        0x0 /opt/microchip/xc32/v1.31/bin/../lib/gcc/pic32mx/4.5.2/../../../../pic32mx/lib/mips16/libpic32.a(vector13.o)
 .data          0x00000000        0x0 /opt/microchip/xc32/v1.31/bin/../lib/gcc/pic32mx/4.5.2/../../../../pic32mx/lib/mips16/libpic32.a(vector13.o)
 .bss           0x00000000        0x0 /opt/microchip/xc32/v1.31/bin/../lib/gcc/pic32mx/4.5.2/../../../../pic32mx/lib/mips16/libpic32.a(vector13.o)
 .reginfo       0x00000000       0x18 /opt/microchip/xc32/v1.31/bin/../lib/gcc/pic32mx/4.5.2/../../../../pic32mx/lib/mips16/libpic32.a(vector13.o)
 .text          0x00000000        0x0 /opt/microchip/xc32/v1.31/bin/../lib/gcc/pic32mx/4.5.2/../../../../pic32mx/lib/mips16/libpic32.a(vector15.o)
 .data          0x00000000        0x0 /opt/microchip/xc32/v1.31/bin/../lib/gcc/pic32mx/4.5.2/../../../../pic32mx/lib/mips16/libpic32.a(vector15.o)
 .bss           0x00000000        0x0 /opt/microchip/xc32/v1.31/bin/../lib/gcc/pic32mx/4.5.2/../../../../pic32mx/lib/mips16/libpic32.a(vector15.o)
 .reginfo       0x00000000       0x18 /opt/microchip/xc32/v1.31/bin/../lib/gcc/pic32mx/4.5.2/../../../../pic32mx/lib/mips16/libpic32.a(vector15.o)
 .text          0x00000000        0x0 /opt/microchip/xc32/v1.31/bin/../lib/gcc/pic32mx/4.5.2/../../../../pic32mx/lib/mips16/libpic32.a(vector16.o)
 .data          0x00000000        0x0 /opt/microchip/xc32/v1.31/bin/../lib/gcc/pic32mx/4.5.2/../../../../pic32mx/lib/mips16/libpic32.a(vector16.o)
 .bss           0x00000000        0x0 /opt/microchip/xc32/v1.31/bin/../lib/gcc/pic32mx/4.5.2/../../../../pic32mx/lib/mips16/libpic32.a(vector16.o)
 .reginfo       0x00000000       0x18 /opt/microchip/xc32/v1.31/bin/../lib/gcc/pic32mx/4.5.2/../../../../pic32mx/lib/mips16/libpic32.a(vector16.o)
 .text          0x00000000        0x0 /opt/microchip/xc32/v1.31/bin/../lib/gcc/pic32mx/4.5.2/../../../../pic32mx/lib/mips16/libpic32.a(vector17.o)
 .data          0x00000000        0x0 /opt/microchip/xc32/v1.31/bin/../lib/gcc/pic32mx/4.5.2/../../../../pic32mx/lib/mips16/libpic32.a(vector17.o)
 .bss           0x00000000        0x0 /opt/microchip/xc32/v1.31/bin/../lib/gcc/pic32mx/4.5.2/../../../../pic32mx/lib/mips16/libpic32.a(vector17.o)
 .reginfo       0x00000000       0x18 /opt/microchip/xc32/v1.31/bin/../lib/gcc/pic32mx/4.5.2/../../../../pic32mx/lib/mips16/libpic32.a(vector17.o)
 .text          0x00000000        0x0 /opt/microchip/xc32/v1.31/bin/../lib/gcc/pic32mx/4.5.2/../../../../pic32mx/lib/mips16/libpic32.a(vector18.o)
 .data          0x00000000        0x0 /opt/microchip/xc32/v1.31/bin/../lib/gcc/pic32mx/4.5.2/../../../../pic32mx/lib/mips16/libpic32.a(vector18.o)
 .bss           0x00000000        0x0 /opt/microchip/xc32/v1.31/bin/../lib/gcc/pic32mx/4.5.2/../../../../pic32mx/lib/mips16/libpic32.a(vector18.o)
 .reginfo       0x00000000       0x18 /opt/microchip/xc32/v1.31/bin/../lib/gcc/pic32mx/4.5.2/../../../../pic32mx/lib/mips16/libpic32.a(vector18.o)
 .text          0x00000000        0x0 /opt/microchip/xc32/v1.31/bin/../lib/gcc/pic32mx/4.5.2/../../../../pic32mx/lib/mips16/libpic32.a(vector19.o)
 .data          0x00000000        0x0 /opt/microchip/xc32/v1.31/bin/../lib/gcc/pic32mx/4.5.2/../../../../pic32mx/lib/mips16/libpic32.a(vector19.o)
 .bss           0x00000000        0x0 /opt/microchip/xc32/v1.31/bin/../lib/gcc/pic32mx/4.5.2/../../../../pic32mx/lib/mips16/libpic32.a(vector19.o)
 .reginfo       0x00000000       0x18 /opt/microchip/xc32/v1.31/bin/../lib/gcc/pic32mx/4.5.2/../../../../pic32mx/lib/mips16/libpic32.a(vector19.o)
 .text          0x00000000        0x0 /opt/microchip/xc32/v1.31/bin/../lib/gcc/pic32mx/4.5.2/../../../../pic32mx/lib/mips16/libpic32.a(vector20.o)
 .data          0x00000000        0x0 /opt/microchip/xc32/v1.31/bin/../lib/gcc/pic32mx/4.5.2/../../../../pic32mx/lib/mips16/libpic32.a(vector20.o)
 .bss           0x00000000        0x0 /opt/microchip/xc32/v1.31/bin/../lib/gcc/pic32mx/4.5.2/../../../../pic32mx/lib/mips16/libpic32.a(vector20.o)
 .reginfo       0x00000000       0x18 /opt/microchip/xc32/v1.31/bin/../lib/gcc/pic32mx/4.5.2/../../../../pic32mx/lib/mips16/libpic32.a(vector20.o)
 .text          0x00000000        0x0 /opt/microchip/xc32/v1.31/bin/../lib/gcc/pic32mx/4.5.2/../../../../pic32mx/lib/mips16/libpic32.a(vector21.o)
 .data          0x00000000        0x0 /opt/microchip/xc32/v1.31/bin/../lib/gcc/pic32mx/4.5.2/../../../../pic32mx/lib/mips16/libpic32.a(vector21.o)
 .bss           0x00000000        0x0 /opt/microchip/xc32/v1.31/bin/../lib/gcc/pic32mx/4.5.2/../../../../pic32mx/lib/mips16/libpic32.a(vector21.o)
 .reginfo       0x00000000       0x18 /opt/microchip/xc32/v1.31/bin/../lib/gcc/pic32mx/4.5.2/../../../../pic32mx/lib/mips16/libpic32.a(vector21.o)
 .text          0x00000000        0x0 /opt/microchip/xc32/v1.31/bin/../lib/gcc/pic32mx/4.5.2/../../../../pic32mx/lib/mips16/libpic32.a(vector22.o)
 .data          0x00000000        0x0 /opt/microchip/xc32/v1.31/bin/../lib/gcc/pic32mx/4.5.2/../../../../pic32mx/lib/mips16/libpic32.a(vector22.o)
 .bss           0x00000000        0x0 /opt/microchip/xc32/v1.31/bin/../lib/gcc/pic32mx/4.5.2/../../../../pic32mx/lib/mips16/libpic32.a(vector22.o)
 .reginfo       0x00000000       0x18 /opt/microchip/xc32/v1.31/bin/../lib/gcc/pic32mx/4.5.2/../../../../pic32mx/lib/mips16/libpic32.a(vector22.o)
 .text          0x00000000        0x0 /opt/microchip/xc32/v1.31/bin/../lib/gcc/pic32mx/4.5.2/../../../../pic32mx/lib/mips16/libpic32.a(vector23.o)
 .data          0x00000000        0x0 /opt/microchip/xc32/v1.31/bin/../lib/gcc/pic32mx/4.5.2/../../../../pic32mx/lib/mips16/libpic32.a(vector23.o)
 .bss           0x00000000        0x0 /opt/microchip/xc32/v1.31/bin/../lib/gcc/pic32mx/4.5.2/../../../../pic32mx/lib/mips16/libpic32.a(vector23.o)
 .reginfo       0x00000000       0x18 /opt/microchip/xc32/v1.31/bin/../lib/gcc/pic32mx/4.5.2/../../../../pic32mx/lib/mips16/libpic32.a(vector23.o)
 .text          0x00000000        0x0 /opt/microchip/xc32/v1.31/bin/../lib/gcc/pic32mx/4.5.2/../../../../pic32mx/lib/mips16/libpic32.a(vector24.o)
 .data          0x00000000        0x0 /opt/microchip/xc32/v1.31/bin/../lib/gcc/pic32mx/4.5.2/../../../../pic32mx/lib/mips16/libpic32.a(vector24.o)
 .bss           0x00000000        0x0 /opt/microchip/xc32/v1.31/bin/../lib/gcc/pic32mx/4.5.2/../../../../pic32mx/lib/mips16/libpic32.a(vector24.o)
 .reginfo       0x00000000       0x18 /opt/microchip/xc32/v1.31/bin/../lib/gcc/pic32mx/4.5.2/../../../../pic32mx/lib/mips16/libpic32.a(vector24.o)
 .text          0x00000000        0x0 /opt/microchip/xc32/v1.31/bin/../lib/gcc/pic32mx/4.5.2/../../../../pic32mx/lib/mips16/libpic32.a(vector25.o)
 .data          0x00000000        0x0 /opt/microchip/xc32/v1.31/bin/../lib/gcc/pic32mx/4.5.2/../../../../pic32mx/lib/mips16/libpic32.a(vector25.o)
 .bss           0x00000000        0x0 /opt/microchip/xc32/v1.31/bin/../lib/gcc/pic32mx/4.5.2/../../../../pic32mx/lib/mips16/libpic32.a(vector25.o)
 .reginfo       0x00000000       0x18 /opt/microchip/xc32/v1.31/bin/../lib/gcc/pic32mx/4.5.2/../../../../pic32mx/lib/mips16/libpic32.a(vector25.o)
 .text          0x00000000        0x0 /opt/microchip/xc32/v1.31/bin/../lib/gcc/pic32mx/4.5.2/../../../../pic32mx/lib/mips16/libpic32.a(vector26.o)
 .data          0x00000000        0x0 /opt/microchip/xc32/v1.31/bin/../lib/gcc/pic32mx/4.5.2/../../../../pic32mx/lib/mips16/libpic32.a(vector26.o)
 .bss           0x00000000        0x0 /opt/microchip/xc32/v1.31/bin/../lib/gcc/pic32mx/4.5.2/../../../../pic32mx/lib/mips16/libpic32.a(vector26.o)
 .reginfo       0x00000000       0x18 /opt/microchip/xc32/v1.31/bin/../lib/gcc/pic32mx/4.5.2/../../../../pic32mx/lib/mips16/libpic32.a(vector26.o)
 .text          0x00000000        0x0 /opt/microchip/xc32/v1.31/bin/../lib/gcc/pic32mx/4.5.2/../../../../pic32mx/lib/mips16/libpic32.a(vector27.o)
 .data          0x00000000        0x0 /opt/microchip/xc32/v1.31/bin/../lib/gcc/pic32mx/4.5.2/../../../../pic32mx/lib/mips16/libpic32.a(vector27.o)
 .bss           0x00000000        0x0 /opt/microchip/xc32/v1.31/bin/../lib/gcc/pic32mx/4.5.2/../../../../pic32mx/lib/mips16/libpic32.a(vector27.o)
 .reginfo       0x00000000       0x18 /opt/microchip/xc32/v1.31/bin/../lib/gcc/pic32mx/4.5.2/../../../../pic32mx/lib/mips16/libpic32.a(vector27.o)
 .text          0x00000000        0x0 /opt/microchip/xc32/v1.31/bin/../lib/gcc/pic32mx/4.5.2/../../../../pic32mx/lib/mips16/libpic32.a(vector28.o)
 .data          0x00000000        0x0 /opt/microchip/xc32/v1.31/bin/../lib/gcc/pic32mx/4.5.2/../../../../pic32mx/lib/mips16/libpic32.a(vector28.o)
 .bss           0x00000000        0x0 /opt/microchip/xc32/v1.31/bin/../lib/gcc/pic32mx/4.5.2/../../../../pic32mx/lib/mips16/libpic32.a(vector28.o)
 .reginfo       0x00000000       0x18 /opt/microchip/xc32/v1.31/bin/../lib/gcc/pic32mx/4.5.2/../../../../pic32mx/lib/mips16/libpic32.a(vector28.o)
 .text          0x00000000        0x0 /opt/microchip/xc32/v1.31/bin/../lib/gcc/pic32mx/4.5.2/../../../../pic32mx/lib/mips16/libpic32.a(vector29.o)
 .data          0x00000000        0x0 /opt/microchip/xc32/v1.31/bin/../lib/gcc/pic32mx/4.5.2/../../../../pic32mx/lib/mips16/libpic32.a(vector29.o)
 .bss           0x00000000        0x0 /opt/microchip/xc32/v1.31/bin/../lib/gcc/pic32mx/4.5.2/../../../../pic32mx/lib/mips16/libpic32.a(vector29.o)
 .reginfo       0x00000000       0x18 /opt/microchip/xc32/v1.31/bin/../lib/gcc/pic32mx/4.5.2/../../../../pic32mx/lib/mips16/libpic32.a(vector29.o)
 .text          0x00000000        0x0 /opt/microchip/xc32/v1.31/bin/../lib/gcc/pic32mx/4.5.2/../../../../pic32mx/lib/mips16/libpic32.a(vector30.o)
 .data          0x00000000        0x0 /opt/microchip/xc32/v1.31/bin/../lib/gcc/pic32mx/4.5.2/../../../../pic32mx/lib/mips16/libpic32.a(vector30.o)
 .bss           0x00000000        0x0 /opt/microchip/xc32/v1.31/bin/../lib/gcc/pic32mx/4.5.2/../../../../pic32mx/lib/mips16/libpic32.a(vector30.o)
 .reginfo       0x00000000       0x18 /opt/microchip/xc32/v1.31/bin/../lib/gcc/pic32mx/4.5.2/../../../../pic32mx/lib/mips16/libpic32.a(vector30.o)
 .text          0x00000000        0x0 /opt/microchip/xc32/v1.31/bin/../lib/gcc/pic32mx/4.5.2/../../../../pic32mx/lib/mips16/libpic32.a(vector32.o)
 .data          0x00000000        0x0 /opt/microchip/xc32/v1.31/bin/../lib/gcc/pic32mx/4.5.2/../../../../pic32mx/lib/mips16/libpic32.a(vector32.o)
 .bss           0x00000000        0x0 /opt/microchip/xc32/v1.31/bin/../lib/gcc/pic32mx/4.5.2/../../../../pic32mx/lib/mips16/libpic32.a(vector32.o)
 .reginfo       0x00000000       0x18 /opt/microchip/xc32/v1.31/bin/../lib/gcc/pic32mx/4.5.2/../../../../pic32mx/lib/mips16/libpic32.a(vector32.o)
 .text          0x00000000        0x0 /opt/microchip/xc32/v1.31/bin/../lib/gcc/pic32mx/4.5.2/../../../../pic32mx/lib/mips16/libpic32.a(vector33.o)
 .data          0x00000000        0x0 /opt/microchip/xc32/v1.31/bin/../lib/gcc/pic32mx/4.5.2/../../../../pic32mx/lib/mips16/libpic32.a(vector33.o)
 .bss           0x00000000        0x0 /opt/microchip/xc32/v1.31/bin/../lib/gcc/pic32mx/4.5.2/../../../../pic32mx/lib/mips16/libpic32.a(vector33.o)
 .reginfo       0x00000000       0x18 /opt/microchip/xc32/v1.31/bin/../lib/gcc/pic32mx/4.5.2/../../../../pic32mx/lib/mips16/libpic32.a(vector33.o)
 .text          0x00000000        0x0 /opt/microchip/xc32/v1.31/bin/../lib/gcc/pic32mx/4.5.2/../../../../pic32mx/lib/mips16/libpic32.a(vector34.o)
 .data          0x00000000        0x0 /opt/microchip/xc32/v1.31/bin/../lib/gcc/pic32mx/4.5.2/../../../../pic32mx/lib/mips16/libpic32.a(vector34.o)
 .bss           0x00000000        0x0 /opt/microchip/xc32/v1.31/bin/../lib/gcc/pic32mx/4.5.2/../../../../pic32mx/lib/mips16/libpic32.a(vector34.o)
 .reginfo       0x00000000       0x18 /opt/microchip/xc32/v1.31/bin/../lib/gcc/pic32mx/4.5.2/../../../../pic32mx/lib/mips16/libpic32.a(vector34.o)
 .text          0x00000000        0x0 /opt/microchip/xc32/v1.31/bin/../lib/gcc/pic32mx/4.5.2/../../../../pic32mx/lib/mips16/libpic32.a(vector35.o)
 .data          0x00000000        0x0 /opt/microchip/xc32/v1.31/bin/../lib/gcc/pic32mx/4.5.2/../../../../pic32mx/lib/mips16/libpic32.a(vector35.o)
 .bss           0x00000000        0x0 /opt/microchip/xc32/v1.31/bin/../lib/gcc/pic32mx/4.5.2/../../../../pic32mx/lib/mips16/libpic32.a(vector35.o)
 .reginfo       0x00000000       0x18 /opt/microchip/xc32/v1.31/bin/../lib/gcc/pic32mx/4.5.2/../../../../pic32mx/lib/mips16/libpic32.a(vector35.o)
 .text          0x00000000        0x0 /opt/microchip/xc32/v1.31/bin/../lib/gcc/pic32mx/4.5.2/../../../../pic32mx/lib/mips16/libpic32.a(vector37.o)
 .data          0x00000000        0x0 /opt/microchip/xc32/v1.31/bin/../lib/gcc/pic32mx/4.5.2/../../../../pic32mx/lib/mips16/libpic32.a(vector37.o)
 .bss           0x00000000        0x0 /opt/microchip/xc32/v1.31/bin/../lib/gcc/pic32mx/4.5.2/../../../../pic32mx/lib/mips16/libpic32.a(vector37.o)
 .reginfo       0x00000000       0x18 /opt/microchip/xc32/v1.31/bin/../lib/gcc/pic32mx/4.5.2/../../../../pic32mx/lib/mips16/libpic32.a(vector37.o)
 .text          0x00000000        0x0 /opt/microchip/xc32/v1.31/bin/../lib/gcc/pic32mx/4.5.2/../../../../pic32mx/lib/mips16/libpic32.a(vector41.o)
 .data          0x00000000        0x0 /opt/microchip/xc32/v1.31/bin/../lib/gcc/pic32mx/4.5.2/../../../../pic32mx/lib/mips16/libpic32.a(vector41.o)
 .bss           0x00000000        0x0 /opt/microchip/xc32/v1.31/bin/../lib/gcc/pic32mx/4.5.2/../../../../pic32mx/lib/mips16/libpic32.a(vector41.o)
 .reginfo       0x00000000       0x18 /opt/microchip/xc32/v1.31/bin/../lib/gcc/pic32mx/4.5.2/../../../../pic32mx/lib/mips16/libpic32.a(vector41.o)
 .text          0x00000000        0x0 /opt/microchip/xc32/v1.31/bin/../lib/gcc/pic32mx/4.5.2/../../../../pic32mx/lib/mips16/libpic32.a(vector42.o)
 .data          0x00000000        0x0 /opt/microchip/xc32/v1.31/bin/../lib/gcc/pic32mx/4.5.2/../../../../pic32mx/lib/mips16/libpic32.a(vector42.o)
 .bss           0x00000000        0x0 /opt/microchip/xc32/v1.31/bin/../lib/gcc/pic32mx/4.5.2/../../../../pic32mx/lib/mips16/libpic32.a(vector42.o)
 .reginfo       0x00000000       0x18 /opt/microchip/xc32/v1.31/bin/../lib/gcc/pic32mx/4.5.2/../../../../pic32mx/lib/mips16/libpic32.a(vector42.o)
 .text          0x00000000        0x0 /opt/microchip/xc32/v1.31/bin/../lib/gcc/pic32mx/4.5.2/../../../../pic32mx/lib/mips16/libpic32.a(vector43.o)
 .data          0x00000000        0x0 /opt/microchip/xc32/v1.31/bin/../lib/gcc/pic32mx/4.5.2/../../../../pic32mx/lib/mips16/libpic32.a(vector43.o)
 .bss           0x00000000        0x0 /opt/microchip/xc32/v1.31/bin/../lib/gcc/pic32mx/4.5.2/../../../../pic32mx/lib/mips16/libpic32.a(vector43.o)
 .reginfo       0x00000000       0x18 /opt/microchip/xc32/v1.31/bin/../lib/gcc/pic32mx/4.5.2/../../../../pic32mx/lib/mips16/libpic32.a(vector43.o)
 .text          0x00000000        0x0 /opt/microchip/xc32/v1.31/bin/../lib/gcc/pic32mx/4.5.2/../../../../pic32mx/lib/mips16/libpic32.a(vector44.o)
 .data          0x00000000        0x0 /opt/microchip/xc32/v1.31/bin/../lib/gcc/pic32mx/4.5.2/../../../../pic32mx/lib/mips16/libpic32.a(vector44.o)
 .bss           0x00000000        0x0 /opt/microchip/xc32/v1.31/bin/../lib/gcc/pic32mx/4.5.2/../../../../pic32mx/lib/mips16/libpic32.a(vector44.o)
 .reginfo       0x00000000       0x18 /opt/microchip/xc32/v1.31/bin/../lib/gcc/pic32mx/4.5.2/../../../../pic32mx/lib/mips16/libpic32.a(vector44.o)
 .text          0x00000000        0x0 /opt/microchip/xc32/v1.31/bin/../lib/gcc/pic32mx/4.5.2/../../../../pic32mx/lib/mips16/libpic32.a(vector45.o)
 .data          0x00000000        0x0 /opt/microchip/xc32/v1.31/bin/../lib/gcc/pic32mx/4.5.2/../../../../pic32mx/lib/mips16/libpic32.a(vector45.o)
 .bss           0x00000000        0x0 /opt/microchip/xc32/v1.31/bin/../lib/gcc/pic32mx/4.5.2/../../../../pic32mx/lib/mips16/libpic32.a(vector45.o)
 .reginfo       0x00000000       0x18 /opt/microchip/xc32/v1.31/bin/../lib/gcc/pic32mx/4.5.2/../../../../pic32mx/lib/mips16/libpic32.a(vector45.o)
 .text          0x00000000        0x0 /opt/microchip/xc32/v1.31/bin/../lib/gcc/pic32mx/4.5.2/../../../../pic32mx/lib/mips16/libpic32.a(vector46.o)
 .data          0x00000000        0x0 /opt/microchip/xc32/v1.31/bin/../lib/gcc/pic32mx/4.5.2/../../../../pic32mx/lib/mips16/libpic32.a(vector46.o)
 .bss           0x00000000        0x0 /opt/microchip/xc32/v1.31/bin/../lib/gcc/pic32mx/4.5.2/../../../../pic32mx/lib/mips16/libpic32.a(vector46.o)
 .reginfo       0x00000000       0x18 /opt/microchip/xc32/v1.31/bin/../lib/gcc/pic32mx/4.5.2/../../../../pic32mx/lib/mips16/libpic32.a(vector46.o)
 .text          0x00000000        0x0 /opt/microchip/xc32/v1.31/bin/../lib/gcc/pic32mx/4.5.2/../../../../pic32mx/lib/mips16/libpic32.a(vector47.o)
 .data          0x00000000        0x0 /opt/microchip/xc32/v1.31/bin/../lib/gcc/pic32mx/4.5.2/../../../../pic32mx/lib/mips16/libpic32.a(vector47.o)
 .bss           0x00000000        0x0 /opt/microchip/xc32/v1.31/bin/../lib/gcc/pic32mx/4.5.2/../../../../pic32mx/lib/mips16/libpic32.a(vector47.o)
 .reginfo       0x00000000       0x18 /opt/microchip/xc32/v1.31/bin/../lib/gcc/pic32mx/4.5.2/../../../../pic32mx/lib/mips16/libpic32.a(vector47.o)
 .text          0x00000000        0x0 /opt/microchip/xc32/v1.31/bin/../lib/gcc/pic32mx/4.5.2/../../../../pic32mx/lib/mips16/libpic32.a(vector48.o)
 .data          0x00000000        0x0 /opt/microchip/xc32/v1.31/bin/../lib/gcc/pic32mx/4.5.2/../../../../pic32mx/lib/mips16/libpic32.a(vector48.o)
 .bss           0x00000000        0x0 /opt/microchip/xc32/v1.31/bin/../lib/gcc/pic32mx/4.5.2/../../../../pic32mx/lib/mips16/libpic32.a(vector48.o)
 .reginfo       0x00000000       0x18 /opt/microchip/xc32/v1.31/bin/../lib/gcc/pic32mx/4.5.2/../../../../pic32mx/lib/mips16/libpic32.a(vector48.o)
 .text          0x00000000        0x0 /opt/microchip/xc32/v1.31/bin/../lib/gcc/pic32mx/4.5.2/../../../../pic32mx/lib/mips16/libpic32.a(vector49.o)
 .data          0x00000000        0x0 /opt/microchip/xc32/v1.31/bin/../lib/gcc/pic32mx/4.5.2/../../../../pic32mx/lib/mips16/libpic32.a(vector49.o)
 .bss           0x00000000        0x0 /opt/microchip/xc32/v1.31/bin/../lib/gcc/pic32mx/4.5.2/../../../../pic32mx/lib/mips16/libpic32.a(vector49.o)
 .reginfo       0x00000000       0x18 /opt/microchip/xc32/v1.31/bin/../lib/gcc/pic32mx/4.5.2/../../../../pic32mx/lib/mips16/libpic32.a(vector49.o)
 .text          0x00000000        0x0 /opt/microchip/xc32/v1.31/bin/../lib/gcc/pic32mx/4.5.2/../../../../pic32mx/lib/mips16/libpic32.a(vector50.o)
 .data          0x00000000        0x0 /opt/microchip/xc32/v1.31/bin/../lib/gcc/pic32mx/4.5.2/../../../../pic32mx/lib/mips16/libpic32.a(vector50.o)
 .bss           0x00000000        0x0 /opt/microchip/xc32/v1.31/bin/../lib/gcc/pic32mx/4.5.2/../../../../pic32mx/lib/mips16/libpic32.a(vector50.o)
 .reginfo       0x00000000       0x18 /opt/microchip/xc32/v1.31/bin/../lib/gcc/pic32mx/4.5.2/../../../../pic32mx/lib/mips16/libpic32.a(vector50.o)
 .text          0x00000000        0x0 /opt/microchip/xc32/v1.31/bin/../lib/gcc/pic32mx/4.5.2/../../../../pic32mx/lib/mips16/libpic32.a(vector51.o)
 .data          0x00000000        0x0 /opt/microchip/xc32/v1.31/bin/../lib/gcc/pic32mx/4.5.2/../../../../pic32mx/lib/mips16/libpic32.a(vector51.o)
 .bss           0x00000000        0x0 /opt/microchip/xc32/v1.31/bin/../lib/gcc/pic32mx/4.5.2/../../../../pic32mx/lib/mips16/libpic32.a(vector51.o)
 .reginfo       0x00000000       0x18 /opt/microchip/xc32/v1.31/bin/../lib/gcc/pic32mx/4.5.2/../../../../pic32mx/lib/mips16/libpic32.a(vector51.o)
 .text          0x00000000        0x0 /opt/microchip/xc32/v1.31/bin/../lib/gcc/pic32mx/4.5.2/../../../../pic32mx/lib/mips16/libpic32.a(vector52.o)
 .data          0x00000000        0x0 /opt/microchip/xc32/v1.31/bin/../lib/gcc/pic32mx/4.5.2/../../../../pic32mx/lib/mips16/libpic32.a(vector52.o)
 .bss           0x00000000        0x0 /opt/microchip/xc32/v1.31/bin/../lib/gcc/pic32mx/4.5.2/../../../../pic32mx/lib/mips16/libpic32.a(vector52.o)
 .reginfo       0x00000000       0x18 /opt/microchip/xc32/v1.31/bin/../lib/gcc/pic32mx/4.5.2/../../../../pic32mx/lib/mips16/libpic32.a(vector52.o)
 .text          0x00000000        0x0 /opt/microchip/xc32/v1.31/bin/../lib/gcc/pic32mx/4.5.2/../../../../pic32mx/lib/mips16/libpic32.a(vector53.o)
 .data          0x00000000        0x0 /opt/microchip/xc32/v1.31/bin/../lib/gcc/pic32mx/4.5.2/../../../../pic32mx/lib/mips16/libpic32.a(vector53.o)
 .bss           0x00000000        0x0 /opt/microchip/xc32/v1.31/bin/../lib/gcc/pic32mx/4.5.2/../../../../pic32mx/lib/mips16/libpic32.a(vector53.o)
 .reginfo       0x00000000       0x18 /opt/microchip/xc32/v1.31/bin/../lib/gcc/pic32mx/4.5.2/../../../../pic32mx/lib/mips16/libpic32.a(vector53.o)
 .text          0x00000000        0x0 /opt/microchip/xc32/v1.31/bin/../lib/gcc/pic32mx/4.5.2/../../../../pic32mx/lib/mips16/libpic32.a(vector54.o)
 .data          0x00000000        0x0 /opt/microchip/xc32/v1.31/bin/../lib/gcc/pic32mx/4.5.2/../../../../pic32mx/lib/mips16/libpic32.a(vector54.o)
 .bss           0x00000000        0x0 /opt/microchip/xc32/v1.31/bin/../lib/gcc/pic32mx/4.5.2/../../../../pic32mx/lib/mips16/libpic32.a(vector54.o)
 .reginfo       0x00000000       0x18 /opt/microchip/xc32/v1.31/bin/../lib/gcc/pic32mx/4.5.2/../../../../pic32mx/lib/mips16/libpic32.a(vector54.o)
 .text          0x00000000        0x0 /opt/microchip/xc32/v1.31/bin/../lib/gcc/pic32mx/4.5.2/../../../../pic32mx/lib/mips16/libpic32.a(vector55.o)
 .data          0x00000000        0x0 /opt/microchip/xc32/v1.31/bin/../lib/gcc/pic32mx/4.5.2/../../../../pic32mx/lib/mips16/libpic32.a(vector55.o)
 .bss           0x00000000        0x0 /opt/microchip/xc32/v1.31/bin/../lib/gcc/pic32mx/4.5.2/../../../../pic32mx/lib/mips16/libpic32.a(vector55.o)
 .reginfo       0x00000000       0x18 /opt/microchip/xc32/v1.31/bin/../lib/gcc/pic32mx/4.5.2/../../../../pic32mx/lib/mips16/libpic32.a(vector55.o)
 .text          0x00000000        0x0 /opt/microchip/xc32/v1.31/bin/../lib/gcc/pic32mx/4.5.2/../../../../pic32mx/lib/mips16/libpic32.a(vector56.o)
 .data          0x00000000        0x0 /opt/microchip/xc32/v1.31/bin/../lib/gcc/pic32mx/4.5.2/../../../../pic32mx/lib/mips16/libpic32.a(vector56.o)
 .bss           0x00000000        0x0 /opt/microchip/xc32/v1.31/bin/../lib/gcc/pic32mx/4.5.2/../../../../pic32mx/lib/mips16/libpic32.a(vector56.o)
 .reginfo       0x00000000       0x18 /opt/microchip/xc32/v1.31/bin/../lib/gcc/pic32mx/4.5.2/../../../../pic32mx/lib/mips16/libpic32.a(vector56.o)
 .text          0x00000000        0x0 /opt/microchip/xc32/v1.31/bin/../lib/gcc/pic32mx/4.5.2/../../../../pic32mx/lib/mips16/libpic32.a(vector57.o)
 .data          0x00000000        0x0 /opt/microchip/xc32/v1.31/bin/../lib/gcc/pic32mx/4.5.2/../../../../pic32mx/lib/mips16/libpic32.a(vector57.o)
 .bss           0x00000000        0x0 /opt/microchip/xc32/v1.31/bin/../lib/gcc/pic32mx/4.5.2/../../../../pic32mx/lib/mips16/libpic32.a(vector57.o)
 .reginfo       0x00000000       0x18 /opt/microchip/xc32/v1.31/bin/../lib/gcc/pic32mx/4.5.2/../../../../pic32mx/lib/mips16/libpic32.a(vector57.o)
 .text          0x00000000        0x0 /opt/microchip/xc32/v1.31/bin/../lib/gcc/pic32mx/4.5.2/../../../../pic32mx/lib/mips16/libpic32.a(vector58.o)
 .data          0x00000000        0x0 /opt/microchip/xc32/v1.31/bin/../lib/gcc/pic32mx/4.5.2/../../../../pic32mx/lib/mips16/libpic32.a(vector58.o)
 .bss           0x00000000        0x0 /opt/microchip/xc32/v1.31/bin/../lib/gcc/pic32mx/4.5.2/../../../../pic32mx/lib/mips16/libpic32.a(vector58.o)
 .reginfo       0x00000000       0x18 /opt/microchip/xc32/v1.31/bin/../lib/gcc/pic32mx/4.5.2/../../../../pic32mx/lib/mips16/libpic32.a(vector58.o)
 .text          0x00000000        0x0 /opt/microchip/xc32/v1.31/bin/../lib/gcc/pic32mx/4.5.2/../../../../pic32mx/lib/mips16/libpic32.a(vector59.o)
 .data          0x00000000        0x0 /opt/microchip/xc32/v1.31/bin/../lib/gcc/pic32mx/4.5.2/../../../../pic32mx/lib/mips16/libpic32.a(vector59.o)
 .bss           0x00000000        0x0 /opt/microchip/xc32/v1.31/bin/../lib/gcc/pic32mx/4.5.2/../../../../pic32mx/lib/mips16/libpic32.a(vector59.o)
 .reginfo       0x00000000       0x18 /opt/microchip/xc32/v1.31/bin/../lib/gcc/pic32mx/4.5.2/../../../../pic32mx/lib/mips16/libpic32.a(vector59.o)
 .text          0x00000000        0x0 /opt/microchip/xc32/v1.31/bin/../lib/gcc/pic32mx/4.5.2/../../../../pic32mx/lib/mips16/libpic32.a(vector60.o)
 .data          0x00000000        0x0 /opt/microchip/xc32/v1.31/bin/../lib/gcc/pic32mx/4.5.2/../../../../pic32mx/lib/mips16/libpic32.a(vector60.o)
 .bss           0x00000000        0x0 /opt/microchip/xc32/v1.31/bin/../lib/gcc/pic32mx/4.5.2/../../../../pic32mx/lib/mips16/libpic32.a(vector60.o)
 .reginfo       0x00000000       0x18 /opt/microchip/xc32/v1.31/bin/../lib/gcc/pic32mx/4.5.2/../../../../pic32mx/lib/mips16/libpic32.a(vector60.o)
 .text          0x00000000        0x0 /opt/microchip/xc32/v1.31/bin/../lib/gcc/pic32mx/4.5.2/../../../../pic32mx/lib/mips16/libpic32.a(vector61.o)
 .data          0x00000000        0x0 /opt/microchip/xc32/v1.31/bin/../lib/gcc/pic32mx/4.5.2/../../../../pic32mx/lib/mips16/libpic32.a(vector61.o)
 .bss           0x00000000        0x0 /opt/microchip/xc32/v1.31/bin/../lib/gcc/pic32mx/4.5.2/../../../../pic32mx/lib/mips16/libpic32.a(vector61.o)
 .reginfo       0x00000000       0x18 /opt/microchip/xc32/v1.31/bin/../lib/gcc/pic32mx/4.5.2/../../../../pic32mx/lib/mips16/libpic32.a(vector61.o)
 .text          0x00000000        0x0 /opt/microchip/xc32/v1.31/bin/../lib/gcc/pic32mx/4.5.2/../../../../pic32mx/lib/mips16/libpic32.a(vector62.o)
 .data          0x00000000        0x0 /opt/microchip/xc32/v1.31/bin/../lib/gcc/pic32mx/4.5.2/../../../../pic32mx/lib/mips16/libpic32.a(vector62.o)
 .bss           0x00000000        0x0 /opt/microchip/xc32/v1.31/bin/../lib/gcc/pic32mx/4.5.2/../../../../pic32mx/lib/mips16/libpic32.a(vector62.o)
 .reginfo       0x00000000       0x18 /opt/microchip/xc32/v1.31/bin/../lib/gcc/pic32mx/4.5.2/../../../../pic32mx/lib/mips16/libpic32.a(vector62.o)
 .text          0x00000000        0x0 /opt/microchip/xc32/v1.31/bin/../lib/gcc/pic32mx/4.5.2/../../../../pic32mx/lib/mips16/libpic32.a(vector63.o)
 .data          0x00000000        0x0 /opt/microchip/xc32/v1.31/bin/../lib/gcc/pic32mx/4.5.2/../../../../pic32mx/lib/mips16/libpic32.a(vector63.o)
 .bss           0x00000000        0x0 /opt/microchip/xc32/v1.31/bin/../lib/gcc/pic32mx/4.5.2/../../../../pic32mx/lib/mips16/libpic32.a(vector63.o)
 .reginfo       0x00000000       0x18 /opt/microchip/xc32/v1.31/bin/../lib/gcc/pic32mx/4.5.2/../../../../pic32mx/lib/mips16/libpic32.a(vector63.o)
 .data          0x00000000        0x0 /opt/microchip/xc32/v1.31/bin/../lib/gcc/pic32mx/4.5.2/../../../../pic32mx/lib/mips16/libm.a(mod32.o)
 .bss           0x00000000        0x0 /opt/microchip/xc32/v1.31/bin/../lib/gcc/pic32mx/4.5.2/../../../../pic32mx/lib/mips16/libm.a(mod32.o)
 .reginfo       0x00000000       0x18 /opt/microchip/xc32/v1.31/bin/../lib/gcc/pic32mx/4.5.2/../../../../pic32mx/lib/mips16/libm.a(mod32.o)
 .text          0x00000000        0x0 /opt/microchip/xc32/v1.31/bin/../lib/gcc/pic32mx/4.5.2/../../../../pic32mx/lib/mips16/libm.a(w_pow.o)
 .data          0x00000000        0x0 /opt/microchip/xc32/v1.31/bin/../lib/gcc/pic32mx/4.5.2/../../../../pic32mx/lib/mips16/libm.a(w_pow.o)
 .bss           0x00000000        0x0 /opt/microchip/xc32/v1.31/bin/../lib/gcc/pic32mx/4.5.2/../../../../pic32mx/lib/mips16/libm.a(w_pow.o)
 .reginfo       0x00000000       0x18 /opt/microchip/xc32/v1.31/bin/../lib/gcc/pic32mx/4.5.2/../../../../pic32mx/lib/mips16/libm.a(w_pow.o)
 .text          0x00000000        0x0 /opt/microchip/xc32/v1.31/bin/../lib/gcc/pic32mx/4.5.2/../../../../pic32mx/lib/mips16/libm.a(w_log10.o)
 .data          0x00000000        0x0 /opt/microchip/xc32/v1.31/bin/../lib/gcc/pic32mx/4.5.2/../../../../pic32mx/lib/mips16/libm.a(w_log10.o)
 .bss           0x00000000        0x0 /opt/microchip/xc32/v1.31/bin/../lib/gcc/pic32mx/4.5.2/../../../../pic32mx/lib/mips16/libm.a(w_log10.o)
 .reginfo       0x00000000       0x18 /opt/microchip/xc32/v1.31/bin/../lib/gcc/pic32mx/4.5.2/../../../../pic32mx/lib/mips16/libm.a(w_log10.o)
 .text          0x00000000        0x0 /opt/microchip/xc32/v1.31/bin/../lib/gcc/pic32mx/4.5.2/../../../../pic32mx/lib/mips16/libm.a(floor.o)
 .data          0x00000000        0x0 /opt/microchip/xc32/v1.31/bin/../lib/gcc/pic32mx/4.5.2/../../../../pic32mx/lib/mips16/libm.a(floor.o)
 .bss           0x00000000        0x0 /opt/microchip/xc32/v1.31/bin/../lib/gcc/pic32mx/4.5.2/../../../../pic32mx/lib/mips16/libm.a(floor.o)
 .reginfo       0x00000000       0x18 /opt/microchip/xc32/v1.31/bin/../lib/gcc/pic32mx/4.5.2/../../../../pic32mx/lib/mips16/libm.a(floor.o)
 .text.rint     0x00000000       0x14 /opt/microchip/xc32/v1.31/bin/../lib/gcc/pic32mx/4.5.2/../../../../pic32mx/lib/mips16/libm.a(floor.o)
 .text.rintf    0x00000000       0x14 /opt/microchip/xc32/v1.31/bin/../lib/gcc/pic32mx/4.5.2/../../../../pic32mx/lib/mips16/libm.a(floor.o)
 .data          0x00000000        0x0 /opt/microchip/xc32/v1.31/bin/../lib/gcc/pic32mx/4.5.2/../../../../pic32mx/lib/mips16/libm.a(ceil32.o)
 .bss           0x00000000        0x0 /opt/microchip/xc32/v1.31/bin/../lib/gcc/pic32mx/4.5.2/../../../../pic32mx/lib/mips16/libm.a(ceil32.o)
 .reginfo       0x00000000       0x18 /opt/microchip/xc32/v1.31/bin/../lib/gcc/pic32mx/4.5.2/../../../../pic32mx/lib/mips16/libm.a(ceil32.o)
 .data          0x00000000        0x0 /opt/microchip/xc32/v1.31/bin/../lib/gcc/pic32mx/4.5.2/../../../../pic32mx/lib/mips16/libm.a(dp32.o)
 .bss           0x00000000        0x0 /opt/microchip/xc32/v1.31/bin/../lib/gcc/pic32mx/4.5.2/../../../../pic32mx/lib/mips16/libm.a(dp32.o)
 .reginfo       0x00000000       0x18 /opt/microchip/xc32/v1.31/bin/../lib/gcc/pic32mx/4.5.2/../../../../pic32mx/lib/mips16/libm.a(dp32.o)
 .text          0x00000000        0x0 /opt/microchip/xc32/v1.31/bin/../lib/gcc/pic32mx/4.5.2/../../../../pic32mx/lib/mips16/libm.a(w_sqrt.o)
 .data          0x00000000        0x0 /opt/microchip/xc32/v1.31/bin/../lib/gcc/pic32mx/4.5.2/../../../../pic32mx/lib/mips16/libm.a(w_sqrt.o)
 .bss           0x00000000        0x0 /opt/microchip/xc32/v1.31/bin/../lib/gcc/pic32mx/4.5.2/../../../../pic32mx/lib/mips16/libm.a(w_sqrt.o)
 .reginfo       0x00000000       0x18 /opt/microchip/xc32/v1.31/bin/../lib/gcc/pic32mx/4.5.2/../../../../pic32mx/lib/mips16/libm.a(w_sqrt.o)
 .data          0x00000000        0x0 /opt/microchip/xc32/v1.31/bin/../lib/gcc/pic32mx/4.5.2/../../../../pic32mx/lib/mips16/libm.a(fp32.o)
 .bss           0x00000000        0x0 /opt/microchip/xc32/v1.31/bin/../lib/gcc/pic32mx/4.5.2/../../../../pic32mx/lib/mips16/libm.a(fp32.o)
 .reginfo       0x00000000       0x18 /opt/microchip/xc32/v1.31/bin/../lib/gcc/pic32mx/4.5.2/../../../../pic32mx/lib/mips16/libm.a(fp32.o)
 .text          0x00000000        0x0 /opt/microchip/xc32/v1.31/bin/../lib/gcc/pic32mx/4.5.2/../../../../pic32mx/lib/mips16/libm.a(s_lib_ver.o)
 .data          0x00000000        0x0 /opt/microchip/xc32/v1.31/bin/../lib/gcc/pic32mx/4.5.2/../../../../pic32mx/lib/mips16/libm.a(s_lib_ver.o)
 .bss           0x00000000        0x0 /opt/microchip/xc32/v1.31/bin/../lib/gcc/pic32mx/4.5.2/../../../../pic32mx/lib/mips16/libm.a(s_lib_ver.o)
 .reginfo       0x00000000       0x18 /opt/microchip/xc32/v1.31/bin/../lib/gcc/pic32mx/4.5.2/../../../../pic32mx/lib/mips16/libm.a(s_lib_ver.o)
 .text          0x00000000        0x0 /opt/microchip/xc32/v1.31/bin/../lib/gcc/pic32mx/4.5.2/../../../../pic32mx/lib/mips16/libm.a(support.o)
 .data          0x00000000        0x0 /opt/microchip/xc32/v1.31/bin/../lib/gcc/pic32mx/4.5.2/../../../../pic32mx/lib/mips16/libm.a(support.o)
 .bss           0x00000000        0x0 /opt/microchip/xc32/v1.31/bin/../lib/gcc/pic32mx/4.5.2/../../../../pic32mx/lib/mips16/libm.a(support.o)
 .reginfo       0x00000000       0x18 /opt/microchip/xc32/v1.31/bin/../lib/gcc/pic32mx/4.5.2/../../../../pic32mx/lib/mips16/libm.a(support.o)
 .text.copysign
                0x00000000       0x14 /opt/microchip/xc32/v1.31/bin/../lib/gcc/pic32mx/4.5.2/../../../../pic32mx/lib/mips16/libm.a(support.o)
 .text.copysignf
                0x00000000       0x14 /opt/microchip/xc32/v1.31/bin/../lib/gcc/pic32mx/4.5.2/../../../../pic32mx/lib/mips16/libm.a(support.o)
 .text.logbl    0x00000000       0xa0 /opt/microchip/xc32/v1.31/bin/../lib/gcc/pic32mx/4.5.2/../../../../pic32mx/lib/mips16/libm.a(support.o)
 .text.logb     0x00000000       0x14 /opt/microchip/xc32/v1.31/bin/../lib/gcc/pic32mx/4.5.2/../../../../pic32mx/lib/mips16/libm.a(support.o)
 .text.logbf    0x00000000       0x14 /opt/microchip/xc32/v1.31/bin/../lib/gcc/pic32mx/4.5.2/../../../../pic32mx/lib/mips16/libm.a(support.o)
 .text.finitel  0x00000000       0x1c /opt/microchip/xc32/v1.31/bin/../lib/gcc/pic32mx/4.5.2/../../../../pic32mx/lib/mips16/libm.a(support.o)
 .text.finite   0x00000000        0xc /opt/microchip/xc32/v1.31/bin/../lib/gcc/pic32mx/4.5.2/../../../../pic32mx/lib/mips16/libm.a(support.o)
 .text.finitef  0x00000000        0xc /opt/microchip/xc32/v1.31/bin/../lib/gcc/pic32mx/4.5.2/../../../../pic32mx/lib/mips16/libm.a(support.o)
 .text.dreml    0x00000000      0x2d8 /opt/microchip/xc32/v1.31/bin/../lib/gcc/pic32mx/4.5.2/../../../../pic32mx/lib/mips16/libm.a(support.o)
 .text.drem     0x00000000       0x14 /opt/microchip/xc32/v1.31/bin/../lib/gcc/pic32mx/4.5.2/../../../../pic32mx/lib/mips16/libm.a(support.o)
 .text.dremf    0x00000000       0x14 /opt/microchip/xc32/v1.31/bin/../lib/gcc/pic32mx/4.5.2/../../../../pic32mx/lib/mips16/libm.a(support.o)
 .text          0x00000000        0x0 /opt/microchip/xc32/v1.31/bin/../lib/gcc/pic32mx/4.5.2/../../../../pic32mx/lib/mips16/libm.a(w_ldexp.o)
 .data          0x00000000        0x0 /opt/microchip/xc32/v1.31/bin/../lib/gcc/pic32mx/4.5.2/../../../../pic32mx/lib/mips16/libm.a(w_ldexp.o)
 .bss           0x00000000        0x0 /opt/microchip/xc32/v1.31/bin/../lib/gcc/pic32mx/4.5.2/../../../../pic32mx/lib/mips16/libm.a(w_ldexp.o)
 .reginfo       0x00000000       0x18 /opt/microchip/xc32/v1.31/bin/../lib/gcc/pic32mx/4.5.2/../../../../pic32mx/lib/mips16/libm.a(w_ldexp.o)
 .text.ldexp    0x00000000       0x38 /opt/microchip/xc32/v1.31/bin/../lib/gcc/pic32mx/4.5.2/../../../../pic32mx/lib/mips16/libm.a(w_ldexp.o)
 .data          0x00000000        0x0 /opt/microchip/xc32/v1.31/bin/../lib/gcc/pic32mx/4.5.2/../../../../pic32mx/lib/mips16/libm.a(pow32.o)
 .bss           0x00000000        0x0 /opt/microchip/xc32/v1.31/bin/../lib/gcc/pic32mx/4.5.2/../../../../pic32mx/lib/mips16/libm.a(pow32.o)
 .reginfo       0x00000000       0x18 /opt/microchip/xc32/v1.31/bin/../lib/gcc/pic32mx/4.5.2/../../../../pic32mx/lib/mips16/libm.a(pow32.o)
 .bss           0x00000000        0x0 /opt/microchip/xc32/v1.31/bin/../lib/gcc/pic32mx/4.5.2/../../../../pic32mx/lib/mips16/libm.a(log32.o)
 .reginfo       0x00000000       0x18 /opt/microchip/xc32/v1.31/bin/../lib/gcc/pic32mx/4.5.2/../../../../pic32mx/lib/mips16/libm.a(log32.o)
 .data          0x00000000        0x0 /opt/microchip/xc32/v1.31/bin/../lib/gcc/pic32mx/4.5.2/../../../../pic32mx/lib/mips16/libm.a(func32.o)
 .bss           0x00000000        0x0 /opt/microchip/xc32/v1.31/bin/../lib/gcc/pic32mx/4.5.2/../../../../pic32mx/lib/mips16/libm.a(func32.o)
 .reginfo       0x00000000       0x18 /opt/microchip/xc32/v1.31/bin/../lib/gcc/pic32mx/4.5.2/../../../../pic32mx/lib/mips16/libm.a(func32.o)
 .data          0x00000000        0x0 /opt/microchip/xc32/v1.31/bin/../lib/gcc/pic32mx/4.5.2/../../../../pic32mx/lib/mips16/libm.a(sqrt32.o)
 .bss           0x00000000        0x0 /opt/microchip/xc32/v1.31/bin/../lib/gcc/pic32mx/4.5.2/../../../../pic32mx/lib/mips16/libm.a(sqrt32.o)
 .reginfo       0x00000000       0x18 /opt/microchip/xc32/v1.31/bin/../lib/gcc/pic32mx/4.5.2/../../../../pic32mx/lib/mips16/libm.a(sqrt32.o)
 .bss           0x00000000        0x0 /opt/microchip/xc32/v1.31/bin/../lib/gcc/pic32mx/4.5.2/../../../../pic32mx/lib/mips16/libm.a(exp32.o)
 .reginfo       0x00000000       0x18 /opt/microchip/xc32/v1.31/bin/../lib/gcc/pic32mx/4.5.2/../../../../pic32mx/lib/mips16/libm.a(exp32.o)
 .text          0x00000000        0x0 /opt/microchip/xc32/v1.31/bin/../lib/gcc/pic32mx/4.5.2/../../../../pic32mx/lib/mips16/libe.a(_unorddf2.o)
 .data          0x00000000        0x0 /opt/microchip/xc32/v1.31/bin/../lib/gcc/pic32mx/4.5.2/../../../../pic32mx/lib/mips16/libe.a(_unorddf2.o)
 .bss           0x00000000        0x0 /opt/microchip/xc32/v1.31/bin/../lib/gcc/pic32mx/4.5.2/../../../../pic32mx/lib/mips16/libe.a(_unorddf2.o)
 .reginfo       0x00000000       0x18 /opt/microchip/xc32/v1.31/bin/../lib/gcc/pic32mx/4.5.2/../../../../pic32mx/lib/mips16/libe.a(_unorddf2.o)
 .text          0x00000000        0x0 /opt/microchip/xc32/v1.31/bin/../lib/gcc/pic32mx/4.5.2/../../../../pic32mx/lib/mips16/libpic32.a(errno.o)
 .data          0x00000000        0x0 /opt/microchip/xc32/v1.31/bin/../lib/gcc/pic32mx/4.5.2/../../../../pic32mx/lib/mips16/libpic32.a(errno.o)
 .bss           0x00000000        0x0 /opt/microchip/xc32/v1.31/bin/../lib/gcc/pic32mx/4.5.2/../../../../pic32mx/lib/mips16/libpic32.a(errno.o)
 .reginfo       0x00000000       0x18 /opt/microchip/xc32/v1.31/bin/../lib/gcc/pic32mx/4.5.2/../../../../pic32mx/lib/mips16/libpic32.a(errno.o)
 .text          0x00000000        0x0 /opt/microchip/xc32/v1.31/bin/../lib/gcc/pic32mx/4.5.2/../../../../pic32mx/lib/mips16/libpic32.a(isinf.o)
 .data          0x00000000        0x0 /opt/microchip/xc32/v1.31/bin/../lib/gcc/pic32mx/4.5.2/../../../../pic32mx/lib/mips16/libpic32.a(isinf.o)
 .bss           0x00000000        0x0 /opt/microchip/xc32/v1.31/bin/../lib/gcc/pic32mx/4.5.2/../../../../pic32mx/lib/mips16/libpic32.a(isinf.o)
 .reginfo       0x00000000       0x18 /opt/microchip/xc32/v1.31/bin/../lib/gcc/pic32mx/4.5.2/../../../../pic32mx/lib/mips16/libpic32.a(isinf.o)
 .text.isnanl   0x00000000       0x28 /opt/microchip/xc32/v1.31/bin/../lib/gcc/pic32mx/4.5.2/../../../../pic32mx/lib/mips16/libpic32.a(isinf.o)
 .text.isnan    0x00000000       0x20 /opt/microchip/xc32/v1.31/bin/../lib/gcc/pic32mx/4.5.2/../../../../pic32mx/lib/mips16/libpic32.a(isinf.o)
 .text.isnanf   0x00000000       0x20 /opt/microchip/xc32/v1.31/bin/../lib/gcc/pic32mx/4.5.2/../../../../pic32mx/lib/mips16/libpic32.a(isinf.o)
 .text.isinf    0x00000000       0x48 /opt/microchip/xc32/v1.31/bin/../lib/gcc/pic32mx/4.5.2/../../../../pic32mx/lib/mips16/libpic32.a(isinf.o)
 .text.isinff   0x00000000       0x48 /opt/microchip/xc32/v1.31/bin/../lib/gcc/pic32mx/4.5.2/../../../../pic32mx/lib/mips16/libpic32.a(isinf.o)
 .text          0x00000000        0x0 /opt/microchip/xc32/v1.31/bin/../lib/gcc/pic32mx/4.5.2/../../../../pic32mx/lib/mips16/libc.a(_iob.o)
 .reginfo       0x00000000       0x18 /opt/microchip/xc32/v1.31/bin/../lib/gcc/pic32mx/4.5.2/../../../../pic32mx/lib/mips16/libc.a(_iob.o)
 .text          0x00000000        0x0 /opt/microchip/xc32/v1.31/bin/../lib/gcc/pic32mx/4.5.2/../../../../pic32mx/lib/mips16/libc.a(fwrite.o)
 .data          0x00000000        0x0 /opt/microchip/xc32/v1.31/bin/../lib/gcc/pic32mx/4.5.2/../../../../pic32mx/lib/mips16/libc.a(fwrite.o)
 .bss           0x00000000        0x0 /opt/microchip/xc32/v1.31/bin/../lib/gcc/pic32mx/4.5.2/../../../../pic32mx/lib/mips16/libc.a(fwrite.o)
 .reginfo       0x00000000       0x18 /opt/microchip/xc32/v1.31/bin/../lib/gcc/pic32mx/4.5.2/../../../../pic32mx/lib/mips16/libc.a(fwrite.o)
 .text          0x00000000        0x0 /opt/microchip/xc32/v1.31/bin/../lib/gcc/pic32mx/4.5.2/../../../../pic32mx/lib/mips16/libc.a(ctype.o)
 .data          0x00000000        0x0 /opt/microchip/xc32/v1.31/bin/../lib/gcc/pic32mx/4.5.2/../../../../pic32mx/lib/mips16/libc.a(ctype.o)
 .bss           0x00000000        0x0 /opt/microchip/xc32/v1.31/bin/../lib/gcc/pic32mx/4.5.2/../../../../pic32mx/lib/mips16/libc.a(ctype.o)
 .reginfo       0x00000000       0x18 /opt/microchip/xc32/v1.31/bin/../lib/gcc/pic32mx/4.5.2/../../../../pic32mx/lib/mips16/libc.a(ctype.o)
 .text          0x00000000        0x0 /opt/microchip/xc32/v1.31/bin/../lib/gcc/pic32mx/4.5.2/../../../../pic32mx/lib/mips16/libc.a(ctypef.o)
 .data          0x00000000        0x0 /opt/microchip/xc32/v1.31/bin/../lib/gcc/pic32mx/4.5.2/../../../../pic32mx/lib/mips16/libc.a(ctypef.o)
 .bss           0x00000000        0x0 /opt/microchip/xc32/v1.31/bin/../lib/gcc/pic32mx/4.5.2/../../../../pic32mx/lib/mips16/libc.a(ctypef.o)
 .reginfo       0x00000000       0x18 /opt/microchip/xc32/v1.31/bin/../lib/gcc/pic32mx/4.5.2/../../../../pic32mx/lib/mips16/libc.a(ctypef.o)
 .text.isalnum  0x00000000       0x10 /opt/microchip/xc32/v1.31/bin/../lib/gcc/pic32mx/4.5.2/../../../../pic32mx/lib/mips16/libc.a(ctypef.o)
 .text.isalpha  0x00000000       0x10 /opt/microchip/xc32/v1.31/bin/../lib/gcc/pic32mx/4.5.2/../../../../pic32mx/lib/mips16/libc.a(ctypef.o)
 .text.isascii  0x00000000        0x8 /opt/microchip/xc32/v1.31/bin/../lib/gcc/pic32mx/4.5.2/../../../../pic32mx/lib/mips16/libc.a(ctypef.o)
 .text.iscntrl  0x00000000       0x10 /opt/microchip/xc32/v1.31/bin/../lib/gcc/pic32mx/4.5.2/../../../../pic32mx/lib/mips16/libc.a(ctypef.o)
 .text.isdigit  0x00000000       0x10 /opt/microchip/xc32/v1.31/bin/../lib/gcc/pic32mx/4.5.2/../../../../pic32mx/lib/mips16/libc.a(ctypef.o)
 .text.isgraph  0x00000000       0x10 /opt/microchip/xc32/v1.31/bin/../lib/gcc/pic32mx/4.5.2/../../../../pic32mx/lib/mips16/libc.a(ctypef.o)
 .text.islower  0x00000000       0x10 /opt/microchip/xc32/v1.31/bin/../lib/gcc/pic32mx/4.5.2/../../../../pic32mx/lib/mips16/libc.a(ctypef.o)
 .text.isprint  0x00000000       0x10 /opt/microchip/xc32/v1.31/bin/../lib/gcc/pic32mx/4.5.2/../../../../pic32mx/lib/mips16/libc.a(ctypef.o)
 .text.ispunct  0x00000000       0x10 /opt/microchip/xc32/v1.31/bin/../lib/gcc/pic32mx/4.5.2/../../../../pic32mx/lib/mips16/libc.a(ctypef.o)
 .text.isspace  0x00000000       0x10 /opt/microchip/xc32/v1.31/bin/../lib/gcc/pic32mx/4.5.2/../../../../pic32mx/lib/mips16/libc.a(ctypef.o)
 .text.isupper  0x00000000       0x10 /opt/microchip/xc32/v1.31/bin/../lib/gcc/pic32mx/4.5.2/../../../../pic32mx/lib/mips16/libc.a(ctypef.o)
 .text.isxdigit
                0x00000000       0x10 /opt/microchip/xc32/v1.31/bin/../lib/gcc/pic32mx/4.5.2/../../../../pic32mx/lib/mips16/libc.a(ctypef.o)
 .text.toascii  0x00000000        0x8 /opt/microchip/xc32/v1.31/bin/../lib/gcc/pic32mx/4.5.2/../../../../pic32mx/lib/mips16/libc.a(ctypef.o)
 .text._tolower
                0x00000000        0x8 /opt/microchip/xc32/v1.31/bin/../lib/gcc/pic32mx/4.5.2/../../../../pic32mx/lib/mips16/libc.a(ctypef.o)
 .text._toupper
                0x00000000        0x8 /opt/microchip/xc32/v1.31/bin/../lib/gcc/pic32mx/4.5.2/../../../../pic32mx/lib/mips16/libc.a(ctypef.o)
 .text          0x00000000        0x0 /opt/microchip/xc32/v1.31/bin/../lib/gcc/pic32mx/4.5.2/../../../../pic32mx/lib/mips16/libc.a(memcmp.o)
 .data          0x00000000        0x0 /opt/microchip/xc32/v1.31/bin/../lib/gcc/pic32mx/4.5.2/../../../../pic32mx/lib/mips16/libc.a(memcmp.o)
 .bss           0x00000000        0x0 /opt/microchip/xc32/v1.31/bin/../lib/gcc/pic32mx/4.5.2/../../../../pic32mx/lib/mips16/libc.a(memcmp.o)
 .reginfo       0x00000000       0x18 /opt/microchip/xc32/v1.31/bin/../lib/gcc/pic32mx/4.5.2/../../../../pic32mx/lib/mips16/libc.a(memcmp.o)
 .text          0x00000000        0x0 /opt/microchip/xc32/v1.31/bin/../lib/gcc/pic32mx/4.5.2/../../../../pic32mx/lib/mips16/libc.a(memcpy.o)
 .data          0x00000000        0x0 /opt/microchip/xc32/v1.31/bin/../lib/gcc/pic32mx/4.5.2/../../../../pic32mx/lib/mips16/libc.a(memcpy.o)
 .bss           0x00000000        0x0 /opt/microchip/xc32/v1.31/bin/../lib/gcc/pic32mx/4.5.2/../../../../pic32mx/lib/mips16/libc.a(memcpy.o)
 .reginfo       0x00000000       0x18 /opt/microchip/xc32/v1.31/bin/../lib/gcc/pic32mx/4.5.2/../../../../pic32mx/lib/mips16/libc.a(memcpy.o)
 .text          0x00000000        0x0 /opt/microchip/xc32/v1.31/bin/../lib/gcc/pic32mx/4.5.2/../../../../pic32mx/lib/mips16/libc.a(memmove.o)
 .data          0x00000000        0x0 /opt/microchip/xc32/v1.31/bin/../lib/gcc/pic32mx/4.5.2/../../../../pic32mx/lib/mips16/libc.a(memmove.o)
 .bss           0x00000000        0x0 /opt/microchip/xc32/v1.31/bin/../lib/gcc/pic32mx/4.5.2/../../../../pic32mx/lib/mips16/libc.a(memmove.o)
 .reginfo       0x00000000       0x18 /opt/microchip/xc32/v1.31/bin/../lib/gcc/pic32mx/4.5.2/../../../../pic32mx/lib/mips16/libc.a(memmove.o)
 .text          0x00000000        0x0 /opt/microchip/xc32/v1.31/bin/../lib/gcc/pic32mx/4.5.2/../../../../pic32mx/lib/mips16/libc.a(memset.o)
 .data          0x00000000        0x0 /opt/microchip/xc32/v1.31/bin/../lib/gcc/pic32mx/4.5.2/../../../../pic32mx/lib/mips16/libc.a(memset.o)
 .bss           0x00000000        0x0 /opt/microchip/xc32/v1.31/bin/../lib/gcc/pic32mx/4.5.2/../../../../pic32mx/lib/mips16/libc.a(memset.o)
 .reginfo       0x00000000       0x18 /opt/microchip/xc32/v1.31/bin/../lib/gcc/pic32mx/4.5.2/../../../../pic32mx/lib/mips16/libc.a(memset.o)
 .text          0x00000000        0x0 /opt/microchip/xc32/v1.31/bin/../lib/gcc/pic32mx/4.5.2/../../../../pic32mx/lib/mips16/libc.a(puts.o)
 .data          0x00000000        0x0 /opt/microchip/xc32/v1.31/bin/../lib/gcc/pic32mx/4.5.2/../../../../pic32mx/lib/mips16/libc.a(puts.o)
 .bss           0x00000000        0x0 /opt/microchip/xc32/v1.31/bin/../lib/gcc/pic32mx/4.5.2/../../../../pic32mx/lib/mips16/libc.a(puts.o)
 .reginfo       0x00000000       0x18 /opt/microchip/xc32/v1.31/bin/../lib/gcc/pic32mx/4.5.2/../../../../pic32mx/lib/mips16/libc.a(puts.o)
 .text          0x00000000        0x0 /opt/microchip/xc32/v1.31/bin/../lib/gcc/pic32mx/4.5.2/../../../../pic32mx/lib/mips16/libc.a(strchr.o)
 .data          0x00000000        0x0 /opt/microchip/xc32/v1.31/bin/../lib/gcc/pic32mx/4.5.2/../../../../pic32mx/lib/mips16/libc.a(strchr.o)
 .bss           0x00000000        0x0 /opt/microchip/xc32/v1.31/bin/../lib/gcc/pic32mx/4.5.2/../../../../pic32mx/lib/mips16/libc.a(strchr.o)
 .reginfo       0x00000000       0x18 /opt/microchip/xc32/v1.31/bin/../lib/gcc/pic32mx/4.5.2/../../../../pic32mx/lib/mips16/libc.a(strchr.o)
 .text          0x00000000        0x0 /opt/microchip/xc32/v1.31/bin/../lib/gcc/pic32mx/4.5.2/../../../../pic32mx/lib/mips16/libc.a(strlen.o)
 .data          0x00000000        0x0 /opt/microchip/xc32/v1.31/bin/../lib/gcc/pic32mx/4.5.2/../../../../pic32mx/lib/mips16/libc.a(strlen.o)
 .bss           0x00000000        0x0 /opt/microchip/xc32/v1.31/bin/../lib/gcc/pic32mx/4.5.2/../../../../pic32mx/lib/mips16/libc.a(strlen.o)
 .reginfo       0x00000000       0x18 /opt/microchip/xc32/v1.31/bin/../lib/gcc/pic32mx/4.5.2/../../../../pic32mx/lib/mips16/libc.a(strlen.o)
 .text          0x00000000        0x0 /opt/microchip/xc32/v1.31/bin/../lib/gcc/pic32mx/4.5.2/../../../../pic32mx/lib/mips16/libc.a(strncasecmp.o)
 .data          0x00000000        0x0 /opt/microchip/xc32/v1.31/bin/../lib/gcc/pic32mx/4.5.2/../../../../pic32mx/lib/mips16/libc.a(strncasecmp.o)
 .bss           0x00000000        0x0 /opt/microchip/xc32/v1.31/bin/../lib/gcc/pic32mx/4.5.2/../../../../pic32mx/lib/mips16/libc.a(strncasecmp.o)
 .reginfo       0x00000000       0x18 /opt/microchip/xc32/v1.31/bin/../lib/gcc/pic32mx/4.5.2/../../../../pic32mx/lib/mips16/libc.a(strncasecmp.o)
 .text          0x00000000        0x0 /opt/microchip/xc32/v1.31/bin/../lib/gcc/pic32mx/4.5.2/../../../../pic32mx/lib/mips16/libc.a(strncat.o)
 .data          0x00000000        0x0 /opt/microchip/xc32/v1.31/bin/../lib/gcc/pic32mx/4.5.2/../../../../pic32mx/lib/mips16/libc.a(strncat.o)
 .bss           0x00000000        0x0 /opt/microchip/xc32/v1.31/bin/../lib/gcc/pic32mx/4.5.2/../../../../pic32mx/lib/mips16/libc.a(strncat.o)
 .reginfo       0x00000000       0x18 /opt/microchip/xc32/v1.31/bin/../lib/gcc/pic32mx/4.5.2/../../../../pic32mx/lib/mips16/libc.a(strncat.o)
 .text          0x00000000        0x0 /opt/microchip/xc32/v1.31/bin/../lib/gcc/pic32mx/4.5.2/../../../../pic32mx/lib/mips16/libc.a(strncpy.o)
 .data          0x00000000        0x0 /opt/microchip/xc32/v1.31/bin/../lib/gcc/pic32mx/4.5.2/../../../../pic32mx/lib/mips16/libc.a(strncpy.o)
 .bss           0x00000000        0x0 /opt/microchip/xc32/v1.31/bin/../lib/gcc/pic32mx/4.5.2/../../../../pic32mx/lib/mips16/libc.a(strncpy.o)
 .reginfo       0x00000000       0x18 /opt/microchip/xc32/v1.31/bin/../lib/gcc/pic32mx/4.5.2/../../../../pic32mx/lib/mips16/libc.a(strncpy.o)
 .text          0x00000000        0x0 /opt/microchip/xc32/v1.31/bin/../lib/gcc/pic32mx/4.5.2/../../../../pic32mx/lib/mips16/libc.a(strtod.o)
 .data          0x00000000        0x0 /opt/microchip/xc32/v1.31/bin/../lib/gcc/pic32mx/4.5.2/../../../../pic32mx/lib/mips16/libc.a(strtod.o)
 .bss           0x00000000        0x0 /opt/microchip/xc32/v1.31/bin/../lib/gcc/pic32mx/4.5.2/../../../../pic32mx/lib/mips16/libc.a(strtod.o)
 .reginfo       0x00000000       0x18 /opt/microchip/xc32/v1.31/bin/../lib/gcc/pic32mx/4.5.2/../../../../pic32mx/lib/mips16/libc.a(strtod.o)
 .text.strtod   0x00000000       0x14 /opt/microchip/xc32/v1.31/bin/../lib/gcc/pic32mx/4.5.2/../../../../pic32mx/lib/mips16/libc.a(strtod.o)
 .text          0x00000000        0x0 /opt/microchip/xc32/v1.31/bin/../lib/gcc/pic32mx/4.5.2/../../../../pic32mx/lib/mips16/libc.a(strtof.o)
 .data          0x00000000        0x0 /opt/microchip/xc32/v1.31/bin/../lib/gcc/pic32mx/4.5.2/../../../../pic32mx/lib/mips16/libc.a(strtof.o)
 .bss           0x00000000        0x0 /opt/microchip/xc32/v1.31/bin/../lib/gcc/pic32mx/4.5.2/../../../../pic32mx/lib/mips16/libc.a(strtof.o)
 .reginfo       0x00000000       0x18 /opt/microchip/xc32/v1.31/bin/../lib/gcc/pic32mx/4.5.2/../../../../pic32mx/lib/mips16/libc.a(strtof.o)
 .text.strtodf  0x00000000        0xc /opt/microchip/xc32/v1.31/bin/../lib/gcc/pic32mx/4.5.2/../../../../pic32mx/lib/mips16/libc.a(strtof.o)
 .text          0x00000000        0x0 /opt/microchip/xc32/v1.31/bin/../lib/gcc/pic32mx/4.5.2/../../../../pic32mx/lib/mips16/libc.a(strstr.o)
 .data          0x00000000        0x0 /opt/microchip/xc32/v1.31/bin/../lib/gcc/pic32mx/4.5.2/../../../../pic32mx/lib/mips16/libc.a(strstr.o)
 .bss           0x00000000        0x0 /opt/microchip/xc32/v1.31/bin/../lib/gcc/pic32mx/4.5.2/../../../../pic32mx/lib/mips16/libc.a(strstr.o)
 .reginfo       0x00000000       0x18 /opt/microchip/xc32/v1.31/bin/../lib/gcc/pic32mx/4.5.2/../../../../pic32mx/lib/mips16/libc.a(strstr.o)
 .text          0x00000000        0x0 /opt/microchip/xc32/v1.31/bin/../lib/gcc/pic32mx/4.5.2/../../../../pic32mx/lib/mips16/libc.a(strtol.o)
 .data          0x00000000        0x0 /opt/microchip/xc32/v1.31/bin/../lib/gcc/pic32mx/4.5.2/../../../../pic32mx/lib/mips16/libc.a(strtol.o)
 .bss           0x00000000        0x0 /opt/microchip/xc32/v1.31/bin/../lib/gcc/pic32mx/4.5.2/../../../../pic32mx/lib/mips16/libc.a(strtol.o)
 .reginfo       0x00000000       0x18 /opt/microchip/xc32/v1.31/bin/../lib/gcc/pic32mx/4.5.2/../../../../pic32mx/lib/mips16/libc.a(strtol.o)
 .text          0x00000000        0x0 /opt/microchip/xc32/v1.31/bin/../lib/gcc/pic32mx/4.5.2/../../../../pic32mx/lib/mips16/libc.a(strtoll.o)
 .data          0x00000000        0x0 /opt/microchip/xc32/v1.31/bin/../lib/gcc/pic32mx/4.5.2/../../../../pic32mx/lib/mips16/libc.a(strtoll.o)
 .bss           0x00000000        0x0 /opt/microchip/xc32/v1.31/bin/../lib/gcc/pic32mx/4.5.2/../../../../pic32mx/lib/mips16/libc.a(strtoll.o)
 .reginfo       0x00000000       0x18 /opt/microchip/xc32/v1.31/bin/../lib/gcc/pic32mx/4.5.2/../../../../pic32mx/lib/mips16/libc.a(strtoll.o)
 .text          0x00000000        0x0 /opt/microchip/xc32/v1.31/bin/../lib/gcc/pic32mx/4.5.2/../../../../pic32mx/lib/mips16/libc.a(printf_cdfFnopsuxX.eo)
 .data          0x00000000        0x0 /opt/microchip/xc32/v1.31/bin/../lib/gcc/pic32mx/4.5.2/../../../../pic32mx/lib/mips16/libc.a(printf_cdfFnopsuxX.eo)
 .bss           0x00000000        0x0 /opt/microchip/xc32/v1.31/bin/../lib/gcc/pic32mx/4.5.2/../../../../pic32mx/lib/mips16/libc.a(printf_cdfFnopsuxX.eo)
 .reginfo       0x00000000       0x18 /opt/microchip/xc32/v1.31/bin/../lib/gcc/pic32mx/4.5.2/../../../../pic32mx/lib/mips16/libc.a(printf_cdfFnopsuxX.eo)
 .text          0x00000000        0x0 /opt/microchip/xc32/v1.31/bin/../lib/gcc/pic32mx/4.5.2/../../../../pic32mx/lib/mips16/libc.a(vprintf.o)
 .data          0x00000000        0x0 /opt/microchip/xc32/v1.31/bin/../lib/gcc/pic32mx/4.5.2/../../../../pic32mx/lib/mips16/libc.a(vprintf.o)
 .bss           0x00000000        0x0 /opt/microchip/xc32/v1.31/bin/../lib/gcc/pic32mx/4.5.2/../../../../pic32mx/lib/mips16/libc.a(vprintf.o)
 .reginfo       0x00000000       0x18 /opt/microchip/xc32/v1.31/bin/../lib/gcc/pic32mx/4.5.2/../../../../pic32mx/lib/mips16/libc.a(vprintf.o)
 .text.vprintf  0x00000000       0x18 /opt/microchip/xc32/v1.31/bin/../lib/gcc/pic32mx/4.5.2/../../../../pic32mx/lib/mips16/libc.a(vprintf.o)
 .text          0x00000000        0x0 /opt/microchip/xc32/v1.31/bin/../lib/gcc/pic32mx/4.5.2/../../../../pic32mx/lib/mips16/libc.a(snprintf_gG.eo)
 .data          0x00000000        0x0 /opt/microchip/xc32/v1.31/bin/../lib/gcc/pic32mx/4.5.2/../../../../pic32mx/lib/mips16/libc.a(snprintf_gG.eo)
 .bss           0x00000000        0x0 /opt/microchip/xc32/v1.31/bin/../lib/gcc/pic32mx/4.5.2/../../../../pic32mx/lib/mips16/libc.a(snprintf_gG.eo)
 .reginfo       0x00000000       0x18 /opt/microchip/xc32/v1.31/bin/../lib/gcc/pic32mx/4.5.2/../../../../pic32mx/lib/mips16/libc.a(snprintf_gG.eo)
 .text          0x00000000        0x0 /opt/microchip/xc32/v1.31/bin/../lib/gcc/pic32mx/4.5.2/../../../../pic32mx/lib/mips16/libc.a(vsnprintf_gG.eo)
 .data          0x00000000        0x0 /opt/microchip/xc32/v1.31/bin/../lib/gcc/pic32mx/4.5.2/../../../../pic32mx/lib/mips16/libc.a(vsnprintf_gG.eo)
 .bss           0x00000000        0x0 /opt/microchip/xc32/v1.31/bin/../lib/gcc/pic32mx/4.5.2/../../../../pic32mx/lib/mips16/libc.a(vsnprintf_gG.eo)
 .reginfo       0x00000000       0x18 /opt/microchip/xc32/v1.31/bin/../lib/gcc/pic32mx/4.5.2/../../../../pic32mx/lib/mips16/libc.a(vsnprintf_gG.eo)
 .text          0x00000000        0x0 /opt/microchip/xc32/v1.31/bin/../lib/gcc/pic32mx/4.5.2/../../../../pic32mx/lib/mips16/libc.a(fflush.o)
 .data          0x00000000        0x0 /opt/microchip/xc32/v1.31/bin/../lib/gcc/pic32mx/4.5.2/../../../../pic32mx/lib/mips16/libc.a(fflush.o)
 .bss           0x00000000        0x0 /opt/microchip/xc32/v1.31/bin/../lib/gcc/pic32mx/4.5.2/../../../../pic32mx/lib/mips16/libc.a(fflush.o)
 .reginfo       0x00000000       0x18 /opt/microchip/xc32/v1.31/bin/../lib/gcc/pic32mx/4.5.2/../../../../pic32mx/lib/mips16/libc.a(fflush.o)
 .text          0x00000000        0x0 /opt/microchip/xc32/v1.31/bin/../lib/gcc/pic32mx/4.5.2/../../../../pic32mx/lib/mips16/libc.a(_fputc_simple.o)
 .data          0x00000000        0x0 /opt/microchip/xc32/v1.31/bin/../lib/gcc/pic32mx/4.5.2/../../../../pic32mx/lib/mips16/libc.a(_fputc_simple.o)
 .bss           0x00000000        0x0 /opt/microchip/xc32/v1.31/bin/../lib/gcc/pic32mx/4.5.2/../../../../pic32mx/lib/mips16/libc.a(_fputc_simple.o)
 .reginfo       0x00000000       0x18 /opt/microchip/xc32/v1.31/bin/../lib/gcc/pic32mx/4.5.2/../../../../pic32mx/lib/mips16/libc.a(_fputc_simple.o)
 .text          0x00000000        0x0 /opt/microchip/xc32/v1.31/bin/../lib/gcc/pic32mx/4.5.2/../../../../pic32mx/lib/mips16/libc.a(fseek.o)
 .data          0x00000000        0x0 /opt/microchip/xc32/v1.31/bin/../lib/gcc/pic32mx/4.5.2/../../../../pic32mx/lib/mips16/libc.a(fseek.o)
 .bss           0x00000000        0x0 /opt/microchip/xc32/v1.31/bin/../lib/gcc/pic32mx/4.5.2/../../../../pic32mx/lib/mips16/libc.a(fseek.o)
 .reginfo       0x00000000       0x18 /opt/microchip/xc32/v1.31/bin/../lib/gcc/pic32mx/4.5.2/../../../../pic32mx/lib/mips16/libc.a(fseek.o)
 .text          0x00000000        0x0 /opt/microchip/xc32/v1.31/bin/../lib/gcc/pic32mx/4.5.2/../../../../pic32mx/lib/mips16/libc.a(strncmp.o)
 .data          0x00000000        0x0 /opt/microchip/xc32/v1.31/bin/../lib/gcc/pic32mx/4.5.2/../../../../pic32mx/lib/mips16/libc.a(strncmp.o)
 .bss           0x00000000        0x0 /opt/microchip/xc32/v1.31/bin/../lib/gcc/pic32mx/4.5.2/../../../../pic32mx/lib/mips16/libc.a(strncmp.o)
 .reginfo       0x00000000       0x18 /opt/microchip/xc32/v1.31/bin/../lib/gcc/pic32mx/4.5.2/../../../../pic32mx/lib/mips16/libc.a(strncmp.o)
 .text          0x00000000        0x0 /opt/microchip/xc32/v1.31/bin/../lib/gcc/pic32mx/4.5.2/../../../../pic32mx/lib/mips16/libc.a(doprnt.o)
 .data          0x00000000        0x0 /opt/microchip/xc32/v1.31/bin/../lib/gcc/pic32mx/4.5.2/../../../../pic32mx/lib/mips16/libc.a(doprnt.o)
 .bss           0x00000000        0x0 /opt/microchip/xc32/v1.31/bin/../lib/gcc/pic32mx/4.5.2/../../../../pic32mx/lib/mips16/libc.a(doprnt.o)
 .reginfo       0x00000000       0x18 /opt/microchip/xc32/v1.31/bin/../lib/gcc/pic32mx/4.5.2/../../../../pic32mx/lib/mips16/libc.a(doprnt.o)
 .text.fround   0x00000000       0xb0 /opt/microchip/xc32/v1.31/bin/../lib/gcc/pic32mx/4.5.2/../../../../pic32mx/lib/mips16/libc.a(doprnt.o)
 .text.scale    0x00000000       0xe8 /opt/microchip/xc32/v1.31/bin/../lib/gcc/pic32mx/4.5.2/../../../../pic32mx/lib/mips16/libc.a(doprnt.o)
 .rodata        0x00000000       0xd0 /opt/microchip/xc32/v1.31/bin/../lib/gcc/pic32mx/4.5.2/../../../../pic32mx/lib/mips16/libc.a(doprnt.o)
 .text.vfprintf
                0x00000000     0x15a0 /opt/microchip/xc32/v1.31/bin/../lib/gcc/pic32mx/4.5.2/../../../../pic32mx/lib/mips16/libc.a(doprnt.o)
 .text          0x00000000        0x0 /opt/microchip/xc32/v1.31/bin/../lib/gcc/pic32mx/4.5.2/../../../../pic32mx/lib/mips16/libc.a(_flsbuf_simple.o)
 .data          0x00000000        0x0 /opt/microchip/xc32/v1.31/bin/../lib/gcc/pic32mx/4.5.2/../../../../pic32mx/lib/mips16/libc.a(_flsbuf_simple.o)
 .bss           0x00000000        0x0 /opt/microchip/xc32/v1.31/bin/../lib/gcc/pic32mx/4.5.2/../../../../pic32mx/lib/mips16/libc.a(_flsbuf_simple.o)
 .reginfo       0x00000000       0x18 /opt/microchip/xc32/v1.31/bin/../lib/gcc/pic32mx/4.5.2/../../../../pic32mx/lib/mips16/libc.a(_flsbuf_simple.o)
 .text          0x00000000        0x0 /opt/microchip/xc32/v1.31/bin/../lib/gcc/pic32mx/4.5.2/../../../../pic32mx/lib/mips16/libc.a(powersf.o)
 .data          0x00000000        0x0 /opt/microchip/xc32/v1.31/bin/../lib/gcc/pic32mx/4.5.2/../../../../pic32mx/lib/mips16/libc.a(powersf.o)
 .bss           0x00000000        0x0 /opt/microchip/xc32/v1.31/bin/../lib/gcc/pic32mx/4.5.2/../../../../pic32mx/lib/mips16/libc.a(powersf.o)
 .reginfo       0x00000000       0x18 /opt/microchip/xc32/v1.31/bin/../lib/gcc/pic32mx/4.5.2/../../../../pic32mx/lib/mips16/libc.a(powersf.o)
 .text          0x00000000        0x0 /opt/microchip/xc32/v1.31/bin/../lib/gcc/pic32mx/4.5.2/../../../../pic32mx/lib/mips16/libpic32.a(write.o)
 .data          0x00000000        0x0 /opt/microchip/xc32/v1.31/bin/../lib/gcc/pic32mx/4.5.2/../../../../pic32mx/lib/mips16/libpic32.a(write.o)
 .bss           0x00000000        0x0 /opt/microchip/xc32/v1.31/bin/../lib/gcc/pic32mx/4.5.2/../../../../pic32mx/lib/mips16/libpic32.a(write.o)
 .reginfo       0x00000000       0x18 /opt/microchip/xc32/v1.31/bin/../lib/gcc/pic32mx/4.5.2/../../../../pic32mx/lib/mips16/libpic32.a(write.o)
 .text          0x00000000        0x0 /opt/microchip/xc32/v1.31/bin/../lib/gcc/pic32mx/4.5.2/../../../../pic32mx/lib/mips16/libpic32.a(lseek.o)
 .data          0x00000000        0x0 /opt/microchip/xc32/v1.31/bin/../lib/gcc/pic32mx/4.5.2/../../../../pic32mx/lib/mips16/libpic32.a(lseek.o)
 .bss           0x00000000        0x0 /opt/microchip/xc32/v1.31/bin/../lib/gcc/pic32mx/4.5.2/../../../../pic32mx/lib/mips16/libpic32.a(lseek.o)
 .reginfo       0x00000000       0x18 /opt/microchip/xc32/v1.31/bin/../lib/gcc/pic32mx/4.5.2/../../../../pic32mx/lib/mips16/libpic32.a(lseek.o)
 .data          0x00000000        0x0 /opt/microchip/xc32/v1.31/bin/../lib/gcc/pic32mx/4.5.2/../../../../pic32mx/lib/mips16/libm.a(fpmod32.o)
 .bss           0x00000000        0x0 /opt/microchip/xc32/v1.31/bin/../lib/gcc/pic32mx/4.5.2/../../../../pic32mx/lib/mips16/libm.a(fpmod32.o)
 .reginfo       0x00000000       0x18 /opt/microchip/xc32/v1.31/bin/../lib/gcc/pic32mx/4.5.2/../../../../pic32mx/lib/mips16/libm.a(fpmod32.o)
 .text          0x00000000        0x0 /opt/microchip/xc32/v1.31/bin/../lib/gcc/pic32mx/4.5.2/../../../../pic32mx/lib/mips16/libe.a(_floatdisf.o)
 .data          0x00000000        0x0 /opt/microchip/xc32/v1.31/bin/../lib/gcc/pic32mx/4.5.2/../../../../pic32mx/lib/mips16/libe.a(_floatdisf.o)
 .bss           0x00000000        0x0 /opt/microchip/xc32/v1.31/bin/../lib/gcc/pic32mx/4.5.2/../../../../pic32mx/lib/mips16/libe.a(_floatdisf.o)
 .reginfo       0x00000000       0x18 /opt/microchip/xc32/v1.31/bin/../lib/gcc/pic32mx/4.5.2/../../../../pic32mx/lib/mips16/libe.a(_floatdisf.o)
 .text          0x00000000        0x0 /opt/microchip/xc32/v1.31/bin/../lib/gcc/pic32mx/4.5.2/../../../../pic32mx/lib/mips16/libe.a(_strtod.o)
 .data          0x00000000        0x0 /opt/microchip/xc32/v1.31/bin/../lib/gcc/pic32mx/4.5.2/../../../../pic32mx/lib/mips16/libe.a(_strtod.o)
 .bss           0x00000000        0x0 /opt/microchip/xc32/v1.31/bin/../lib/gcc/pic32mx/4.5.2/../../../../pic32mx/lib/mips16/libe.a(_strtod.o)
 .reginfo       0x00000000       0x18 /opt/microchip/xc32/v1.31/bin/../lib/gcc/pic32mx/4.5.2/../../../../pic32mx/lib/mips16/libe.a(_strtod.o)
 .text          0x00000000        0x0 /opt/microchip/xc32/v1.31/bin/../lib/gcc/pic32mx/4.5.2/../../../../pic32mx/lib/mips16/libe.a(_strtof.o)
 .data          0x00000000        0x0 /opt/microchip/xc32/v1.31/bin/../lib/gcc/pic32mx/4.5.2/../../../../pic32mx/lib/mips16/libe.a(_strtof.o)
 .bss           0x00000000        0x0 /opt/microchip/xc32/v1.31/bin/../lib/gcc/pic32mx/4.5.2/../../../../pic32mx/lib/mips16/libe.a(_strtof.o)
 .reginfo       0x00000000       0x18 /opt/microchip/xc32/v1.31/bin/../lib/gcc/pic32mx/4.5.2/../../../../pic32mx/lib/mips16/libe.a(_strtof.o)
 .text          0x00000000        0x0 /opt/microchip/xc32/v1.31/bin/../lib/gcc/pic32mx/4.5.2/../../../../pic32mx/lib/mips16/libe.a(_ldexp.o)
 .data          0x00000000        0x0 /opt/microchip/xc32/v1.31/bin/../lib/gcc/pic32mx/4.5.2/../../../../pic32mx/lib/mips16/libe.a(_ldexp.o)
 .bss           0x00000000        0x0 /opt/microchip/xc32/v1.31/bin/../lib/gcc/pic32mx/4.5.2/../../../../pic32mx/lib/mips16/libe.a(_ldexp.o)
 .reginfo       0x00000000       0x18 /opt/microchip/xc32/v1.31/bin/../lib/gcc/pic32mx/4.5.2/../../../../pic32mx/lib/mips16/libe.a(_ldexp.o)
 .text          0x00000000        0x0 /opt/microchip/xc32/v1.31/bin/../lib/gcc/pic32mx/4.5.2/../../../../pic32mx/lib/mips16/libe.a(_ldexpf.o)
 .data          0x00000000        0x0 /opt/microchip/xc32/v1.31/bin/../lib/gcc/pic32mx/4.5.2/../../../../pic32mx/lib/mips16/libe.a(_ldexpf.o)
 .bss           0x00000000        0x0 /opt/microchip/xc32/v1.31/bin/../lib/gcc/pic32mx/4.5.2/../../../../pic32mx/lib/mips16/libe.a(_ldexpf.o)
 .reginfo       0x00000000       0x18 /opt/microchip/xc32/v1.31/bin/../lib/gcc/pic32mx/4.5.2/../../../../pic32mx/lib/mips16/libe.a(_ldexpf.o)
 .data          0x00000000        0x0 /opt/microchip/xc32/v1.31/bin/../lib/gcc/pic32mx/4.5.2/mips16/libgcc.a(_lshrdi3.o)
 .bss           0x00000000        0x0 /opt/microchip/xc32/v1.31/bin/../lib/gcc/pic32mx/4.5.2/mips16/libgcc.a(_lshrdi3.o)
 .reginfo       0x00000000       0x18 /opt/microchip/xc32/v1.31/bin/../lib/gcc/pic32mx/4.5.2/mips16/libgcc.a(_lshrdi3.o)
 .data          0x00000000        0x0 /opt/microchip/xc32/v1.31/bin/../lib/gcc/pic32mx/4.5.2/mips16/libgcc.a(_floatundisf.o)
 .bss           0x00000000        0x0 /opt/microchip/xc32/v1.31/bin/../lib/gcc/pic32mx/4.5.2/mips16/libgcc.a(_floatundisf.o)
 .reginfo       0x00000000       0x18 /opt/microchip/xc32/v1.31/bin/../lib/gcc/pic32mx/4.5.2/mips16/libgcc.a(_floatundisf.o)
 .data          0x00000000        0x0 /opt/microchip/xc32/v1.31/bin/../lib/gcc/pic32mx/4.5.2/mips16/libgcc.a(_umoddi3.o)
 .bss           0x00000000        0x0 /opt/microchip/xc32/v1.31/bin/../lib/gcc/pic32mx/4.5.2/mips16/libgcc.a(_umoddi3.o)
 .reginfo       0x00000000       0x18 /opt/microchip/xc32/v1.31/bin/../lib/gcc/pic32mx/4.5.2/mips16/libgcc.a(_umoddi3.o)
 .text          0x00000000        0x0 /opt/microchip/xc32/v1.31/bin/../lib/gcc/pic32mx/4.5.2/../../../../pic32mx/lib/mips16/libc.a(doprnt_cdfFgGnopsuxX.eo)
 .data          0x00000000        0x0 /opt/microchip/xc32/v1.31/bin/../lib/gcc/pic32mx/4.5.2/../../../../pic32mx/lib/mips16/libc.a(doprnt_cdfFgGnopsuxX.eo)
 .bss           0x00000000        0x0 /opt/microchip/xc32/v1.31/bin/../lib/gcc/pic32mx/4.5.2/../../../../pic32mx/lib/mips16/libc.a(doprnt_cdfFgGnopsuxX.eo)
 .reginfo       0x00000000       0x18 /opt/microchip/xc32/v1.31/bin/../lib/gcc/pic32mx/4.5.2/../../../../pic32mx/lib/mips16/libc.a(doprnt_cdfFgGnopsuxX.eo)
 .text          0x00000000        0x0 /opt/microchip/xc32/v1.31/bin/../lib/gcc/pic32mx/4.5.2/../../../../pic32mx/lib/mips16/debug-exception-return.o
 .data          0x00000000        0x0 /opt/microchip/xc32/v1.31/bin/../lib/gcc/pic32mx/4.5.2/../../../../pic32mx/lib/mips16/debug-exception-return.o
 .bss           0x00000000        0x0 /opt/microchip/xc32/v1.31/bin/../lib/gcc/pic32mx/4.5.2/../../../../pic32mx/lib/mips16/debug-exception-return.o
 .reginfo       0x00000000       0x18 /opt/microchip/xc32/v1.31/bin/../lib/gcc/pic32mx/4.5.2/../../../../pic32mx/lib/mips16/debug-exception-return.o

Memory Configuration

Name             Origin             Length             Attributes
kseg0_program_mem 0x9d000000         0x00040000         xr
kseg0_boot_mem   0x9fc00490         0x00000970
exception_mem    0x9fc01000         0x00001000
kseg1_boot_mem   0xbfc00000         0x00000490
debug_exec_mem   0xbfc02000         0x00000ff0
config3          0xbfc02ff0         0x00000004
config2          0xbfc02ff4         0x00000004
config1          0xbfc02ff8         0x00000004
config0          0xbfc02ffc         0x00000004
kseg1_data_mem   0xa0000000         0x00010000         w !x
sfrs             0xbf800000         0x00100000
configsfrs       0xbfc02ff0         0x00000010
*default*        0x00000000         0xffffffff

Linker script and memory map

LOAD /opt/microchip/xc32/v1.31/bin/../lib/gcc/pic32mx/4.5.2/../../../../pic32mx/lib/./proc/32MX350F256L/crt0_mips32r2.o
LOAD build/default/production/src/drivers/eeprom.o
LOAD build/default/production/src/drivers/tmp275.o
LOAD build/default/production/src/drivers/dispkyb.o
LOAD build/default/production/src/drivers/usb_uart.o
LOAD build/default/production/src/drivers/adc.o
LOAD build/default/production/src/drivers/adcctrl.o
LOAD build/default/production/src/eefs/crc32.o
LOAD build/default/production/src/eefs/eefs.o
LOAD build/default/production/src/FreeRTOS/portable/MemMang/heap_4.o
LOAD build/default/production/src/FreeRTOS/portable/MPLAB/PIC32MX/port.o
LOAD build/default/production/src/FreeRTOS/portable/MPLAB/PIC32MX/port_asm.o
LOAD build/default/production/src/FreeRTOS/timers.o
LOAD build/default/production/src/FreeRTOS/tasks.o
LOAD build/default/production/src/FreeRTOS/list.o
LOAD build/default/production/src/FreeRTOS/event_groups.o
LOAD build/default/production/src/FreeRTOS/croutine.o
LOAD build/default/production/src/FreeRTOS/queue.o
LOAD build/default/production/src/hal/fuses.o
LOAD build/default/production/src/hal/exceptions.o
LOAD build/default/production/src/hal/isrWrappers.o
LOAD build/default/production/src/hal/hal_adc.o
LOAD build/default/production/src/hal/hal_uart.o
LOAD build/default/production/src/hal/hal_i2c.o
LOAD build/default/production/src/hal/hal_spi.o
LOAD build/default/production/src/hal/hal_timer.o
LOAD build/default/production/src/hal/hal_io.o
LOAD build/default/production/src/hal/hal_sys.o
LOAD build/default/production/src/scpi-parser/libscpi/src/lexer.o
LOAD build/default/production/src/scpi-parser/libscpi/src/error.o
LOAD build/default/production/src/scpi-parser/libscpi/src/fifo.o
LOAD build/default/production/src/scpi-parser/libscpi/src/ieee488.o
LOAD build/default/production/src/scpi-parser/libscpi/src/minimal.o
LOAD build/default/production/src/scpi-parser/libscpi/src/parser.o
LOAD build/default/production/src/scpi-parser/libscpi/src/units.o
LOAD build/default/production/src/scpi-parser/libscpi/src/utils.o
LOAD build/default/production/src/sys/src/system.o
LOAD build/default/production/src/sys/src/settings.o
LOAD build/default/production/src/tasks/task_calibration.o
LOAD build/default/production/src/tasks/task_multimeter.o
LOAD build/default/production/src/tasks/main.o
LOAD build/default/production/src/tasks/tskmgr.o
LOAD build/default/production/src/tasks/task_scpi.o
LOAD build/default/production/src/utils/fcvt-1.1/fcvt.o
LOAD build/default/production/src/utils/src/diag.o
LOAD build/default/production/src/utils/src/fitlinear.o
LOAD build/default/production/src/utils/src/disfmt.o
LOAD build/default/production/src/utils/src/util_ringbuff.o
LOAD build/default/production/src/utils/src/strutils.o
                0x00000001                __MPLAB_BUILD = 0x1
                0x000007d0                _min_heap_size = 0x7d0
LOAD /opt/microchip/xc32/v1.31/bin/../lib/gcc/pic32mx/4.5.2/../../../../pic32mx/lib/./proc/32MX350F256L/default_isr_vectors.o
                0x00000400                PROVIDE (_min_stack_size, 0x400)
LOAD /opt/microchip/xc32/v1.31/bin/../lib/gcc/pic32mx/4.5.2/../../../../pic32mx/lib/./proc/32MX350F256L/processor.o
START GROUP
LOAD /opt/microchip/xc32/v1.31/bin/../lib/gcc/pic32mx/4.5.2/../../../../pic32mx/lib/mips16/libmchp_peripheral.a
END GROUP
START GROUP
LOAD /opt/microchip/xc32/v1.31/bin/../lib/gcc/pic32mx/4.5.2/../../../../pic32mx/lib/mips16/libmchp_peripheral_32MX350F256L.a
END GROUP
                0x00000001                PROVIDE (_vector_spacing, 0x1)
                0x9fc01000                _ebase_address = 0x9fc01000
                0xbfc00000                _RESET_ADDR = 0xbfc00000
                0xbfc00380                _BEV_EXCPT_ADDR = 0xbfc00380
                0xbfc00480                _DBG_EXCPT_ADDR = 0xbfc00480
                0xbfc02000                _DBG_CODE_ADDR = 0xbfc02000
                0x00000ff0                _DBG_CODE_SIZE = 0xff0
                0x9fc01180                _GEN_EXCPT_ADDR = (_ebase_address + 0x180)

.config_BFC02FF0
                0xbfc02ff0        0x4
 *(.config_BFC02FF0)
 .config_BFC02FF0
                0xbfc02ff0        0x4 build/default/production/src/hal/fuses.o

.config_BFC02FF4
                0xbfc02ff4        0x4
 *(.config_BFC02FF4)
 .config_BFC02FF4
                0xbfc02ff4        0x4 build/default/production/src/hal/fuses.o

.config_BFC02FF8
                0xbfc02ff8        0x4
 *(.config_BFC02FF8)
 .config_BFC02FF8
                0xbfc02ff8        0x4 build/default/production/src/hal/fuses.o

.config_BFC02FFC
                0xbfc02ffc        0x4
 *(.config_BFC02FFC)
 .config_BFC02FFC
                0xbfc02ffc        0x4 build/default/production/src/hal/fuses.o
                0xbfc02000                PROVIDE (_DBG_CODE_ADDR, 0xbfc02000)
                0x00000ff0                PROVIDE (_DBG_CODE_SIZE, 0xff0)

.reset          0xbfc00000      0x1e8
 *(.reset)
 .reset         0xbfc00000      0x1e8 /opt/microchip/xc32/v1.31/bin/../lib/gcc/pic32mx/4.5.2/../../../../pic32mx/lib/./proc/32MX350F256L/crt0_mips32r2.o
                0xbfc00000                _reset
 *(.reset.startup)

.bev_excpt      0xbfc00380       0x10
 *(.bev_handler)
 .bev_handler   0xbfc00380       0x10 /opt/microchip/xc32/v1.31/bin/../lib/gcc/pic32mx/4.5.2/../../../../pic32mx/lib/./proc/32MX350F256L/crt0_mips32r2.o

.dbg_excpt      0xbfc00480        0x0
                0xbfc00480                . = (. + DEFINED (_DEBUGGER)?0x8:0x0)

.dbg_code       0xbfc02000        0x0
                0xbfc02000                . = (. + DEFINED (_DEBUGGER)?_DBG_CODE_SIZE:0x0)

.app_excpt      0x9fc01180       0x10
 *(.gen_handler)
 .gen_handler   0x9fc01180       0x10 /opt/microchip/xc32/v1.31/bin/../lib/gcc/pic32mx/4.5.2/../../../../pic32mx/lib/./proc/32MX350F256L/crt0_mips32r2.o

.vector_0       0x9fc01200        0x8
 *(.vector_0)
 .vector_0      0x9fc01200        0x8 build/default/production/src/hal/hal_timer.o
                0x9fc01200                __vector_dispatch_0
                0x00000001                ASSERT (((_vector_spacing == 0x0) || (SIZEOF (.vector_0) <= (_vector_spacing << 0x5))), function at exception vector 0 too large)

.vector_1       0x9fc01220        0x8
 *(.vector_1)
 .vector_1      0x9fc01220        0x8 build/default/production/src/FreeRTOS/portable/MPLAB/PIC32MX/port.o
                0x9fc01220                __vector_dispatch_1
                0x00000001                ASSERT (((_vector_spacing == 0x0) || (SIZEOF (.vector_1) <= (_vector_spacing << 0x5))), function at exception vector 1 too large)

.vector_2       0x9fc01240        0x8
 *(.vector_2)
 .vector_2      0x9fc01240        0x8 /opt/microchip/xc32/v1.31/bin/../lib/gcc/pic32mx/4.5.2/../../../../pic32mx/lib/mips16/libpic32.a(vector2.o)
                0x9fc01240                __vector_dispatch_2
                0x00000001                ASSERT (((_vector_spacing == 0x0) || (SIZEOF (.vector_2) <= (_vector_spacing << 0x5))), function at exception vector 2 too large)

.vector_3       0x9fc01260        0x8
 *(.vector_3)
 .vector_3      0x9fc01260        0x8 /opt/microchip/xc32/v1.31/bin/../lib/gcc/pic32mx/4.5.2/../../../../pic32mx/lib/mips16/libpic32.a(vector3.o)
                0x9fc01260                __vector_dispatch_3
                0x00000001                ASSERT (((_vector_spacing == 0x0) || (SIZEOF (.vector_3) <= (_vector_spacing << 0x5))), function at exception vector 3 too large)

.vector_4       0x9fc01280        0x8
 *(.vector_4)
 .vector_4      0x9fc01280        0x8 build/default/production/src/FreeRTOS/portable/MPLAB/PIC32MX/port.o
                0x9fc01280                __vector_dispatch_4
                0x00000001                ASSERT (((_vector_spacing == 0x0) || (SIZEOF (.vector_4) <= (_vector_spacing << 0x5))), function at exception vector 4 too large)

.vector_5       0x9fc012a0        0x8
 *(.vector_5)
 .vector_5      0x9fc012a0        0x8 /opt/microchip/xc32/v1.31/bin/../lib/gcc/pic32mx/4.5.2/../../../../pic32mx/lib/mips16/libpic32.a(vector5.o)
                0x9fc012a0                __vector_dispatch_5
                0x00000001                ASSERT (((_vector_spacing == 0x0) || (SIZEOF (.vector_5) <= (_vector_spacing << 0x5))), function at exception vector 5 too large)

.vector_6       0x9fc012c0        0x8
 *(.vector_6)
 .vector_6      0x9fc012c0        0x8 /opt/microchip/xc32/v1.31/bin/../lib/gcc/pic32mx/4.5.2/../../../../pic32mx/lib/mips16/libpic32.a(vector6.o)
                0x9fc012c0                __vector_dispatch_6
                0x00000001                ASSERT (((_vector_spacing == 0x0) || (SIZEOF (.vector_6) <= (_vector_spacing << 0x5))), function at exception vector 6 too large)

.vector_7       0x9fc012e0        0x8
 *(.vector_7)
 .vector_7      0x9fc012e0        0x8 /opt/microchip/xc32/v1.31/bin/../lib/gcc/pic32mx/4.5.2/../../../../pic32mx/lib/mips16/libpic32.a(vector7.o)
                0x9fc012e0                __vector_dispatch_7
                0x00000001                ASSERT (((_vector_spacing == 0x0) || (SIZEOF (.vector_7) <= (_vector_spacing << 0x5))), function at exception vector 7 too large)

.vector_8       0x9fc01300        0x8
 *(.vector_8)
 .vector_8      0x9fc01300        0x8 /opt/microchip/xc32/v1.31/bin/../lib/gcc/pic32mx/4.5.2/../../../../pic32mx/lib/mips16/libpic32.a(vector8.o)
                0x9fc01300                __vector_dispatch_8
                0x00000001                ASSERT (((_vector_spacing == 0x0) || (SIZEOF (.vector_8) <= (_vector_spacing << 0x5))), function at exception vector 8 too large)

.vector_9       0x9fc01320        0x8
 *(.vector_9)
 .vector_9      0x9fc01320        0x8 /opt/microchip/xc32/v1.31/bin/../lib/gcc/pic32mx/4.5.2/../../../../pic32mx/lib/mips16/libpic32.a(vector9.o)
                0x9fc01320                __vector_dispatch_9
                0x00000001                ASSERT (((_vector_spacing == 0x0) || (SIZEOF (.vector_9) <= (_vector_spacing << 0x5))), function at exception vector 9 too large)

.vector_10      0x9fc01340        0x8
 *(.vector_10)
 .vector_10     0x9fc01340        0x8 /opt/microchip/xc32/v1.31/bin/../lib/gcc/pic32mx/4.5.2/../../../../pic32mx/lib/mips16/libpic32.a(vector10.o)
                0x9fc01340                __vector_dispatch_10
                0x00000001                ASSERT (((_vector_spacing == 0x0) || (SIZEOF (.vector_10) <= (_vector_spacing << 0x5))), function at exception vector 10 too large)

.vector_11      0x9fc01360        0x8
 *(.vector_11)
 .vector_11     0x9fc01360        0x8 /opt/microchip/xc32/v1.31/bin/../lib/gcc/pic32mx/4.5.2/../../../../pic32mx/lib/mips16/libpic32.a(vector11.o)
                0x9fc01360                __vector_dispatch_11
                0x00000001                ASSERT (((_vector_spacing == 0x0) || (SIZEOF (.vector_11) <= (_vector_spacing << 0x5))), function at exception vector 11 too large)

.vector_12      0x9fc01380        0x8
 *(.vector_12)
 .vector_12     0x9fc01380        0x8 /opt/microchip/xc32/v1.31/bin/../lib/gcc/pic32mx/4.5.2/../../../../pic32mx/lib/mips16/libpic32.a(vector12.o)
                0x9fc01380                __vector_dispatch_12
                0x00000001                ASSERT (((_vector_spacing == 0x0) || (SIZEOF (.vector_12) <= (_vector_spacing << 0x5))), function at exception vector 12 too large)

.vector_13      0x9fc013a0        0x8
 *(.vector_13)
 .vector_13     0x9fc013a0        0x8 /opt/microchip/xc32/v1.31/bin/../lib/gcc/pic32mx/4.5.2/../../../../pic32mx/lib/mips16/libpic32.a(vector13.o)
                0x9fc013a0                __vector_dispatch_13
                0x00000001                ASSERT (((_vector_spacing == 0x0) || (SIZEOF (.vector_13) <= (_vector_spacing << 0x5))), function at exception vector 13 too large)

.vector_14      0x9fc013c0        0x8
 *(.vector_14)
 .vector_14     0x9fc013c0        0x8 build/default/production/src/hal/hal_adc.o
                0x9fc013c0                __vector_dispatch_14
                0x00000001                ASSERT (((_vector_spacing == 0x0) || (SIZEOF (.vector_14) <= (_vector_spacing << 0x5))), function at exception vector 14 too large)

.vector_15      0x9fc013e0        0x8
 *(.vector_15)
 .vector_15     0x9fc013e0        0x8 /opt/microchip/xc32/v1.31/bin/../lib/gcc/pic32mx/4.5.2/../../../../pic32mx/lib/mips16/libpic32.a(vector15.o)
                0x9fc013e0                __vector_dispatch_15
                0x00000001                ASSERT (((_vector_spacing == 0x0) || (SIZEOF (.vector_15) <= (_vector_spacing << 0x5))), function at exception vector 15 too large)

.vector_16      0x9fc01400        0x8
 *(.vector_16)
 .vector_16     0x9fc01400        0x8 /opt/microchip/xc32/v1.31/bin/../lib/gcc/pic32mx/4.5.2/../../../../pic32mx/lib/mips16/libpic32.a(vector16.o)
                0x9fc01400                __vector_dispatch_16
                0x00000001                ASSERT (((_vector_spacing == 0x0) || (SIZEOF (.vector_16) <= (_vector_spacing << 0x5))), function at exception vector 16 too large)

.vector_17      0x9fc01420        0x8
 *(.vector_17)
 .vector_17     0x9fc01420        0x8 /opt/microchip/xc32/v1.31/bin/../lib/gcc/pic32mx/4.5.2/../../../../pic32mx/lib/mips16/libpic32.a(vector17.o)
                0x9fc01420                __vector_dispatch_17
                0x00000001                ASSERT (((_vector_spacing == 0x0) || (SIZEOF (.vector_17) <= (_vector_spacing << 0x5))), function at exception vector 17 too large)

.vector_18      0x9fc01440        0x8
 *(.vector_18)
 .vector_18     0x9fc01440        0x8 /opt/microchip/xc32/v1.31/bin/../lib/gcc/pic32mx/4.5.2/../../../../pic32mx/lib/mips16/libpic32.a(vector18.o)
                0x9fc01440                __vector_dispatch_18
                0x00000001                ASSERT (((_vector_spacing == 0x0) || (SIZEOF (.vector_18) <= (_vector_spacing << 0x5))), function at exception vector 18 too large)

.vector_19      0x9fc01460        0x8
 *(.vector_19)
 .vector_19     0x9fc01460        0x8 /opt/microchip/xc32/v1.31/bin/../lib/gcc/pic32mx/4.5.2/../../../../pic32mx/lib/mips16/libpic32.a(vector19.o)
                0x9fc01460                __vector_dispatch_19
                0x00000001                ASSERT (((_vector_spacing == 0x0) || (SIZEOF (.vector_19) <= (_vector_spacing << 0x5))), function at exception vector 19 too large)

.vector_20      0x9fc01480        0x8
 *(.vector_20)
 .vector_20     0x9fc01480        0x8 /opt/microchip/xc32/v1.31/bin/../lib/gcc/pic32mx/4.5.2/../../../../pic32mx/lib/mips16/libpic32.a(vector20.o)
                0x9fc01480                __vector_dispatch_20
                0x00000001                ASSERT (((_vector_spacing == 0x0) || (SIZEOF (.vector_20) <= (_vector_spacing << 0x5))), function at exception vector 20 too large)

.vector_21      0x9fc014a0        0x8
 *(.vector_21)
 .vector_21     0x9fc014a0        0x8 /opt/microchip/xc32/v1.31/bin/../lib/gcc/pic32mx/4.5.2/../../../../pic32mx/lib/mips16/libpic32.a(vector21.o)
                0x9fc014a0                __vector_dispatch_21
                0x00000001                ASSERT (((_vector_spacing == 0x0) || (SIZEOF (.vector_21) <= (_vector_spacing << 0x5))), function at exception vector 21 too large)

.vector_22      0x9fc014c0        0x8
 *(.vector_22)
 .vector_22     0x9fc014c0        0x8 /opt/microchip/xc32/v1.31/bin/../lib/gcc/pic32mx/4.5.2/../../../../pic32mx/lib/mips16/libpic32.a(vector22.o)
                0x9fc014c0                __vector_dispatch_22
                0x00000001                ASSERT (((_vector_spacing == 0x0) || (SIZEOF (.vector_22) <= (_vector_spacing << 0x5))), function at exception vector 22 too large)

.vector_23      0x9fc014e0        0x8
 *(.vector_23)
 .vector_23     0x9fc014e0        0x8 /opt/microchip/xc32/v1.31/bin/../lib/gcc/pic32mx/4.5.2/../../../../pic32mx/lib/mips16/libpic32.a(vector23.o)
                0x9fc014e0                __vector_dispatch_23
                0x00000001                ASSERT (((_vector_spacing == 0x0) || (SIZEOF (.vector_23) <= (_vector_spacing << 0x5))), function at exception vector 23 too large)

.vector_24      0x9fc01500        0x8
 *(.vector_24)
 .vector_24     0x9fc01500        0x8 /opt/microchip/xc32/v1.31/bin/../lib/gcc/pic32mx/4.5.2/../../../../pic32mx/lib/mips16/libpic32.a(vector24.o)
                0x9fc01500                __vector_dispatch_24
                0x00000001                ASSERT (((_vector_spacing == 0x0) || (SIZEOF (.vector_24) <= (_vector_spacing << 0x5))), function at exception vector 24 too large)

.vector_25      0x9fc01520        0x8
 *(.vector_25)
 .vector_25     0x9fc01520        0x8 /opt/microchip/xc32/v1.31/bin/../lib/gcc/pic32mx/4.5.2/../../../../pic32mx/lib/mips16/libpic32.a(vector25.o)
                0x9fc01520                __vector_dispatch_25
                0x00000001                ASSERT (((_vector_spacing == 0x0) || (SIZEOF (.vector_25) <= (_vector_spacing << 0x5))), function at exception vector 25 too large)

.vector_26      0x9fc01540        0x8
 *(.vector_26)
 .vector_26     0x9fc01540        0x8 /opt/microchip/xc32/v1.31/bin/../lib/gcc/pic32mx/4.5.2/../../../../pic32mx/lib/mips16/libpic32.a(vector26.o)
                0x9fc01540                __vector_dispatch_26
                0x00000001                ASSERT (((_vector_spacing == 0x0) || (SIZEOF (.vector_26) <= (_vector_spacing << 0x5))), function at exception vector 26 too large)

.vector_27      0x9fc01560        0x8
 *(.vector_27)
 .vector_27     0x9fc01560        0x8 /opt/microchip/xc32/v1.31/bin/../lib/gcc/pic32mx/4.5.2/../../../../pic32mx/lib/mips16/libpic32.a(vector27.o)
                0x9fc01560                __vector_dispatch_27
                0x00000001                ASSERT (((_vector_spacing == 0x0) || (SIZEOF (.vector_27) <= (_vector_spacing << 0x5))), function at exception vector 27 too large)

.vector_28      0x9fc01580        0x8
 *(.vector_28)
 .vector_28     0x9fc01580        0x8 /opt/microchip/xc32/v1.31/bin/../lib/gcc/pic32mx/4.5.2/../../../../pic32mx/lib/mips16/libpic32.a(vector28.o)
                0x9fc01580                __vector_dispatch_28
                0x00000001                ASSERT (((_vector_spacing == 0x0) || (SIZEOF (.vector_28) <= (_vector_spacing << 0x5))), function at exception vector 28 too large)

.vector_29      0x9fc015a0        0x8
 *(.vector_29)
 .vector_29     0x9fc015a0        0x8 /opt/microchip/xc32/v1.31/bin/../lib/gcc/pic32mx/4.5.2/../../../../pic32mx/lib/mips16/libpic32.a(vector29.o)
                0x9fc015a0                __vector_dispatch_29
                0x00000001                ASSERT (((_vector_spacing == 0x0) || (SIZEOF (.vector_29) <= (_vector_spacing << 0x5))), function at exception vector 29 too large)

.vector_30      0x9fc015c0        0x8
 *(.vector_30)
 .vector_30     0x9fc015c0        0x8 /opt/microchip/xc32/v1.31/bin/../lib/gcc/pic32mx/4.5.2/../../../../pic32mx/lib/mips16/libpic32.a(vector30.o)
                0x9fc015c0                __vector_dispatch_30
                0x00000001                ASSERT (((_vector_spacing == 0x0) || (SIZEOF (.vector_30) <= (_vector_spacing << 0x5))), function at exception vector 30 too large)

.vector_31      0x9fc015e0        0x8
 *(.vector_31)
 .vector_31     0x9fc015e0        0x8 build/default/production/src/hal/hal_uart.o
                0x9fc015e0                __vector_dispatch_31
                0x00000001                ASSERT (((_vector_spacing == 0x0) || (SIZEOF (.vector_31) <= (_vector_spacing << 0x5))), function at exception vector 31 too large)

.vector_32      0x9fc01600        0x8
 *(.vector_32)
 .vector_32     0x9fc01600        0x8 /opt/microchip/xc32/v1.31/bin/../lib/gcc/pic32mx/4.5.2/../../../../pic32mx/lib/mips16/libpic32.a(vector32.o)
                0x9fc01600                __vector_dispatch_32
                0x00000001                ASSERT (((_vector_spacing == 0x0) || (SIZEOF (.vector_32) <= (_vector_spacing << 0x5))), function at exception vector 32 too large)

.vector_33      0x9fc01620        0x8
 *(.vector_33)
 .vector_33     0x9fc01620        0x8 /opt/microchip/xc32/v1.31/bin/../lib/gcc/pic32mx/4.5.2/../../../../pic32mx/lib/mips16/libpic32.a(vector33.o)
                0x9fc01620                __vector_dispatch_33
                0x00000001                ASSERT (((_vector_spacing == 0x0) || (SIZEOF (.vector_33) <= (_vector_spacing << 0x5))), function at exception vector 33 too large)

.vector_34      0x9fc01640        0x8
 *(.vector_34)
 .vector_34     0x9fc01640        0x8 /opt/microchip/xc32/v1.31/bin/../lib/gcc/pic32mx/4.5.2/../../../../pic32mx/lib/mips16/libpic32.a(vector34.o)
                0x9fc01640                __vector_dispatch_34
                0x00000001                ASSERT (((_vector_spacing == 0x0) || (SIZEOF (.vector_34) <= (_vector_spacing << 0x5))), function at exception vector 34 too large)

.vector_35      0x9fc01660        0x8
 *(.vector_35)
 .vector_35     0x9fc01660        0x8 /opt/microchip/xc32/v1.31/bin/../lib/gcc/pic32mx/4.5.2/../../../../pic32mx/lib/mips16/libpic32.a(vector35.o)
                0x9fc01660                __vector_dispatch_35
                0x00000001                ASSERT (((_vector_spacing == 0x0) || (SIZEOF (.vector_35) <= (_vector_spacing << 0x5))), function at exception vector 35 too large)

.vector_36      0x9fc01680        0x8
 *(.vector_36)
 .vector_36     0x9fc01680        0x8 build/default/production/src/hal/hal_uart.o
                0x9fc01680                __vector_dispatch_36
                0x00000001                ASSERT (((_vector_spacing == 0x0) || (SIZEOF (.vector_36) <= (_vector_spacing << 0x5))), function at exception vector 36 too large)

.vector_37      0x9fc016a0        0x8
 *(.vector_37)
 .vector_37     0x9fc016a0        0x8 /opt/microchip/xc32/v1.31/bin/../lib/gcc/pic32mx/4.5.2/../../../../pic32mx/lib/mips16/libpic32.a(vector37.o)
                0x9fc016a0                __vector_dispatch_37
                0x00000001                ASSERT (((_vector_spacing == 0x0) || (SIZEOF (.vector_37) <= (_vector_spacing << 0x5))), function at exception vector 37 too large)

.vector_38      0x9fc016c0        0x8
 *(.vector_38)
 .vector_38     0x9fc016c0        0x8 build/default/production/src/hal/hal_uart.o
                0x9fc016c0                __vector_dispatch_38
                0x00000001                ASSERT (((_vector_spacing == 0x0) || (SIZEOF (.vector_38) <= (_vector_spacing << 0x5))), function at exception vector 38 too large)

.vector_39      0x9fc016e0        0x8
 *(.vector_39)
 .vector_39     0x9fc016e0        0x8 build/default/production/src/hal/hal_uart.o
                0x9fc016e0                __vector_dispatch_39
                0x00000001                ASSERT (((_vector_spacing == 0x0) || (SIZEOF (.vector_39) <= (_vector_spacing << 0x5))), function at exception vector 39 too large)

.vector_40      0x9fc01700        0x8
 *(.vector_40)
 .vector_40     0x9fc01700        0x8 build/default/production/src/hal/hal_uart.o
                0x9fc01700                __vector_dispatch_40
                0x00000001                ASSERT (((_vector_spacing == 0x0) || (SIZEOF (.vector_40) <= (_vector_spacing << 0x5))), function at exception vector 40 too large)

.vector_41      0x9fc01720        0x8
 *(.vector_41)
 .vector_41     0x9fc01720        0x8 /opt/microchip/xc32/v1.31/bin/../lib/gcc/pic32mx/4.5.2/../../../../pic32mx/lib/mips16/libpic32.a(vector41.o)
                0x9fc01720                __vector_dispatch_41
                0x00000001                ASSERT (((_vector_spacing == 0x0) || (SIZEOF (.vector_41) <= (_vector_spacing << 0x5))), function at exception vector 41 too large)

.vector_42      0x9fc01740        0x8
 *(.vector_42)
 .vector_42     0x9fc01740        0x8 /opt/microchip/xc32/v1.31/bin/../lib/gcc/pic32mx/4.5.2/../../../../pic32mx/lib/mips16/libpic32.a(vector42.o)
                0x9fc01740                __vector_dispatch_42
                0x00000001                ASSERT (((_vector_spacing == 0x0) || (SIZEOF (.vector_42) <= (_vector_spacing << 0x5))), function at exception vector 42 too large)

.vector_43      0x9fc01760        0x8
 *(.vector_43)
 .vector_43     0x9fc01760        0x8 /opt/microchip/xc32/v1.31/bin/../lib/gcc/pic32mx/4.5.2/../../../../pic32mx/lib/mips16/libpic32.a(vector43.o)
                0x9fc01760                __vector_dispatch_43
                0x00000001                ASSERT (((_vector_spacing == 0x0) || (SIZEOF (.vector_43) <= (_vector_spacing << 0x5))), function at exception vector 43 too large)

.vector_44      0x9fc01780        0x8
 *(.vector_44)
 .vector_44     0x9fc01780        0x8 /opt/microchip/xc32/v1.31/bin/../lib/gcc/pic32mx/4.5.2/../../../../pic32mx/lib/mips16/libpic32.a(vector44.o)
                0x9fc01780                __vector_dispatch_44
                0x00000001                ASSERT (((_vector_spacing == 0x0) || (SIZEOF (.vector_44) <= (_vector_spacing << 0x5))), function at exception vector 44 too large)

.vector_45      0x9fc017a0        0x8
 *(.vector_45)
 .vector_45     0x9fc017a0        0x8 /opt/microchip/xc32/v1.31/bin/../lib/gcc/pic32mx/4.5.2/../../../../pic32mx/lib/mips16/libpic32.a(vector45.o)
                0x9fc017a0                __vector_dispatch_45
                0x00000001                ASSERT (((_vector_spacing == 0x0) || (SIZEOF (.vector_45) <= (_vector_spacing << 0x5))), function at exception vector 45 too large)

.vector_46      0x9fc017c0        0x8
 *(.vector_46)
 .vector_46     0x9fc017c0        0x8 /opt/microchip/xc32/v1.31/bin/../lib/gcc/pic32mx/4.5.2/../../../../pic32mx/lib/mips16/libpic32.a(vector46.o)
                0x9fc017c0                __vector_dispatch_46
                0x00000001                ASSERT (((_vector_spacing == 0x0) || (SIZEOF (.vector_46) <= (_vector_spacing << 0x5))), function at exception vector 46 too large)

.vector_47      0x9fc017e0        0x8
 *(.vector_47)
 .vector_47     0x9fc017e0        0x8 /opt/microchip/xc32/v1.31/bin/../lib/gcc/pic32mx/4.5.2/../../../../pic32mx/lib/mips16/libpic32.a(vector47.o)
                0x9fc017e0                __vector_dispatch_47
                0x00000001                ASSERT (((_vector_spacing == 0x0) || (SIZEOF (.vector_47) <= (_vector_spacing << 0x5))), function at exception vector 47 too large)

.vector_48      0x9fc01800        0x8
 *(.vector_48)
 .vector_48     0x9fc01800        0x8 /opt/microchip/xc32/v1.31/bin/../lib/gcc/pic32mx/4.5.2/../../../../pic32mx/lib/mips16/libpic32.a(vector48.o)
                0x9fc01800                __vector_dispatch_48
                0x00000001                ASSERT (((_vector_spacing == 0x0) || (SIZEOF (.vector_48) <= (_vector_spacing << 0x5))), function at exception vector 48 too large)

.vector_49      0x9fc01820        0x8
 *(.vector_49)
 .vector_49     0x9fc01820        0x8 /opt/microchip/xc32/v1.31/bin/../lib/gcc/pic32mx/4.5.2/../../../../pic32mx/lib/mips16/libpic32.a(vector49.o)
                0x9fc01820                __vector_dispatch_49
                0x00000001                ASSERT (((_vector_spacing == 0x0) || (SIZEOF (.vector_49) <= (_vector_spacing << 0x5))), function at exception vector 49 too large)

.vector_50      0x9fc01840        0x8
 *(.vector_50)
 .vector_50     0x9fc01840        0x8 /opt/microchip/xc32/v1.31/bin/../lib/gcc/pic32mx/4.5.2/../../../../pic32mx/lib/mips16/libpic32.a(vector50.o)
                0x9fc01840                __vector_dispatch_50
                0x00000001                ASSERT (((_vector_spacing == 0x0) || (SIZEOF (.vector_50) <= (_vector_spacing << 0x5))), function at exception vector 50 too large)

.vector_51      0x9fc01860        0x8
 *(.vector_51)
 .vector_51     0x9fc01860        0x8 /opt/microchip/xc32/v1.31/bin/../lib/gcc/pic32mx/4.5.2/../../../../pic32mx/lib/mips16/libpic32.a(vector51.o)
                0x9fc01860                __vector_dispatch_51
                0x00000001                ASSERT (((_vector_spacing == 0x0) || (SIZEOF (.vector_51) <= (_vector_spacing << 0x5))), function at exception vector 51 too large)

.vector_52      0x9fc01880        0x8
 *(.vector_52)
 .vector_52     0x9fc01880        0x8 /opt/microchip/xc32/v1.31/bin/../lib/gcc/pic32mx/4.5.2/../../../../pic32mx/lib/mips16/libpic32.a(vector52.o)
                0x9fc01880                __vector_dispatch_52
                0x00000001                ASSERT (((_vector_spacing == 0x0) || (SIZEOF (.vector_52) <= (_vector_spacing << 0x5))), function at exception vector 52 too large)

.vector_53      0x9fc018a0        0x8
 *(.vector_53)
 .vector_53     0x9fc018a0        0x8 /opt/microchip/xc32/v1.31/bin/../lib/gcc/pic32mx/4.5.2/../../../../pic32mx/lib/mips16/libpic32.a(vector53.o)
                0x9fc018a0                __vector_dispatch_53
                0x00000001                ASSERT (((_vector_spacing == 0x0) || (SIZEOF (.vector_53) <= (_vector_spacing << 0x5))), function at exception vector 53 too large)

.vector_54      0x9fc018c0        0x8
 *(.vector_54)
 .vector_54     0x9fc018c0        0x8 /opt/microchip/xc32/v1.31/bin/../lib/gcc/pic32mx/4.5.2/../../../../pic32mx/lib/mips16/libpic32.a(vector54.o)
                0x9fc018c0                __vector_dispatch_54
                0x00000001                ASSERT (((_vector_spacing == 0x0) || (SIZEOF (.vector_54) <= (_vector_spacing << 0x5))), function at exception vector 54 too large)

.vector_55      0x9fc018e0        0x8
 *(.vector_55)
 .vector_55     0x9fc018e0        0x8 /opt/microchip/xc32/v1.31/bin/../lib/gcc/pic32mx/4.5.2/../../../../pic32mx/lib/mips16/libpic32.a(vector55.o)
                0x9fc018e0                __vector_dispatch_55
                0x00000001                ASSERT (((_vector_spacing == 0x0) || (SIZEOF (.vector_55) <= (_vector_spacing << 0x5))), function at exception vector 55 too large)

.vector_56      0x9fc01900        0x8
 *(.vector_56)
 .vector_56     0x9fc01900        0x8 /opt/microchip/xc32/v1.31/bin/../lib/gcc/pic32mx/4.5.2/../../../../pic32mx/lib/mips16/libpic32.a(vector56.o)
                0x9fc01900                __vector_dispatch_56
                0x00000001                ASSERT (((_vector_spacing == 0x0) || (SIZEOF (.vector_56) <= (_vector_spacing << 0x5))), function at exception vector 56 too large)

.vector_57      0x9fc01920        0x8
 *(.vector_57)
 .vector_57     0x9fc01920        0x8 /opt/microchip/xc32/v1.31/bin/../lib/gcc/pic32mx/4.5.2/../../../../pic32mx/lib/mips16/libpic32.a(vector57.o)
                0x9fc01920                __vector_dispatch_57
                0x00000001                ASSERT (((_vector_spacing == 0x0) || (SIZEOF (.vector_57) <= (_vector_spacing << 0x5))), function at exception vector 57 too large)

.vector_58      0x9fc01940        0x8
 *(.vector_58)
 .vector_58     0x9fc01940        0x8 /opt/microchip/xc32/v1.31/bin/../lib/gcc/pic32mx/4.5.2/../../../../pic32mx/lib/mips16/libpic32.a(vector58.o)
                0x9fc01940                __vector_dispatch_58
                0x00000001                ASSERT (((_vector_spacing == 0x0) || (SIZEOF (.vector_58) <= (_vector_spacing << 0x5))), function at exception vector 58 too large)

.vector_59      0x9fc01960        0x8
 *(.vector_59)
 .vector_59     0x9fc01960        0x8 /opt/microchip/xc32/v1.31/bin/../lib/gcc/pic32mx/4.5.2/../../../../pic32mx/lib/mips16/libpic32.a(vector59.o)
                0x9fc01960                __vector_dispatch_59
                0x00000001                ASSERT (((_vector_spacing == 0x0) || (SIZEOF (.vector_59) <= (_vector_spacing << 0x5))), function at exception vector 59 too large)

.vector_60      0x9fc01980        0x8
 *(.vector_60)
 .vector_60     0x9fc01980        0x8 /opt/microchip/xc32/v1.31/bin/../lib/gcc/pic32mx/4.5.2/../../../../pic32mx/lib/mips16/libpic32.a(vector60.o)
                0x9fc01980                __vector_dispatch_60
                0x00000001                ASSERT (((_vector_spacing == 0x0) || (SIZEOF (.vector_60) <= (_vector_spacing << 0x5))), function at exception vector 60 too large)

.vector_61      0x9fc019a0        0x8
 *(.vector_61)
 .vector_61     0x9fc019a0        0x8 /opt/microchip/xc32/v1.31/bin/../lib/gcc/pic32mx/4.5.2/../../../../pic32mx/lib/mips16/libpic32.a(vector61.o)
                0x9fc019a0                __vector_dispatch_61
                0x00000001                ASSERT (((_vector_spacing == 0x0) || (SIZEOF (.vector_61) <= (_vector_spacing << 0x5))), function at exception vector 61 too large)

.vector_62      0x9fc019c0        0x8
 *(.vector_62)
 .vector_62     0x9fc019c0        0x8 /opt/microchip/xc32/v1.31/bin/../lib/gcc/pic32mx/4.5.2/../../../../pic32mx/lib/mips16/libpic32.a(vector62.o)
                0x9fc019c0                __vector_dispatch_62
                0x00000001                ASSERT (((_vector_spacing == 0x0) || (SIZEOF (.vector_62) <= (_vector_spacing << 0x5))), function at exception vector 62 too large)

.vector_63      0x9fc019e0        0x8
 *(.vector_63)
 .vector_63     0x9fc019e0        0x8 /opt/microchip/xc32/v1.31/bin/../lib/gcc/pic32mx/4.5.2/../../../../pic32mx/lib/mips16/libpic32.a(vector63.o)
                0x9fc019e0                __vector_dispatch_63
                0x00000001                ASSERT (((_vector_spacing == 0x0) || (SIZEOF (.vector_63) <= (_vector_spacing << 0x5))), function at exception vector 63 too large)

.startup
 *(.startup)

.text           0x9d000000        0x0
 *(.stub .gnu.linkonce.t.*)
 *(.text.*personality*)
 *(.mips16.fn.*)
 *(.mips16.call.*)
 *(.gnu.warning)
                0x9d000000                . = ALIGN (0x4)

.init           0x9d000000        0x0
 *crti.o(.init)
 *crtbegin.o(.init)
 *(EXCLUDE_FILE(*crtn.o *crtend?.o *crtend.o) .init)
 *crtend.o(.init)
 *crtn.o(.init)
                0x9d000000                . = ALIGN (0x4)

.fini           0x9d000000        0x0
 *(.fini)
                0x9d000000                . = ALIGN (0x4)

.preinit_array  0x9d000000        0x0
                0x9d000000                PROVIDE (__preinit_array_start, .)
 *(.preinit_array)
                0x9d000000                PROVIDE (__preinit_array_end, .)
                0x9d000000                . = ALIGN (0x4)

.init_array     0x9d000000        0x0
                0x9d000000                PROVIDE (__init_array_start, .)
 *(SORT(.init_array.*))
 *(.init_array)
                0x9d000000                PROVIDE (__init_array_end, .)
                0x9d000000                . = ALIGN (0x4)

.fini_array     0x9d000000        0x0
                0x9d000000                PROVIDE (__fini_array_start, .)
 *(SORT(.fini_array.*))
 *(.fini_array)
                0x9d000000                PROVIDE (__fini_array_end, .)
                0x9d000000                . = ALIGN (0x4)

.ctors          0x9d000000        0x0
 *crtbegin.o(.ctors)
 *crtbegin?.o(.ctors)
 *(EXCLUDE_FILE(*crtend?.o *crtend.o) .ctors)
 *(SORT(.ctors.*))
 *(.ctors)
                0x9d000000                . = ALIGN (0x4)

.dtors          0x9d000000        0x0
 *crtbegin.o(.dtors)
 *crtbegin?.o(.dtors)
 *(EXCLUDE_FILE(*crtend?.o *crtend.o) .dtors)
 *(SORT(.dtors.*))
 *(.dtors)
                0x9d000000                . = ALIGN (0x4)

.rodata         0x9d000000        0x0
 *(.gnu.linkonce.r.*)
 *(.rodata1)
                0x9d000000                . = ALIGN (0x4)

.sdata2         0x9fc00490        0x0
 *(.sdata2 .sdata2.* .gnu.linkonce.s2.*)
                0x9fc00490                . = ALIGN (0x4)

.sbss2          0x9fc00490        0x0
 *(.sbss2 .sbss2.* .gnu.linkonce.sb2.*)
                0x9fc00490                . = ALIGN (0x4)

.eh_frame_hdr
 *(.eh_frame_hdr)
                0x9fc00490                . = ALIGN (0x4)

.eh_frame
 *(.eh_frame)
                0x9fc00490                . = ALIGN (0x4)

.gcc_except_table
 *(.gcc_except_table .gcc_except_table.*)
                0x9fc00490                . = ALIGN (0x4)

.dbg_data       0xa0000000        0x0
                0xa0000000                . = (. + DEFINED (_DEBUGGER)?0x200:0x0)

.jcr            0xa0000000        0x0
 *(.jcr)
                0xa0000000                . = ALIGN (0x4)

.eh_frame       0xa0000000       0x40
 *(.eh_frame)
 .eh_frame      0xa0000000       0x28 /opt/microchip/xc32/v1.31/bin/../lib/gcc/pic32mx/4.5.2/mips16/libgcc.a(_udivdi3.o)
 .eh_frame      0xa0000028       0x18 /opt/microchip/xc32/v1.31/bin/../lib/gcc/pic32mx/4.5.2/mips16/libgcc.a(_umoddi3.o)
                0xa0000040                . = ALIGN (0x4)

.gcc_except_table
 *(.gcc_except_table .gcc_except_table.*)
                0xa0000040                . = ALIGN (0x4)

.persist        0xa0000040        0x0
                0xa0000040                _persist_begin = .
 *(.persist .persist.*)
 *(.pbss .pbss.*)
                0xa0000040                . = ALIGN (0x4)
                0xa0000040                _persist_end = .

.data           0xa0000040        0x0
 *(.gnu.linkonce.d.*)
 *(.data1)
                0xa0000040                . = ALIGN (0x4)
                0xa0000040                . = .
                0xa0008030                _gp = (ALIGN (0x10) + 0x7ff0)

.got            0xa0000040        0x0
 *(.got.plt)
 *(.got)
                0xa0000040                . = ALIGN (0x4)

.sdata          0xa0000040       0x2c
                0xa0000040                _sdata_begin = .
 *(.sdata .sdata.* .gnu.linkonce.s.*)
 .sdata         0xa0000040       0x10 build/default/production/src/drivers/dispkyb.o
 .sdata         0xa0000050        0x8 build/default/production/src/FreeRTOS/portable/MemMang/heap_4.o
 .sdata         0xa0000058        0x4 build/default/production/src/FreeRTOS/portable/MPLAB/PIC32MX/port.o
                0xa0000058                uxInterruptNesting
 .sdata         0xa000005c        0x4 build/default/production/src/FreeRTOS/tasks.o
 .sdata         0xa0000060        0x4 build/default/production/src/sys/src/settings.o
 .sdata         0xa0000064        0x1 build/default/production/src/tasks/tskmgr.o
                0xa0000064                repeat_key
 *fill*         0xa0000065        0x3 
 .sdata         0xa0000068        0x4 /opt/microchip/xc32/v1.31/bin/../lib/gcc/pic32mx/4.5.2/../../../../pic32mx/lib/mips16/libc.a(_iob.o)
                0xa0000068                _Files
                0xa000006c                . = ALIGN (0x4)
                0xa000006c                _sdata_end = .

.lit8
 *(.lit8)

.lit4
 *(.lit4)
                0xa000006c                . = ALIGN (0x4)
                0xa000006c                _data_end = .
                0xa000006c                _bss_begin = .

.sbss           0xa000006c      0x108
                0xa000006c                _sbss_begin = .
 *(.dynsbss)
 *(.sbss .sbss.* .gnu.linkonce.sb.*)
 .sbss          0xa000006c       0x1c build/default/production/src/drivers/dispkyb.o
 .sbss          0xa0000088        0x8 build/default/production/src/drivers/adc.o
 .sbss          0xa0000090       0x10 build/default/production/src/FreeRTOS/portable/MemMang/heap_4.o
 .sbss          0xa00000a0        0x4 build/default/production/src/FreeRTOS/portable/MPLAB/PIC32MX/port.o
                0xa00000a0                uxSavedTaskStackPointer
 .sbss          0xa00000a4       0x34 build/default/production/src/FreeRTOS/tasks.o
                0xa00000a4                pxCurrentTCB
 .sbss          0xa00000d8       0x1c build/default/production/src/FreeRTOS/croutine.o
                0xa00000e0                pxCurrentCoRoutine
 .sbss          0xa00000f4        0x4 build/default/production/src/hal/exceptions.o
 .sbss          0xa00000f8        0xc build/default/production/src/hal/hal_adc.o
 .sbss          0xa0000104        0x8 build/default/production/src/hal/hal_timer.o
 *fill*         0xa000010c        0x4 
 .sbss          0xa0000110       0x30 build/default/production/src/sys/src/system.o
 .sbss          0xa0000140        0x4 build/default/production/src/sys/src/settings.o
                0xa0000140                slock
 .sbss          0xa0000144        0x8 build/default/production/src/tasks/task_calibration.o
 .sbss          0xa000014c        0x8 build/default/production/src/tasks/task_multimeter.o
 .sbss          0xa0000154        0x8 build/default/production/src/tasks/tskmgr.o
                0xa0000158                shift_key
 .sbss          0xa000015c        0x4 build/default/production/src/utils/src/util_ringbuff.o
 .sbss          0xa0000160        0x4 /opt/microchip/xc32/v1.31/bin/../lib/gcc/pic32mx/4.5.2/../../../../pic32mx/lib/mips16/libpic32.a(errno.o)
                0xa0000160                errno
 .sbss          0xa0000164        0x1 /opt/microchip/xc32/v1.31/bin/../lib/gcc/pic32mx/4.5.2/../../../../pic32mx/lib/mips16/libc.a(_iob.o)
                0xa0000164                _outdone
 *(.scommon)
 *fill*         0xa0000165        0x3 
 .scommon       0xa0000168        0x4 build/default/production/src/drivers/dispkyb.o
                0xa0000168                event_queue
 .scommon       0xa000016c        0x4 build/default/production/src/drivers/usb_uart.o
                0xa000016c                usb_queue
 .scommon       0xa0000170        0x4 build/default/production/src/utils/src/diag.o
                0xa0000170                gui32DebugFlags
                0xa0000174                _sbss_end = .
                0xa0000174                . = ALIGN (0x4)

.bss            0xa0000174       0x9c
 *(.dynbss)
 *(COMMON)
 COMMON         0xa0000174       0x28 build/default/production/src/hal/hal_uart.o
                0xa0000174                on_data_received
                0xa0000188                on_data_sent
 COMMON         0xa000019c       0x32 build/default/production/src/tasks/task_scpi.o
                0xa000019c                buff
 *fill*         0xa00001ce        0x2 
 COMMON         0xa00001d0       0x40 build/default/production/src/utils/src/util_ringbuff.o
                0xa00001d0                buffers
                0xa0000210                . = ALIGN ((. != 0x0)?0x4:0x1)
                0xa0000210                . = ALIGN (0x4)
                0xa0000210                _end = .
                0xa0000210                _bss_end = .
                0x00010000                _bmxdudba_address = 0x10000
                0x00010000                _bmxdupba_address = 0x10000

/DISCARD/
 *(.pdr)
 *(.rel.dyn)
 *(.note.GNU-stack)
 *(.note.GNU-stack)
 *(.gnu_debuglink)
 *(.gnu.lto_*)
 *(.discard)

.gptab.sdata
 *(.gptab.data)
 *(.gptab.sdata)

.gptab.sbss
 *(.gptab.bss)
 *(.gptab.sbss)

.mdebug.abi32   0xa0000210        0x0
 *(.mdebug.abi32)
 .mdebug.abi32  0xa0000210        0x0 build/default/production/src/drivers/eeprom.o
 .mdebug.abi32  0xa0000210        0x0 build/default/production/src/drivers/tmp275.o
 .mdebug.abi32  0xa0000210        0x0 build/default/production/src/drivers/dispkyb.o
 .mdebug.abi32  0xa0000210        0x0 build/default/production/src/drivers/usb_uart.o
 .mdebug.abi32  0xa0000210        0x0 build/default/production/src/drivers/adc.o
 .mdebug.abi32  0xa0000210        0x0 build/default/production/src/drivers/adcctrl.o
 .mdebug.abi32  0xa0000210        0x0 build/default/production/src/eefs/crc32.o
 .mdebug.abi32  0xa0000210        0x0 build/default/production/src/eefs/eefs.o
 .mdebug.abi32  0xa0000210        0x0 build/default/production/src/FreeRTOS/portable/MemMang/heap_4.o
 .mdebug.abi32  0xa0000210        0x0 build/default/production/src/FreeRTOS/portable/MPLAB/PIC32MX/port.o
 .mdebug.abi32  0xa0000210        0x0 build/default/production/src/FreeRTOS/timers.o
 .mdebug.abi32  0xa0000210        0x0 build/default/production/src/FreeRTOS/tasks.o
 .mdebug.abi32  0xa0000210        0x0 build/default/production/src/FreeRTOS/list.o
 .mdebug.abi32  0xa0000210        0x0 build/default/production/src/FreeRTOS/event_groups.o
 .mdebug.abi32  0xa0000210        0x0 build/default/production/src/FreeRTOS/croutine.o
 .mdebug.abi32  0xa0000210        0x0 build/default/production/src/FreeRTOS/queue.o
 .mdebug.abi32  0xa0000210        0x0 build/default/production/src/hal/fuses.o
 .mdebug.abi32  0xa0000210        0x0 build/default/production/src/hal/exceptions.o
 .mdebug.abi32  0xa0000210        0x0 build/default/production/src/hal/hal_adc.o
 .mdebug.abi32  0xa0000210        0x0 build/default/production/src/hal/hal_uart.o
 .mdebug.abi32  0xa0000210        0x0 build/default/production/src/hal/hal_i2c.o
 .mdebug.abi32  0xa0000210        0x0 build/default/production/src/hal/hal_spi.o
 .mdebug.abi32  0xa0000210        0x0 build/default/production/src/hal/hal_timer.o
 .mdebug.abi32  0xa0000210        0x0 build/default/production/src/hal/hal_io.o
 .mdebug.abi32  0xa0000210        0x0 build/default/production/src/hal/hal_sys.o
 .mdebug.abi32  0xa0000210        0x0 build/default/production/src/scpi-parser/libscpi/src/lexer.o
 .mdebug.abi32  0xa0000210        0x0 build/default/production/src/scpi-parser/libscpi/src/error.o
 .mdebug.abi32  0xa0000210        0x0 build/default/production/src/scpi-parser/libscpi/src/fifo.o
 .mdebug.abi32  0xa0000210        0x0 build/default/production/src/scpi-parser/libscpi/src/ieee488.o
 .mdebug.abi32  0xa0000210        0x0 build/default/production/src/scpi-parser/libscpi/src/minimal.o
 .mdebug.abi32  0xa0000210        0x0 build/default/production/src/scpi-parser/libscpi/src/parser.o
 .mdebug.abi32  0xa0000210        0x0 build/default/production/src/scpi-parser/libscpi/src/units.o
 .mdebug.abi32  0xa0000210        0x0 build/default/production/src/scpi-parser/libscpi/src/utils.o
 .mdebug.abi32  0xa0000210        0x0 build/default/production/src/sys/src/system.o
 .mdebug.abi32  0xa0000210        0x0 build/default/production/src/sys/src/settings.o
 .mdebug.abi32  0xa0000210        0x0 build/default/production/src/tasks/task_calibration.o
 .mdebug.abi32  0xa0000210        0x0 build/default/production/src/tasks/task_multimeter.o
 .mdebug.abi32  0xa0000210        0x0 build/default/production/src/tasks/main.o
 .mdebug.abi32  0xa0000210        0x0 build/default/production/src/tasks/tskmgr.o
 .mdebug.abi32  0xa0000210        0x0 build/default/production/src/tasks/task_scpi.o
 .mdebug.abi32  0xa0000210        0x0 build/default/production/src/utils/fcvt-1.1/fcvt.o
 .mdebug.abi32  0xa0000210        0x0 build/default/production/src/utils/src/diag.o
 .mdebug.abi32  0xa0000210        0x0 build/default/production/src/utils/src/fitlinear.o
 .mdebug.abi32  0xa0000210        0x0 build/default/production/src/utils/src/disfmt.o
 .mdebug.abi32  0xa0000210        0x0 build/default/production/src/utils/src/util_ringbuff.o
 .mdebug.abi32  0xa0000210        0x0 build/default/production/src/utils/src/strutils.o
 .mdebug.abi32  0xa0000210        0x0 /opt/microchip/xc32/v1.31/bin/../lib/gcc/pic32mx/4.5.2/../../../../pic32mx/lib/mips16/libmchp_peripheral.a(open_core_timer_lib.o)
 .mdebug.abi32  0xa0000210        0x0 /opt/microchip/xc32/v1.31/bin/../lib/gcc/pic32mx/4.5.2/../../../../pic32mx/lib/mips16/libmchp_peripheral.a(update_core_timer_lib.o)
 .mdebug.abi32  0xa0000210        0x0 /opt/microchip/xc32/v1.31/bin/../lib/gcc/pic32mx/4.5.2/../../../../pic32mx/lib/mips16/libmchp_peripheral_32MX350F256L.a(pcache.o)
 .mdebug.abi32  0xa0000210        0x0 /opt/microchip/xc32/v1.31/bin/../lib/gcc/pic32mx/4.5.2/../../../../pic32mx/lib/mips16/libmchp_peripheral_32MX350F256L.a(int_configure_system_lib.o)
 .mdebug.abi32  0xa0000210        0x0 /opt/microchip/xc32/v1.31/bin/../lib/gcc/pic32mx/4.5.2/../../../../pic32mx/lib/mips16/libmchp_peripheral_32MX350F256L.a(int_disable_interrupts_lib.o)
 .mdebug.abi32  0xa0000210        0x0 /opt/microchip/xc32/v1.31/bin/../lib/gcc/pic32mx/4.5.2/../../../../pic32mx/lib/mips16/libmchp_peripheral_32MX350F256L.a(int_restore_interrupts_lib.o)
 .mdebug.abi32  0xa0000210        0x0 /opt/microchip/xc32/v1.31/bin/../lib/gcc/pic32mx/4.5.2/../../../../pic32mx/lib/mips16/libmchp_peripheral_32MX350F256L.a(int_tbl_lib.o)
 .mdebug.abi32  0xa0000210        0x0 /opt/microchip/xc32/v1.31/bin/../lib/gcc/pic32mx/4.5.2/../../../../pic32mx/lib/mips16/libmchp_peripheral_32MX350F256L.a(spi_chn_open_lib.o)
 .mdebug.abi32  0xa0000210        0x0 /opt/microchip/xc32/v1.31/bin/../lib/gcc/pic32mx/4.5.2/../../../../pic32mx/lib/mips16/libmchp_peripheral_32MX350F256L.a(spi_chn_putc_lib.o)
 .mdebug.abi32  0xa0000210        0x0 /opt/microchip/xc32/v1.31/bin/../lib/gcc/pic32mx/4.5.2/../../../../pic32mx/lib/mips16/libmchp_peripheral_32MX350F256L.a(spi_map_tbl_libp.o)
 .mdebug.abi32  0xa0000210        0x0 /opt/microchip/xc32/v1.31/bin/../lib/gcc/pic32mx/4.5.2/../../../../pic32mx/lib/mips16/libmchp_peripheral_32MX350F256L.a(power_idle_lib.o)
 .mdebug.abi32  0xa0000210        0x0 /opt/microchip/xc32/v1.31/bin/../lib/gcc/pic32mx/4.5.2/../../../../pic32mx/lib/mips16/libmchp_peripheral_32MX350F256L.a(port_set_pins_digital_in_lib.o)
 .mdebug.abi32  0xa0000210        0x0 /opt/microchip/xc32/v1.31/bin/../lib/gcc/pic32mx/4.5.2/../../../../pic32mx/lib/mips16/libmchp_peripheral_32MX350F256L.a(port_set_pins_digital_out_lib.o)
 .mdebug.abi32  0xa0000210        0x0 /opt/microchip/xc32/v1.31/bin/../lib/gcc/pic32mx/4.5.2/../../../../pic32mx/lib/mips16/libmchp_peripheral_32MX350F256L.a(port_read_bits_lib.o)
 .mdebug.abi32  0xa0000210        0x0 /opt/microchip/xc32/v1.31/bin/../lib/gcc/pic32mx/4.5.2/../../../../pic32mx/lib/mips16/libmchp_peripheral_32MX350F256L.a(port_clear_bits_lib.o)
 .mdebug.abi32  0xa0000210        0x0 /opt/microchip/xc32/v1.31/bin/../lib/gcc/pic32mx/4.5.2/../../../../pic32mx/lib/mips16/libmchp_peripheral_32MX350F256L.a(port_set_bits_lib.o)
 .mdebug.abi32  0xa0000210        0x0 /opt/microchip/xc32/v1.31/bin/../lib/gcc/pic32mx/4.5.2/../../../../pic32mx/lib/mips16/libmchp_peripheral_32MX350F256L.a(port_toggle_bits_lib.o)
 .mdebug.abi32  0xa0000210        0x0 /opt/microchip/xc32/v1.31/bin/../lib/gcc/pic32mx/4.5.2/../../../../pic32mx/lib/mips16/libmchp_peripheral_32MX350F256L.a(_ports_tbl_libp.o)
 .mdebug.abi32  0xa0000210        0x0 /opt/microchip/xc32/v1.31/bin/../lib/gcc/pic32mx/4.5.2/../../../../pic32mx/lib/mips16/libmchp_peripheral_32MX350F256L.a(uart_lib.o)
 .mdebug.abi32  0xa0000210        0x0 /opt/microchip/xc32/v1.31/bin/../lib/gcc/pic32mx/4.5.2/../../../../pic32mx/lib/mips16/libmchp_peripheral_32MX350F256L.a(I2CAcknowledgeByte.o)
 .mdebug.abi32  0xa0000210        0x0 /opt/microchip/xc32/v1.31/bin/../lib/gcc/pic32mx/4.5.2/../../../../pic32mx/lib/mips16/libmchp_peripheral_32MX350F256L.a(I2CAcknowledgeHasCompleted.o)
 .mdebug.abi32  0xa0000210        0x0 /opt/microchip/xc32/v1.31/bin/../lib/gcc/pic32mx/4.5.2/../../../../pic32mx/lib/mips16/libmchp_peripheral_32MX350F256L.a(I2CBusIsIdle.o)
 .mdebug.abi32  0xa0000210        0x0 /opt/microchip/xc32/v1.31/bin/../lib/gcc/pic32mx/4.5.2/../../../../pic32mx/lib/mips16/libmchp_peripheral_32MX350F256L.a(I2CByteWasAcknowledged.o)
 .mdebug.abi32  0xa0000210        0x0 /opt/microchip/xc32/v1.31/bin/../lib/gcc/pic32mx/4.5.2/../../../../pic32mx/lib/mips16/libmchp_peripheral_32MX350F256L.a(I2CConfigure.o)
 .mdebug.abi32  0xa0000210        0x0 /opt/microchip/xc32/v1.31/bin/../lib/gcc/pic32mx/4.5.2/../../../../pic32mx/lib/mips16/libmchp_peripheral_32MX350F256L.a(I2CEnable.o)
 .mdebug.abi32  0xa0000210        0x0 /opt/microchip/xc32/v1.31/bin/../lib/gcc/pic32mx/4.5.2/../../../../pic32mx/lib/mips16/libmchp_peripheral_32MX350F256L.a(I2CGetByte.o)
 .mdebug.abi32  0xa0000210        0x0 /opt/microchip/xc32/v1.31/bin/../lib/gcc/pic32mx/4.5.2/../../../../pic32mx/lib/mips16/libmchp_peripheral_32MX350F256L.a(I2CGetStatus.o)
 .mdebug.abi32  0xa0000210        0x0 /opt/microchip/xc32/v1.31/bin/../lib/gcc/pic32mx/4.5.2/../../../../pic32mx/lib/mips16/libmchp_peripheral_32MX350F256L.a(I2CReceivedDataIsAvailable.o)
 .mdebug.abi32  0xa0000210        0x0 /opt/microchip/xc32/v1.31/bin/../lib/gcc/pic32mx/4.5.2/../../../../pic32mx/lib/mips16/libmchp_peripheral_32MX350F256L.a(I2CReceiverEnable.o)
 .mdebug.abi32  0xa0000210        0x0 /opt/microchip/xc32/v1.31/bin/../lib/gcc/pic32mx/4.5.2/../../../../pic32mx/lib/mips16/libmchp_peripheral_32MX350F256L.a(I2CRepeatStart.o)
 .mdebug.abi32  0xa0000210        0x0 /opt/microchip/xc32/v1.31/bin/../lib/gcc/pic32mx/4.5.2/../../../../pic32mx/lib/mips16/libmchp_peripheral_32MX350F256L.a(I2CSendByte.o)
 .mdebug.abi32  0xa0000210        0x0 /opt/microchip/xc32/v1.31/bin/../lib/gcc/pic32mx/4.5.2/../../../../pic32mx/lib/mips16/libmchp_peripheral_32MX350F256L.a(I2CSetFrequency.o)
 .mdebug.abi32  0xa0000210        0x0 /opt/microchip/xc32/v1.31/bin/../lib/gcc/pic32mx/4.5.2/../../../../pic32mx/lib/mips16/libmchp_peripheral_32MX350F256L.a(I2CStart.o)
 .mdebug.abi32  0xa0000210        0x0 /opt/microchip/xc32/v1.31/bin/../lib/gcc/pic32mx/4.5.2/../../../../pic32mx/lib/mips16/libmchp_peripheral_32MX350F256L.a(I2CStop.o)
 .mdebug.abi32  0xa0000210        0x0 /opt/microchip/xc32/v1.31/bin/../lib/gcc/pic32mx/4.5.2/../../../../pic32mx/lib/mips16/libmchp_peripheral_32MX350F256L.a(I2CTransmissionHasCompleted.o)
 .mdebug.abi32  0xa0000210        0x0 /opt/microchip/xc32/v1.31/bin/../lib/gcc/pic32mx/4.5.2/../../../../pic32mx/lib/mips16/libmchp_peripheral_32MX350F256L.a(I2CTransmitterIsReady.o)
 .mdebug.abi32  0xa0000210        0x0 /opt/microchip/xc32/v1.31/bin/../lib/gcc/pic32mx/4.5.2/../../../../pic32mx/lib/mips16/libmchp_peripheral_32MX350F256L.a(I2CPrivate.o)
 .mdebug.abi32  0xa0000210        0x0 /opt/microchip/xc32/v1.31/bin/../lib/gcc/pic32mx/4.5.2/mips16/libgcc.a(_floatundidf.o)
 .mdebug.abi32  0xa0000210        0x0 /opt/microchip/xc32/v1.31/bin/../lib/gcc/pic32mx/4.5.2/mips16/libgcc.a(_udivdi3.o)
 .mdebug.abi32  0xa0000210        0x0 /opt/microchip/xc32/v1.31/bin/../lib/gcc/pic32mx/4.5.2/mips16/libgcc.a(floatunsidf.o)
 .mdebug.abi32  0xa0000210        0x0 /opt/microchip/xc32/v1.31/bin/../lib/gcc/pic32mx/4.5.2/mips16/libgcc.a(floatunsisf.o)
 .mdebug.abi32  0xa0000210        0x0 /opt/microchip/xc32/v1.31/bin/../lib/gcc/pic32mx/4.5.2/mips16/libgcc.a(_clz.o)
 .mdebug.abi32  0xa0000210        0x0 /opt/microchip/xc32/v1.31/bin/../lib/gcc/pic32mx/4.5.2/../../../../pic32mx/lib/mips16/libpic32.a(default-bootstrap-exception-handler.o)
 .mdebug.abi32  0xa0000210        0x0 /opt/microchip/xc32/v1.31/bin/../lib/gcc/pic32mx/4.5.2/../../../../pic32mx/lib/mips16/libpic32.a(default-on-reset.o)
 .mdebug.abi32  0xa0000210        0x0 /opt/microchip/xc32/v1.31/bin/../lib/gcc/pic32mx/4.5.2/../../../../pic32mx/lib/mips16/libpic32.a(default-on-bootstrap.o)
 .mdebug.abi32  0xa0000210        0x0 /opt/microchip/xc32/v1.31/bin/../lib/gcc/pic32mx/4.5.2/../../../../pic32mx/lib/mips16/libm.a(w_pow.o)
 .mdebug.abi32  0xa0000210        0x0 /opt/microchip/xc32/v1.31/bin/../lib/gcc/pic32mx/4.5.2/../../../../pic32mx/lib/mips16/libm.a(w_log10.o)
 .mdebug.abi32  0xa0000210        0x0 /opt/microchip/xc32/v1.31/bin/../lib/gcc/pic32mx/4.5.2/../../../../pic32mx/lib/mips16/libm.a(floor.o)
 .mdebug.abi32  0xa0000210        0x0 /opt/microchip/xc32/v1.31/bin/../lib/gcc/pic32mx/4.5.2/../../../../pic32mx/lib/mips16/libm.a(w_sqrt.o)
 .mdebug.abi32  0xa0000210        0x0 /opt/microchip/xc32/v1.31/bin/../lib/gcc/pic32mx/4.5.2/../../../../pic32mx/lib/mips16/libm.a(s_lib_ver.o)
 .mdebug.abi32  0xa0000210        0x0 /opt/microchip/xc32/v1.31/bin/../lib/gcc/pic32mx/4.5.2/../../../../pic32mx/lib/mips16/libm.a(support.o)
 .mdebug.abi32  0xa0000210        0x0 /opt/microchip/xc32/v1.31/bin/../lib/gcc/pic32mx/4.5.2/../../../../pic32mx/lib/mips16/libm.a(w_ldexp.o)
 .mdebug.abi32  0xa0000210        0x0 /opt/microchip/xc32/v1.31/bin/../lib/gcc/pic32mx/4.5.2/../../../../pic32mx/lib/mips16/libe.a(_unorddf2.o)
 .mdebug.abi32  0xa0000210        0x0 /opt/microchip/xc32/v1.31/bin/../lib/gcc/pic32mx/4.5.2/../../../../pic32mx/lib/mips16/libpic32.a(errno.o)
 .mdebug.abi32  0xa0000210        0x0 /opt/microchip/xc32/v1.31/bin/../lib/gcc/pic32mx/4.5.2/../../../../pic32mx/lib/mips16/libpic32.a(isinf.o)
 .mdebug.abi32  0xa0000210        0x0 /opt/microchip/xc32/v1.31/bin/../lib/gcc/pic32mx/4.5.2/../../../../pic32mx/lib/mips16/libc.a(_iob.o)
 .mdebug.abi32  0xa0000210        0x0 /opt/microchip/xc32/v1.31/bin/../lib/gcc/pic32mx/4.5.2/../../../../pic32mx/lib/mips16/libc.a(fwrite.o)
 .mdebug.abi32  0xa0000210        0x0 /opt/microchip/xc32/v1.31/bin/../lib/gcc/pic32mx/4.5.2/../../../../pic32mx/lib/mips16/libc.a(ctype.o)
 .mdebug.abi32  0xa0000210        0x0 /opt/microchip/xc32/v1.31/bin/../lib/gcc/pic32mx/4.5.2/../../../../pic32mx/lib/mips16/libc.a(ctypef.o)
 .mdebug.abi32  0xa0000210        0x0 /opt/microchip/xc32/v1.31/bin/../lib/gcc/pic32mx/4.5.2/../../../../pic32mx/lib/mips16/libc.a(memcmp.o)
 .mdebug.abi32  0xa0000210        0x0 /opt/microchip/xc32/v1.31/bin/../lib/gcc/pic32mx/4.5.2/../../../../pic32mx/lib/mips16/libc.a(memcpy.o)
 .mdebug.abi32  0xa0000210        0x0 /opt/microchip/xc32/v1.31/bin/../lib/gcc/pic32mx/4.5.2/../../../../pic32mx/lib/mips16/libc.a(memmove.o)
 .mdebug.abi32  0xa0000210        0x0 /opt/microchip/xc32/v1.31/bin/../lib/gcc/pic32mx/4.5.2/../../../../pic32mx/lib/mips16/libc.a(memset.o)
 .mdebug.abi32  0xa0000210        0x0 /opt/microchip/xc32/v1.31/bin/../lib/gcc/pic32mx/4.5.2/../../../../pic32mx/lib/mips16/libc.a(puts.o)
 .mdebug.abi32  0xa0000210        0x0 /opt/microchip/xc32/v1.31/bin/../lib/gcc/pic32mx/4.5.2/../../../../pic32mx/lib/mips16/libc.a(strchr.o)
 .mdebug.abi32  0xa0000210        0x0 /opt/microchip/xc32/v1.31/bin/../lib/gcc/pic32mx/4.5.2/../../../../pic32mx/lib/mips16/libc.a(strlen.o)
 .mdebug.abi32  0xa0000210        0x0 /opt/microchip/xc32/v1.31/bin/../lib/gcc/pic32mx/4.5.2/../../../../pic32mx/lib/mips16/libc.a(strncasecmp.o)
 .mdebug.abi32  0xa0000210        0x0 /opt/microchip/xc32/v1.31/bin/../lib/gcc/pic32mx/4.5.2/../../../../pic32mx/lib/mips16/libc.a(strncat.o)
 .mdebug.abi32  0xa0000210        0x0 /opt/microchip/xc32/v1.31/bin/../lib/gcc/pic32mx/4.5.2/../../../../pic32mx/lib/mips16/libc.a(strncpy.o)
 .mdebug.abi32  0xa0000210        0x0 /opt/microchip/xc32/v1.31/bin/../lib/gcc/pic32mx/4.5.2/../../../../pic32mx/lib/mips16/libc.a(strtod.o)
 .mdebug.abi32  0xa0000210        0x0 /opt/microchip/xc32/v1.31/bin/../lib/gcc/pic32mx/4.5.2/../../../../pic32mx/lib/mips16/libc.a(strtof.o)
 .mdebug.abi32  0xa0000210        0x0 /opt/microchip/xc32/v1.31/bin/../lib/gcc/pic32mx/4.5.2/../../../../pic32mx/lib/mips16/libc.a(strstr.o)
 .mdebug.abi32  0xa0000210        0x0 /opt/microchip/xc32/v1.31/bin/../lib/gcc/pic32mx/4.5.2/../../../../pic32mx/lib/mips16/libc.a(strtol.o)
 .mdebug.abi32  0xa0000210        0x0 /opt/microchip/xc32/v1.31/bin/../lib/gcc/pic32mx/4.5.2/../../../../pic32mx/lib/mips16/libc.a(strtoll.o)
 .mdebug.abi32  0xa0000210        0x0 /opt/microchip/xc32/v1.31/bin/../lib/gcc/pic32mx/4.5.2/../../../../pic32mx/lib/mips16/libc.a(printf_cdfFnopsuxX.eo)
 .mdebug.abi32  0xa0000210        0x0 /opt/microchip/xc32/v1.31/bin/../lib/gcc/pic32mx/4.5.2/../../../../pic32mx/lib/mips16/libc.a(vprintf.o)
 .mdebug.abi32  0xa0000210        0x0 /opt/microchip/xc32/v1.31/bin/../lib/gcc/pic32mx/4.5.2/../../../../pic32mx/lib/mips16/libc.a(snprintf_gG.eo)
 .mdebug.abi32  0xa0000210        0x0 /opt/microchip/xc32/v1.31/bin/../lib/gcc/pic32mx/4.5.2/../../../../pic32mx/lib/mips16/libc.a(vsnprintf_gG.eo)
 .mdebug.abi32  0xa0000210        0x0 /opt/microchip/xc32/v1.31/bin/../lib/gcc/pic32mx/4.5.2/../../../../pic32mx/lib/mips16/libc.a(fflush.o)
 .mdebug.abi32  0xa0000210        0x0 /opt/microchip/xc32/v1.31/bin/../lib/gcc/pic32mx/4.5.2/../../../../pic32mx/lib/mips16/libc.a(_fputc_simple.o)
 .mdebug.abi32  0xa0000210        0x0 /opt/microchip/xc32/v1.31/bin/../lib/gcc/pic32mx/4.5.2/../../../../pic32mx/lib/mips16/libc.a(fseek.o)
 .mdebug.abi32  0xa0000210        0x0 /opt/microchip/xc32/v1.31/bin/../lib/gcc/pic32mx/4.5.2/../../../../pic32mx/lib/mips16/libc.a(strncmp.o)
 .mdebug.abi32  0xa0000210        0x0 /opt/microchip/xc32/v1.31/bin/../lib/gcc/pic32mx/4.5.2/../../../../pic32mx/lib/mips16/libc.a(doprnt.o)
 .mdebug.abi32  0xa0000210        0x0 /opt/microchip/xc32/v1.31/bin/../lib/gcc/pic32mx/4.5.2/../../../../pic32mx/lib/mips16/libc.a(_flsbuf_simple.o)
 .mdebug.abi32  0xa0000210        0x0 /opt/microchip/xc32/v1.31/bin/../lib/gcc/pic32mx/4.5.2/../../../../pic32mx/lib/mips16/libc.a(powersf.o)
 .mdebug.abi32  0xa0000210        0x0 /opt/microchip/xc32/v1.31/bin/../lib/gcc/pic32mx/4.5.2/../../../../pic32mx/lib/mips16/libpic32.a(write.o)
 .mdebug.abi32  0xa0000210        0x0 /opt/microchip/xc32/v1.31/bin/../lib/gcc/pic32mx/4.5.2/../../../../pic32mx/lib/mips16/libpic32.a(lseek.o)
 .mdebug.abi32  0xa0000210        0x0 /opt/microchip/xc32/v1.31/bin/../lib/gcc/pic32mx/4.5.2/../../../../pic32mx/lib/mips16/libe.a(_floatdisf.o)
 .mdebug.abi32  0xa0000210        0x0 /opt/microchip/xc32/v1.31/bin/../lib/gcc/pic32mx/4.5.2/../../../../pic32mx/lib/mips16/libe.a(_strtod.o)
 .mdebug.abi32  0xa0000210        0x0 /opt/microchip/xc32/v1.31/bin/../lib/gcc/pic32mx/4.5.2/../../../../pic32mx/lib/mips16/libe.a(_strtof.o)
 .mdebug.abi32  0xa0000210        0x0 /opt/microchip/xc32/v1.31/bin/../lib/gcc/pic32mx/4.5.2/../../../../pic32mx/lib/mips16/libe.a(_ldexp.o)
 .mdebug.abi32  0xa0000210        0x0 /opt/microchip/xc32/v1.31/bin/../lib/gcc/pic32mx/4.5.2/../../../../pic32mx/lib/mips16/libe.a(_ldexpf.o)
 .mdebug.abi32  0xa0000210        0x0 /opt/microchip/xc32/v1.31/bin/../lib/gcc/pic32mx/4.5.2/mips16/libgcc.a(_lshrdi3.o)
 .mdebug.abi32  0xa0000210        0x0 /opt/microchip/xc32/v1.31/bin/../lib/gcc/pic32mx/4.5.2/mips16/libgcc.a(_floatundisf.o)
 .mdebug.abi32  0xa0000210        0x0 /opt/microchip/xc32/v1.31/bin/../lib/gcc/pic32mx/4.5.2/mips16/libgcc.a(_umoddi3.o)
 .mdebug.abi32  0xa0000210        0x0 /opt/microchip/xc32/v1.31/bin/../lib/gcc/pic32mx/4.5.2/../../../../pic32mx/lib/mips16/libc.a(doprnt_cdfFgGnopsuxX.eo)

.mdebug.abiN32
 *(.mdebug.abiN32)

.mdebug.abi64
 *(.mdebug.abi64)

.mdebug.abiO64
 *(.mdebug.abiO64)

.mdebug.eabi32
 *(.mdebug.eabi32)

.mdebug.eabi64
 *(.mdebug.eabi64)

.gcc_compiled_long32
 *(.gcc_compiled_long32)

.gcc_compiled_long64
 *(.gcc_compiled_long64)

.stab
 *(.stab)

.stabstr
 *(.stabstr)

.stab.excl
 *(.stab.excl)

.stab.exclstr
 *(.stab.exclstr)

.stab.index
 *(.stab.index)

.stab.indexstr
 *(.stab.indexstr)

.comment        0x00000000      0x32d
 *(.comment)
 .comment       0x00000000       0x3c build/default/production/src/drivers/eeprom.o
                                 0x3d (size before relaxing)
 .comment       0x00000000       0x3d build/default/production/src/drivers/tmp275.o
 .comment       0x00000000       0x3d build/default/production/src/drivers/dispkyb.o
 .comment       0x00000000       0x3d build/default/production/src/drivers/usb_uart.o
 .comment       0x00000000       0x3d build/default/production/src/drivers/adc.o
 .comment       0x00000000       0x3d build/default/production/src/drivers/adcctrl.o
 .comment       0x00000000       0x3d build/default/production/src/eefs/crc32.o
 .comment       0x00000000       0x3d build/default/production/src/eefs/eefs.o
 .comment       0x00000000       0x3d build/default/production/src/FreeRTOS/portable/MemMang/heap_4.o
 .comment       0x00000000       0x3d build/default/production/src/FreeRTOS/portable/MPLAB/PIC32MX/port.o
 .comment       0x00000000       0x3d build/default/production/src/FreeRTOS/timers.o
 .comment       0x00000000       0x3d build/default/production/src/FreeRTOS/tasks.o
 .comment       0x00000000       0x3d build/default/production/src/FreeRTOS/list.o
 .comment       0x00000000       0x3d build/default/production/src/FreeRTOS/event_groups.o
 .comment       0x00000000       0x3d build/default/production/src/FreeRTOS/croutine.o
 .comment       0x00000000       0x3d build/default/production/src/FreeRTOS/queue.o
 .comment       0x00000000       0x3d build/default/production/src/hal/fuses.o
 .comment       0x00000000       0x3d build/default/production/src/hal/exceptions.o
 .comment       0x00000000       0x3d build/default/production/src/hal/hal_adc.o
 .comment       0x00000000       0x3d build/default/production/src/hal/hal_uart.o
 .comment       0x00000000       0x3d build/default/production/src/hal/hal_i2c.o
 .comment       0x00000000       0x3d build/default/production/src/hal/hal_spi.o
 .comment       0x00000000       0x3d build/default/production/src/hal/hal_timer.o
 .comment       0x00000000       0x3d build/default/production/src/hal/hal_io.o
 .comment       0x00000000       0x3d build/default/production/src/hal/hal_sys.o
 .comment       0x00000000       0x3d build/default/production/src/scpi-parser/libscpi/src/lexer.o
 .comment       0x00000000       0x3d build/default/production/src/scpi-parser/libscpi/src/error.o
 .comment       0x00000000       0x3d build/default/production/src/scpi-parser/libscpi/src/fifo.o
 .comment       0x00000000       0x3d build/default/production/src/scpi-parser/libscpi/src/ieee488.o
 .comment       0x00000000       0x3d build/default/production/src/scpi-parser/libscpi/src/minimal.o
 .comment       0x00000000       0x3d build/default/production/src/scpi-parser/libscpi/src/parser.o
 .comment       0x00000000       0x3d build/default/production/src/scpi-parser/libscpi/src/units.o
 .comment       0x00000000       0x3d build/default/production/src/scpi-parser/libscpi/src/utils.o
 .comment       0x00000000       0x3d build/default/production/src/sys/src/system.o
 .comment       0x00000000       0x3d build/default/production/src/sys/src/settings.o
 .comment       0x00000000       0x3d build/default/production/src/tasks/task_calibration.o
 .comment       0x00000000       0x3d build/default/production/src/tasks/task_multimeter.o
 .comment       0x00000000       0x3d build/default/production/src/tasks/main.o
 .comment       0x00000000       0x3d build/default/production/src/tasks/tskmgr.o
 .comment       0x00000000       0x3d build/default/production/src/tasks/task_scpi.o
 .comment       0x00000000       0x3d build/default/production/src/utils/fcvt-1.1/fcvt.o
 .comment       0x00000000       0x3d build/default/production/src/utils/src/diag.o
 .comment       0x00000000       0x3d build/default/production/src/utils/src/fitlinear.o
 .comment       0x00000000       0x3d build/default/production/src/utils/src/disfmt.o
 .comment       0x00000000       0x3d build/default/production/src/utils/src/util_ringbuff.o
 .comment       0x00000000       0x3d build/default/production/src/utils/src/strutils.o
 .comment       0x0000003c       0x3c /opt/microchip/xc32/v1.31/bin/../lib/gcc/pic32mx/4.5.2/../../../../pic32mx/lib/mips16/libmchp_peripheral.a(open_core_timer_lib.o)
                                 0x3d (size before relaxing)
 .comment       0x00000000       0x3d /opt/microchip/xc32/v1.31/bin/../lib/gcc/pic32mx/4.5.2/../../../../pic32mx/lib/mips16/libmchp_peripheral.a(update_core_timer_lib.o)
 .comment       0x00000000       0x3d /opt/microchip/xc32/v1.31/bin/../lib/gcc/pic32mx/4.5.2/../../../../pic32mx/lib/mips16/libmchp_peripheral_32MX350F256L.a(pcache.o)
 .comment       0x00000000       0x3d /opt/microchip/xc32/v1.31/bin/../lib/gcc/pic32mx/4.5.2/../../../../pic32mx/lib/mips16/libmchp_peripheral_32MX350F256L.a(int_configure_system_lib.o)
 .comment       0x00000000       0x3d /opt/microchip/xc32/v1.31/bin/../lib/gcc/pic32mx/4.5.2/../../../../pic32mx/lib/mips16/libmchp_peripheral_32MX350F256L.a(int_disable_interrupts_lib.o)
 .comment       0x00000000       0x3d /opt/microchip/xc32/v1.31/bin/../lib/gcc/pic32mx/4.5.2/../../../../pic32mx/lib/mips16/libmchp_peripheral_32MX350F256L.a(int_restore_interrupts_lib.o)
 .comment       0x00000000       0x3d /opt/microchip/xc32/v1.31/bin/../lib/gcc/pic32mx/4.5.2/../../../../pic32mx/lib/mips16/libmchp_peripheral_32MX350F256L.a(int_tbl_lib.o)
 .comment       0x00000000       0x3d /opt/microchip/xc32/v1.31/bin/../lib/gcc/pic32mx/4.5.2/../../../../pic32mx/lib/mips16/libmchp_peripheral_32MX350F256L.a(spi_chn_open_lib.o)
 .comment       0x00000000       0x3d /opt/microchip/xc32/v1.31/bin/../lib/gcc/pic32mx/4.5.2/../../../../pic32mx/lib/mips16/libmchp_peripheral_32MX350F256L.a(spi_chn_putc_lib.o)
 .comment       0x00000000       0x3d /opt/microchip/xc32/v1.31/bin/../lib/gcc/pic32mx/4.5.2/../../../../pic32mx/lib/mips16/libmchp_peripheral_32MX350F256L.a(spi_map_tbl_libp.o)
 .comment       0x00000000       0x3d /opt/microchip/xc32/v1.31/bin/../lib/gcc/pic32mx/4.5.2/../../../../pic32mx/lib/mips16/libmchp_peripheral_32MX350F256L.a(power_idle_lib.o)
 .comment       0x00000000       0x3d /opt/microchip/xc32/v1.31/bin/../lib/gcc/pic32mx/4.5.2/../../../../pic32mx/lib/mips16/libmchp_peripheral_32MX350F256L.a(port_set_pins_digital_in_lib.o)
 .comment       0x00000000       0x3d /opt/microchip/xc32/v1.31/bin/../lib/gcc/pic32mx/4.5.2/../../../../pic32mx/lib/mips16/libmchp_peripheral_32MX350F256L.a(port_set_pins_digital_out_lib.o)
 .comment       0x00000000       0x3d /opt/microchip/xc32/v1.31/bin/../lib/gcc/pic32mx/4.5.2/../../../../pic32mx/lib/mips16/libmchp_peripheral_32MX350F256L.a(port_read_bits_lib.o)
 .comment       0x00000000       0x3d /opt/microchip/xc32/v1.31/bin/../lib/gcc/pic32mx/4.5.2/../../../../pic32mx/lib/mips16/libmchp_peripheral_32MX350F256L.a(port_clear_bits_lib.o)
 .comment       0x00000000       0x3d /opt/microchip/xc32/v1.31/bin/../lib/gcc/pic32mx/4.5.2/../../../../pic32mx/lib/mips16/libmchp_peripheral_32MX350F256L.a(port_set_bits_lib.o)
 .comment       0x00000000       0x3d /opt/microchip/xc32/v1.31/bin/../lib/gcc/pic32mx/4.5.2/../../../../pic32mx/lib/mips16/libmchp_peripheral_32MX350F256L.a(port_toggle_bits_lib.o)
 .comment       0x00000000       0x3d /opt/microchip/xc32/v1.31/bin/../lib/gcc/pic32mx/4.5.2/../../../../pic32mx/lib/mips16/libmchp_peripheral_32MX350F256L.a(_ports_tbl_libp.o)
 .comment       0x00000000       0x3d /opt/microchip/xc32/v1.31/bin/../lib/gcc/pic32mx/4.5.2/../../../../pic32mx/lib/mips16/libmchp_peripheral_32MX350F256L.a(uart_lib.o)
 .comment       0x00000000       0x3d /opt/microchip/xc32/v1.31/bin/../lib/gcc/pic32mx/4.5.2/../../../../pic32mx/lib/mips16/libmchp_peripheral_32MX350F256L.a(I2CAcknowledgeByte.o)
 .comment       0x00000000       0x3d /opt/microchip/xc32/v1.31/bin/../lib/gcc/pic32mx/4.5.2/../../../../pic32mx/lib/mips16/libmchp_peripheral_32MX350F256L.a(I2CAcknowledgeHasCompleted.o)
 .comment       0x00000000       0x3d /opt/microchip/xc32/v1.31/bin/../lib/gcc/pic32mx/4.5.2/../../../../pic32mx/lib/mips16/libmchp_peripheral_32MX350F256L.a(I2CBusIsIdle.o)
 .comment       0x00000000       0x3d /opt/microchip/xc32/v1.31/bin/../lib/gcc/pic32mx/4.5.2/../../../../pic32mx/lib/mips16/libmchp_peripheral_32MX350F256L.a(I2CByteWasAcknowledged.o)
 .comment       0x00000000       0x3d /opt/microchip/xc32/v1.31/bin/../lib/gcc/pic32mx/4.5.2/../../../../pic32mx/lib/mips16/libmchp_peripheral_32MX350F256L.a(I2CConfigure.o)
 .comment       0x00000000       0x3d /opt/microchip/xc32/v1.31/bin/../lib/gcc/pic32mx/4.5.2/../../../../pic32mx/lib/mips16/libmchp_peripheral_32MX350F256L.a(I2CEnable.o)
 .comment       0x00000000       0x3d /opt/microchip/xc32/v1.31/bin/../lib/gcc/pic32mx/4.5.2/../../../../pic32mx/lib/mips16/libmchp_peripheral_32MX350F256L.a(I2CGetByte.o)
 .comment       0x00000000       0x3d /opt/microchip/xc32/v1.31/bin/../lib/gcc/pic32mx/4.5.2/../../../../pic32mx/lib/mips16/libmchp_peripheral_32MX350F256L.a(I2CGetStatus.o)
 .comment       0x00000000       0x3d /opt/microchip/xc32/v1.31/bin/../lib/gcc/pic32mx/4.5.2/../../../../pic32mx/lib/mips16/libmchp_peripheral_32MX350F256L.a(I2CReceivedDataIsAvailable.o)
 .comment       0x00000000       0x3d /opt/microchip/xc32/v1.31/bin/../lib/gcc/pic32mx/4.5.2/../../../../pic32mx/lib/mips16/libmchp_peripheral_32MX350F256L.a(I2CReceiverEnable.o)
 .comment       0x00000000       0x3d /opt/microchip/xc32/v1.31/bin/../lib/gcc/pic32mx/4.5.2/../../../../pic32mx/lib/mips16/libmchp_peripheral_32MX350F256L.a(I2CRepeatStart.o)
 .comment       0x00000000       0x3d /opt/microchip/xc32/v1.31/bin/../lib/gcc/pic32mx/4.5.2/../../../../pic32mx/lib/mips16/libmchp_peripheral_32MX350F256L.a(I2CSendByte.o)
 .comment       0x00000000       0x3d /opt/microchip/xc32/v1.31/bin/../lib/gcc/pic32mx/4.5.2/../../../../pic32mx/lib/mips16/libmchp_peripheral_32MX350F256L.a(I2CSetFrequency.o)
 .comment       0x00000000       0x3d /opt/microchip/xc32/v1.31/bin/../lib/gcc/pic32mx/4.5.2/../../../../pic32mx/lib/mips16/libmchp_peripheral_32MX350F256L.a(I2CStart.o)
 .comment       0x00000000       0x3d /opt/microchip/xc32/v1.31/bin/../lib/gcc/pic32mx/4.5.2/../../../../pic32mx/lib/mips16/libmchp_peripheral_32MX350F256L.a(I2CStop.o)
 .comment       0x00000000       0x3d /opt/microchip/xc32/v1.31/bin/../lib/gcc/pic32mx/4.5.2/../../../../pic32mx/lib/mips16/libmchp_peripheral_32MX350F256L.a(I2CTransmissionHasCompleted.o)
 .comment       0x00000000       0x3d /opt/microchip/xc32/v1.31/bin/../lib/gcc/pic32mx/4.5.2/../../../../pic32mx/lib/mips16/libmchp_peripheral_32MX350F256L.a(I2CTransmitterIsReady.o)
 .comment       0x00000000       0x3d /opt/microchip/xc32/v1.31/bin/../lib/gcc/pic32mx/4.5.2/../../../../pic32mx/lib/mips16/libmchp_peripheral_32MX350F256L.a(I2CPrivate.o)
 .comment       0x00000078       0x3c /opt/microchip/xc32/v1.31/bin/../lib/gcc/pic32mx/4.5.2/mips16/libgcc.a(_floatundidf.o)
                                 0x3d (size before relaxing)
 .comment       0x00000000       0x3d /opt/microchip/xc32/v1.31/bin/../lib/gcc/pic32mx/4.5.2/mips16/libgcc.a(_udivdi3.o)
 .comment       0x00000000       0x3d /opt/microchip/xc32/v1.31/bin/../lib/gcc/pic32mx/4.5.2/mips16/libgcc.a(floatunsidf.o)
 .comment       0x00000000       0x3d /opt/microchip/xc32/v1.31/bin/../lib/gcc/pic32mx/4.5.2/mips16/libgcc.a(floatunsisf.o)
 .comment       0x00000000       0x3d /opt/microchip/xc32/v1.31/bin/../lib/gcc/pic32mx/4.5.2/mips16/libgcc.a(_clz.o)
 .comment       0x00000000       0x3d /opt/microchip/xc32/v1.31/bin/../lib/gcc/pic32mx/4.5.2/../../../../pic32mx/lib/mips16/libpic32.a(default-bootstrap-exception-handler.o)
 .comment       0x00000000       0x3d /opt/microchip/xc32/v1.31/bin/../lib/gcc/pic32mx/4.5.2/../../../../pic32mx/lib/mips16/libpic32.a(default-on-reset.o)
 .comment       0x00000000       0x3d /opt/microchip/xc32/v1.31/bin/../lib/gcc/pic32mx/4.5.2/../../../../pic32mx/lib/mips16/libpic32.a(default-on-bootstrap.o)
 .comment       0x00000000       0x3d /opt/microchip/xc32/v1.31/bin/../lib/gcc/pic32mx/4.5.2/../../../../pic32mx/lib/mips16/libm.a(w_pow.o)
 .comment       0x00000000       0x3d /opt/microchip/xc32/v1.31/bin/../lib/gcc/pic32mx/4.5.2/../../../../pic32mx/lib/mips16/libm.a(w_log10.o)
 .comment       0x00000000       0x3d /opt/microchip/xc32/v1.31/bin/../lib/gcc/pic32mx/4.5.2/../../../../pic32mx/lib/mips16/libm.a(floor.o)
 .comment       0x00000000       0x3d /opt/microchip/xc32/v1.31/bin/../lib/gcc/pic32mx/4.5.2/../../../../pic32mx/lib/mips16/libm.a(w_sqrt.o)
 .comment       0x00000000       0x3d /opt/microchip/xc32/v1.31/bin/../lib/gcc/pic32mx/4.5.2/../../../../pic32mx/lib/mips16/libm.a(s_lib_ver.o)
 .comment       0x00000000       0x3d /opt/microchip/xc32/v1.31/bin/../lib/gcc/pic32mx/4.5.2/../../../../pic32mx/lib/mips16/libm.a(support.o)
 .comment       0x00000000       0x3d /opt/microchip/xc32/v1.31/bin/../lib/gcc/pic32mx/4.5.2/../../../../pic32mx/lib/mips16/libm.a(w_ldexp.o)
 .comment       0x000000b4       0x4e /opt/microchip/xc32/v1.31/bin/../lib/gcc/pic32mx/4.5.2/../../../../pic32mx/lib/mips16/libe.a(_unorddf2.o)
                                 0x8b (size before relaxing)
 .comment       0x00000000       0x3d /opt/microchip/xc32/v1.31/bin/../lib/gcc/pic32mx/4.5.2/../../../../pic32mx/lib/mips16/libpic32.a(errno.o)
 .comment       0x00000000       0x3d /opt/microchip/xc32/v1.31/bin/../lib/gcc/pic32mx/4.5.2/../../../../pic32mx/lib/mips16/libpic32.a(isinf.o)
 .comment       0x00000000       0x3d /opt/microchip/xc32/v1.31/bin/../lib/gcc/pic32mx/4.5.2/../../../../pic32mx/lib/mips16/libc.a(_iob.o)
 .comment       0x00000000       0x3d /opt/microchip/xc32/v1.31/bin/../lib/gcc/pic32mx/4.5.2/../../../../pic32mx/lib/mips16/libc.a(fwrite.o)
 .comment       0x00000102       0x4e /opt/microchip/xc32/v1.31/bin/../lib/gcc/pic32mx/4.5.2/../../../../pic32mx/lib/mips16/libc.a(ctype.o)
                                 0x8b (size before relaxing)
 .comment       0x00000150       0x4f /opt/microchip/xc32/v1.31/bin/../lib/gcc/pic32mx/4.5.2/../../../../pic32mx/lib/mips16/libc.a(ctypef.o)
                                 0x8c (size before relaxing)
 .comment       0x00000000       0x3d /opt/microchip/xc32/v1.31/bin/../lib/gcc/pic32mx/4.5.2/../../../../pic32mx/lib/mips16/libc.a(memcmp.o)
 .comment       0x00000000       0x3d /opt/microchip/xc32/v1.31/bin/../lib/gcc/pic32mx/4.5.2/../../../../pic32mx/lib/mips16/libc.a(memcpy.o)
 .comment       0x00000000       0x3d /opt/microchip/xc32/v1.31/bin/../lib/gcc/pic32mx/4.5.2/../../../../pic32mx/lib/mips16/libc.a(memmove.o)
 .comment       0x00000000       0x3d /opt/microchip/xc32/v1.31/bin/../lib/gcc/pic32mx/4.5.2/../../../../pic32mx/lib/mips16/libc.a(memset.o)
 .comment       0x00000000       0x3d /opt/microchip/xc32/v1.31/bin/../lib/gcc/pic32mx/4.5.2/../../../../pic32mx/lib/mips16/libc.a(puts.o)
 .comment       0x00000000       0x3d /opt/microchip/xc32/v1.31/bin/../lib/gcc/pic32mx/4.5.2/../../../../pic32mx/lib/mips16/libc.a(strchr.o)
 .comment       0x00000000       0x3d /opt/microchip/xc32/v1.31/bin/../lib/gcc/pic32mx/4.5.2/../../../../pic32mx/lib/mips16/libc.a(strlen.o)
 .comment       0x00000000       0x3d /opt/microchip/xc32/v1.31/bin/../lib/gcc/pic32mx/4.5.2/../../../../pic32mx/lib/mips16/libc.a(strncasecmp.o)
 .comment       0x00000000       0x3d /opt/microchip/xc32/v1.31/bin/../lib/gcc/pic32mx/4.5.2/../../../../pic32mx/lib/mips16/libc.a(strncat.o)
 .comment       0x00000000       0x3d /opt/microchip/xc32/v1.31/bin/../lib/gcc/pic32mx/4.5.2/../../../../pic32mx/lib/mips16/libc.a(strncpy.o)
 .comment       0x00000000       0x3d /opt/microchip/xc32/v1.31/bin/../lib/gcc/pic32mx/4.5.2/../../../../pic32mx/lib/mips16/libc.a(strtod.o)
 .comment       0x00000000       0x3d /opt/microchip/xc32/v1.31/bin/../lib/gcc/pic32mx/4.5.2/../../../../pic32mx/lib/mips16/libc.a(strtof.o)
 .comment       0x00000000       0x3d /opt/microchip/xc32/v1.31/bin/../lib/gcc/pic32mx/4.5.2/../../../../pic32mx/lib/mips16/libc.a(strstr.o)
 .comment       0x00000000       0x3d /opt/microchip/xc32/v1.31/bin/../lib/gcc/pic32mx/4.5.2/../../../../pic32mx/lib/mips16/libc.a(strtol.o)
 .comment       0x00000000       0x3d /opt/microchip/xc32/v1.31/bin/../lib/gcc/pic32mx/4.5.2/../../../../pic32mx/lib/mips16/libc.a(strtoll.o)
 .comment       0x00000000       0x3d /opt/microchip/xc32/v1.31/bin/../lib/gcc/pic32mx/4.5.2/../../../../pic32mx/lib/mips16/libc.a(printf_cdfFnopsuxX.eo)
 .comment       0x00000000       0x3d /opt/microchip/xc32/v1.31/bin/../lib/gcc/pic32mx/4.5.2/../../../../pic32mx/lib/mips16/libc.a(vprintf.o)
 .comment       0x00000000       0x3d /opt/microchip/xc32/v1.31/bin/../lib/gcc/pic32mx/4.5.2/../../../../pic32mx/lib/mips16/libc.a(snprintf_gG.eo)
 .comment       0x00000000       0x3d /opt/microchip/xc32/v1.31/bin/../lib/gcc/pic32mx/4.5.2/../../../../pic32mx/lib/mips16/libc.a(vsnprintf_gG.eo)
 .comment       0x00000000       0x3d /opt/microchip/xc32/v1.31/bin/../lib/gcc/pic32mx/4.5.2/../../../../pic32mx/lib/mips16/libc.a(fflush.o)
 .comment       0x00000000       0x3d /opt/microchip/xc32/v1.31/bin/../lib/gcc/pic32mx/4.5.2/../../../../pic32mx/lib/mips16/libc.a(_fputc_simple.o)
 .comment       0x00000000       0x3d /opt/microchip/xc32/v1.31/bin/../lib/gcc/pic32mx/4.5.2/../../../../pic32mx/lib/mips16/libc.a(fseek.o)
 .comment       0x00000000       0x3d /opt/microchip/xc32/v1.31/bin/../lib/gcc/pic32mx/4.5.2/../../../../pic32mx/lib/mips16/libc.a(strncmp.o)
 .comment       0x00000000       0x3d /opt/microchip/xc32/v1.31/bin/../lib/gcc/pic32mx/4.5.2/../../../../pic32mx/lib/mips16/libc.a(doprnt.o)
 .comment       0x00000000       0x3d /opt/microchip/xc32/v1.31/bin/../lib/gcc/pic32mx/4.5.2/../../../../pic32mx/lib/mips16/libc.a(_flsbuf_simple.o)
 .comment       0x00000000       0x3d /opt/microchip/xc32/v1.31/bin/../lib/gcc/pic32mx/4.5.2/../../../../pic32mx/lib/mips16/libc.a(powersf.o)
 .comment       0x00000000       0x3d /opt/microchip/xc32/v1.31/bin/../lib/gcc/pic32mx/4.5.2/../../../../pic32mx/lib/mips16/libpic32.a(write.o)
 .comment       0x00000000       0x3d /opt/microchip/xc32/v1.31/bin/../lib/gcc/pic32mx/4.5.2/../../../../pic32mx/lib/mips16/libpic32.a(lseek.o)
 .comment       0x0000019f       0x50 /opt/microchip/xc32/v1.31/bin/../lib/gcc/pic32mx/4.5.2/../../../../pic32mx/lib/mips16/libe.a(_floatdisf.o)
                                 0xdb (size before relaxing)
 .comment       0x000001ef       0x4f /opt/microchip/xc32/v1.31/bin/../lib/gcc/pic32mx/4.5.2/../../../../pic32mx/lib/mips16/libe.a(_strtod.o)
                                 0xda (size before relaxing)
 .comment       0x0000023e       0x4f /opt/microchip/xc32/v1.31/bin/../lib/gcc/pic32mx/4.5.2/../../../../pic32mx/lib/mips16/libe.a(_strtof.o)
                                 0xda (size before relaxing)
 .comment       0x0000028d       0x50 /opt/microchip/xc32/v1.31/bin/../lib/gcc/pic32mx/4.5.2/../../../../pic32mx/lib/mips16/libe.a(_ldexp.o)
                                 0xdb (size before relaxing)
 .comment       0x000002dd       0x50 /opt/microchip/xc32/v1.31/bin/../lib/gcc/pic32mx/4.5.2/../../../../pic32mx/lib/mips16/libe.a(_ldexpf.o)
                                 0xdb (size before relaxing)
 .comment       0x00000000       0x3d /opt/microchip/xc32/v1.31/bin/../lib/gcc/pic32mx/4.5.2/mips16/libgcc.a(_lshrdi3.o)
 .comment       0x00000000       0x3d /opt/microchip/xc32/v1.31/bin/../lib/gcc/pic32mx/4.5.2/mips16/libgcc.a(_floatundisf.o)
 .comment       0x00000000       0x3d /opt/microchip/xc32/v1.31/bin/../lib/gcc/pic32mx/4.5.2/mips16/libgcc.a(_umoddi3.o)
 .comment       0x00000000       0x3d /opt/microchip/xc32/v1.31/bin/../lib/gcc/pic32mx/4.5.2/../../../../pic32mx/lib/mips16/libc.a(doprnt_cdfFgGnopsuxX.eo)

.debug
 *(.debug)

.line
 *(.line)

.debug_srcinfo
 *(.debug_srcinfo)

.debug_sfnames
 *(.debug_sfnames)

.debug_aranges  0x00000000     0x12e0
 *(.debug_aranges)
 .debug_aranges
                0x00000000       0x20 build/default/production/src/drivers/eeprom.o
 .debug_aranges
                0x00000020       0x20 build/default/production/src/drivers/tmp275.o
 .debug_aranges
                0x00000040       0x20 build/default/production/src/drivers/dispkyb.o
 .debug_aranges
                0x00000060       0x20 build/default/production/src/drivers/usb_uart.o
 .debug_aranges
                0x00000080       0x20 build/default/production/src/drivers/adc.o
 .debug_aranges
                0x000000a0       0x20 build/default/production/src/drivers/adcctrl.o
 .debug_aranges
                0x000000c0       0x20 build/default/production/src/eefs/crc32.o
 .debug_aranges
                0x000000e0       0x20 build/default/production/src/eefs/eefs.o
 .debug_aranges
                0x00000100       0x20 build/default/production/src/FreeRTOS/portable/MemMang/heap_4.o
 .debug_aranges
                0x00000120       0x20 build/default/production/src/FreeRTOS/portable/MPLAB/PIC32MX/port.o
 .debug_aranges
                0x00000140       0x20 build/default/production/src/FreeRTOS/portable/MPLAB/PIC32MX/port_asm.o
 .debug_aranges
                0x00000160       0x20 build/default/production/src/FreeRTOS/tasks.o
 .debug_aranges
                0x00000180       0x20 build/default/production/src/FreeRTOS/list.o
 .debug_aranges
                0x000001a0       0x20 build/default/production/src/FreeRTOS/event_groups.o
 .debug_aranges
                0x000001c0       0x20 build/default/production/src/FreeRTOS/croutine.o
 .debug_aranges
                0x000001e0       0x20 build/default/production/src/FreeRTOS/queue.o
 .debug_aranges
                0x00000200       0x20 build/default/production/src/hal/exceptions.o
 .debug_aranges
                0x00000220       0x20 build/default/production/src/hal/isrWrappers.o
 .debug_aranges
                0x00000240       0x20 build/default/production/src/hal/hal_adc.o
 .debug_aranges
                0x00000260       0x20 build/default/production/src/hal/hal_uart.o
 .debug_aranges
                0x00000280       0x20 build/default/production/src/hal/hal_i2c.o
 .debug_aranges
                0x000002a0       0x20 build/default/production/src/hal/hal_spi.o
 .debug_aranges
                0x000002c0       0x20 build/default/production/src/hal/hal_timer.o
 .debug_aranges
                0x000002e0       0x20 build/default/production/src/hal/hal_io.o
 .debug_aranges
                0x00000300       0x20 build/default/production/src/hal/hal_sys.o
 .debug_aranges
                0x00000320       0x20 build/default/production/src/scpi-parser/libscpi/src/lexer.o
 .debug_aranges
                0x00000340       0x20 build/default/production/src/scpi-parser/libscpi/src/error.o
 .debug_aranges
                0x00000360       0x20 build/default/production/src/scpi-parser/libscpi/src/fifo.o
 .debug_aranges
                0x00000380       0x20 build/default/production/src/scpi-parser/libscpi/src/ieee488.o
 .debug_aranges
                0x000003a0       0x20 build/default/production/src/scpi-parser/libscpi/src/minimal.o
 .debug_aranges
                0x000003c0       0x20 build/default/production/src/scpi-parser/libscpi/src/parser.o
 .debug_aranges
                0x000003e0       0x20 build/default/production/src/scpi-parser/libscpi/src/units.o
 .debug_aranges
                0x00000400       0x20 build/default/production/src/scpi-parser/libscpi/src/utils.o
 .debug_aranges
                0x00000420       0x20 build/default/production/src/sys/src/system.o
 .debug_aranges
                0x00000440       0x20 build/default/production/src/sys/src/settings.o
 .debug_aranges
                0x00000460       0x20 build/default/production/src/tasks/task_calibration.o
 .debug_aranges
                0x00000480       0x20 build/default/production/src/tasks/task_multimeter.o
 .debug_aranges
                0x000004a0       0x20 build/default/production/src/tasks/main.o
 .debug_aranges
                0x000004c0       0x20 build/default/production/src/tasks/tskmgr.o
 .debug_aranges
                0x000004e0       0x20 build/default/production/src/tasks/task_scpi.o
 .debug_aranges
                0x00000500       0x20 build/default/production/src/utils/fcvt-1.1/fcvt.o
 .debug_aranges
                0x00000520       0x20 build/default/production/src/utils/src/diag.o
 .debug_aranges
                0x00000540       0x20 build/default/production/src/utils/src/fitlinear.o
 .debug_aranges
                0x00000560       0x20 build/default/production/src/utils/src/disfmt.o
 .debug_aranges
                0x00000580       0x20 build/default/production/src/utils/src/util_ringbuff.o
 .debug_aranges
                0x000005a0       0x20 build/default/production/src/utils/src/strutils.o
 .debug_aranges
                0x000005c0       0x20 /opt/microchip/xc32/v1.31/bin/../lib/gcc/pic32mx/4.5.2/../../../../pic32mx/lib/mips16/libmchp_peripheral.a(open_core_timer_lib.o)
 .debug_aranges
                0x000005e0       0x20 /opt/microchip/xc32/v1.31/bin/../lib/gcc/pic32mx/4.5.2/../../../../pic32mx/lib/mips16/libmchp_peripheral.a(update_core_timer_lib.o)
 .debug_aranges
                0x00000600       0x28 /opt/microchip/xc32/v1.31/bin/../lib/gcc/pic32mx/4.5.2/../../../../pic32mx/lib/mips16/libmchp_peripheral_32MX350F256L.a(pcache.o)
 .debug_aranges
                0x00000628       0x20 /opt/microchip/xc32/v1.31/bin/../lib/gcc/pic32mx/4.5.2/../../../../pic32mx/lib/mips16/libmchp_peripheral_32MX350F256L.a(int_configure_system_lib.o)
 .debug_aranges
                0x00000648       0x20 /opt/microchip/xc32/v1.31/bin/../lib/gcc/pic32mx/4.5.2/../../../../pic32mx/lib/mips16/libmchp_peripheral_32MX350F256L.a(int_disable_interrupts_lib.o)
 .debug_aranges
                0x00000668       0x20 /opt/microchip/xc32/v1.31/bin/../lib/gcc/pic32mx/4.5.2/../../../../pic32mx/lib/mips16/libmchp_peripheral_32MX350F256L.a(int_restore_interrupts_lib.o)
 .debug_aranges
                0x00000688       0x60 /opt/microchip/xc32/v1.31/bin/../lib/gcc/pic32mx/4.5.2/../../../../pic32mx/lib/mips16/libmchp_peripheral_32MX350F256L.a(int_tbl_lib.o)
 .debug_aranges
                0x000006e8       0x20 /opt/microchip/xc32/v1.31/bin/../lib/gcc/pic32mx/4.5.2/../../../../pic32mx/lib/mips16/libmchp_peripheral_32MX350F256L.a(spi_chn_open_lib.o)
 .debug_aranges
                0x00000708       0x30 /opt/microchip/xc32/v1.31/bin/../lib/gcc/pic32mx/4.5.2/../../../../pic32mx/lib/mips16/libmchp_peripheral_32MX350F256L.a(spi_chn_putc_lib.o)
 .debug_aranges
                0x00000738       0x20 /opt/microchip/xc32/v1.31/bin/../lib/gcc/pic32mx/4.5.2/../../../../pic32mx/lib/mips16/libmchp_peripheral_32MX350F256L.a(power_idle_lib.o)
 .debug_aranges
                0x00000758       0x20 /opt/microchip/xc32/v1.31/bin/../lib/gcc/pic32mx/4.5.2/../../../../pic32mx/lib/mips16/libmchp_peripheral_32MX350F256L.a(port_set_pins_digital_in_lib.o)
 .debug_aranges
                0x00000778       0x20 /opt/microchip/xc32/v1.31/bin/../lib/gcc/pic32mx/4.5.2/../../../../pic32mx/lib/mips16/libmchp_peripheral_32MX350F256L.a(port_set_pins_digital_out_lib.o)
 .debug_aranges
                0x00000798       0x20 /opt/microchip/xc32/v1.31/bin/../lib/gcc/pic32mx/4.5.2/../../../../pic32mx/lib/mips16/libmchp_peripheral_32MX350F256L.a(port_read_bits_lib.o)
 .debug_aranges
                0x000007b8       0x20 /opt/microchip/xc32/v1.31/bin/../lib/gcc/pic32mx/4.5.2/../../../../pic32mx/lib/mips16/libmchp_peripheral_32MX350F256L.a(port_clear_bits_lib.o)
 .debug_aranges
                0x000007d8       0x20 /opt/microchip/xc32/v1.31/bin/../lib/gcc/pic32mx/4.5.2/../../../../pic32mx/lib/mips16/libmchp_peripheral_32MX350F256L.a(port_set_bits_lib.o)
 .debug_aranges
                0x000007f8       0x20 /opt/microchip/xc32/v1.31/bin/../lib/gcc/pic32mx/4.5.2/../../../../pic32mx/lib/mips16/libmchp_peripheral_32MX350F256L.a(port_toggle_bits_lib.o)
 .debug_aranges
                0x00000818       0x58 /opt/microchip/xc32/v1.31/bin/../lib/gcc/pic32mx/4.5.2/../../../../pic32mx/lib/mips16/libmchp_peripheral_32MX350F256L.a(uart_lib.o)
 .debug_aranges
                0x00000870       0x20 /opt/microchip/xc32/v1.31/bin/../lib/gcc/pic32mx/4.5.2/../../../../pic32mx/lib/mips16/libmchp_peripheral_32MX350F256L.a(I2CAcknowledgeByte.o)
 .debug_aranges
                0x00000890       0x20 /opt/microchip/xc32/v1.31/bin/../lib/gcc/pic32mx/4.5.2/../../../../pic32mx/lib/mips16/libmchp_peripheral_32MX350F256L.a(I2CAcknowledgeHasCompleted.o)
 .debug_aranges
                0x000008b0       0x20 /opt/microchip/xc32/v1.31/bin/../lib/gcc/pic32mx/4.5.2/../../../../pic32mx/lib/mips16/libmchp_peripheral_32MX350F256L.a(I2CBusIsIdle.o)
 .debug_aranges
                0x000008d0       0x20 /opt/microchip/xc32/v1.31/bin/../lib/gcc/pic32mx/4.5.2/../../../../pic32mx/lib/mips16/libmchp_peripheral_32MX350F256L.a(I2CByteWasAcknowledged.o)
 .debug_aranges
                0x000008f0       0x20 /opt/microchip/xc32/v1.31/bin/../lib/gcc/pic32mx/4.5.2/../../../../pic32mx/lib/mips16/libmchp_peripheral_32MX350F256L.a(I2CConfigure.o)
 .debug_aranges
                0x00000910       0x20 /opt/microchip/xc32/v1.31/bin/../lib/gcc/pic32mx/4.5.2/../../../../pic32mx/lib/mips16/libmchp_peripheral_32MX350F256L.a(I2CEnable.o)
 .debug_aranges
                0x00000930       0x20 /opt/microchip/xc32/v1.31/bin/../lib/gcc/pic32mx/4.5.2/../../../../pic32mx/lib/mips16/libmchp_peripheral_32MX350F256L.a(I2CGetByte.o)
 .debug_aranges
                0x00000950       0x20 /opt/microchip/xc32/v1.31/bin/../lib/gcc/pic32mx/4.5.2/../../../../pic32mx/lib/mips16/libmchp_peripheral_32MX350F256L.a(I2CGetStatus.o)
 .debug_aranges
                0x00000970       0x20 /opt/microchip/xc32/v1.31/bin/../lib/gcc/pic32mx/4.5.2/../../../../pic32mx/lib/mips16/libmchp_peripheral_32MX350F256L.a(I2CReceivedDataIsAvailable.o)
 .debug_aranges
                0x00000990       0x20 /opt/microchip/xc32/v1.31/bin/../lib/gcc/pic32mx/4.5.2/../../../../pic32mx/lib/mips16/libmchp_peripheral_32MX350F256L.a(I2CReceiverEnable.o)
 .debug_aranges
                0x000009b0       0x20 /opt/microchip/xc32/v1.31/bin/../lib/gcc/pic32mx/4.5.2/../../../../pic32mx/lib/mips16/libmchp_peripheral_32MX350F256L.a(I2CRepeatStart.o)
 .debug_aranges
                0x000009d0       0x20 /opt/microchip/xc32/v1.31/bin/../lib/gcc/pic32mx/4.5.2/../../../../pic32mx/lib/mips16/libmchp_peripheral_32MX350F256L.a(I2CSendByte.o)
 .debug_aranges
                0x000009f0       0x20 /opt/microchip/xc32/v1.31/bin/../lib/gcc/pic32mx/4.5.2/../../../../pic32mx/lib/mips16/libmchp_peripheral_32MX350F256L.a(I2CSetFrequency.o)
 .debug_aranges
                0x00000a10       0x20 /opt/microchip/xc32/v1.31/bin/../lib/gcc/pic32mx/4.5.2/../../../../pic32mx/lib/mips16/libmchp_peripheral_32MX350F256L.a(I2CStart.o)
 .debug_aranges
                0x00000a30       0x20 /opt/microchip/xc32/v1.31/bin/../lib/gcc/pic32mx/4.5.2/../../../../pic32mx/lib/mips16/libmchp_peripheral_32MX350F256L.a(I2CStop.o)
 .debug_aranges
                0x00000a50       0x20 /opt/microchip/xc32/v1.31/bin/../lib/gcc/pic32mx/4.5.2/../../../../pic32mx/lib/mips16/libmchp_peripheral_32MX350F256L.a(I2CTransmissionHasCompleted.o)
 .debug_aranges
                0x00000a70       0x20 /opt/microchip/xc32/v1.31/bin/../lib/gcc/pic32mx/4.5.2/../../../../pic32mx/lib/mips16/libmchp_peripheral_32MX350F256L.a(I2CTransmitterIsReady.o)
 .debug_aranges
                0x00000a90       0x20 /opt/microchip/xc32/v1.31/bin/../lib/gcc/pic32mx/4.5.2/mips16/libgcc.a(_floatundidf.o)
 .debug_aranges
                0x00000ab0       0x20 /opt/microchip/xc32/v1.31/bin/../lib/gcc/pic32mx/4.5.2/mips16/libgcc.a(_udivdi3.o)
 .debug_aranges
                0x00000ad0       0x20 /opt/microchip/xc32/v1.31/bin/../lib/gcc/pic32mx/4.5.2/mips16/libgcc.a(floatunsidf.o)
 .debug_aranges
                0x00000af0       0x20 /opt/microchip/xc32/v1.31/bin/../lib/gcc/pic32mx/4.5.2/mips16/libgcc.a(floatunsisf.o)
 .debug_aranges
                0x00000b10       0x20 /opt/microchip/xc32/v1.31/bin/../lib/gcc/pic32mx/4.5.2/../../../../pic32mx/lib/mips16/libpic32.a(default-bootstrap-exception-handler.o)
 .debug_aranges
                0x00000b30       0x20 /opt/microchip/xc32/v1.31/bin/../lib/gcc/pic32mx/4.5.2/../../../../pic32mx/lib/mips16/libpic32.a(default-on-reset.o)
 .debug_aranges
                0x00000b50       0x20 /opt/microchip/xc32/v1.31/bin/../lib/gcc/pic32mx/4.5.2/../../../../pic32mx/lib/mips16/libpic32.a(default-on-bootstrap.o)
 .debug_aranges
                0x00000b70       0x20 /opt/microchip/xc32/v1.31/bin/../lib/gcc/pic32mx/4.5.2/../../../../pic32mx/lib/mips16/libm.a(w_pow.o)
 .debug_aranges
                0x00000b90       0x20 /opt/microchip/xc32/v1.31/bin/../lib/gcc/pic32mx/4.5.2/../../../../pic32mx/lib/mips16/libm.a(w_log10.o)
 .debug_aranges
                0x00000bb0       0x30 /opt/microchip/xc32/v1.31/bin/../lib/gcc/pic32mx/4.5.2/../../../../pic32mx/lib/mips16/libm.a(floor.o)
 .debug_aranges
                0x00000be0       0x20 /opt/microchip/xc32/v1.31/bin/../lib/gcc/pic32mx/4.5.2/../../../../pic32mx/lib/mips16/libm.a(w_sqrt.o)
 .debug_aranges
                0x00000c00       0x78 /opt/microchip/xc32/v1.31/bin/../lib/gcc/pic32mx/4.5.2/../../../../pic32mx/lib/mips16/libm.a(support.o)
 .debug_aranges
                0x00000c78       0x20 /opt/microchip/xc32/v1.31/bin/../lib/gcc/pic32mx/4.5.2/../../../../pic32mx/lib/mips16/libm.a(w_ldexp.o)
 .debug_aranges
                0x00000c98       0x28 /opt/microchip/xc32/v1.31/bin/../lib/gcc/pic32mx/4.5.2/../../../../pic32mx/lib/mips16/libe.a(_unorddf2.o)
 .debug_aranges
                0x00000cc0       0x48 /opt/microchip/xc32/v1.31/bin/../lib/gcc/pic32mx/4.5.2/../../../../pic32mx/lib/mips16/libpic32.a(isinf.o)
 .debug_aranges
                0x00000d08       0x20 /opt/microchip/xc32/v1.31/bin/../lib/gcc/pic32mx/4.5.2/../../../../pic32mx/lib/mips16/libc.a(fwrite.o)
 .debug_aranges
                0x00000d28       0xa0 /opt/microchip/xc32/v1.31/bin/../lib/gcc/pic32mx/4.5.2/../../../../pic32mx/lib/mips16/libc.a(ctypef.o)
 .debug_aranges
                0x00000dc8       0x20 /opt/microchip/xc32/v1.31/bin/../lib/gcc/pic32mx/4.5.2/../../../../pic32mx/lib/mips16/libc.a(memcmp.o)
 .debug_aranges
                0x00000de8       0x20 /opt/microchip/xc32/v1.31/bin/../lib/gcc/pic32mx/4.5.2/../../../../pic32mx/lib/mips16/libc.a(memcpy.o)
 .debug_aranges
                0x00000e08       0x20 /opt/microchip/xc32/v1.31/bin/../lib/gcc/pic32mx/4.5.2/../../../../pic32mx/lib/mips16/libc.a(memmove.o)
 .debug_aranges
                0x00000e28       0x20 /opt/microchip/xc32/v1.31/bin/../lib/gcc/pic32mx/4.5.2/../../../../pic32mx/lib/mips16/libc.a(memset.o)
 .debug_aranges
                0x00000e48       0x28 /opt/microchip/xc32/v1.31/bin/../lib/gcc/pic32mx/4.5.2/../../../../pic32mx/lib/mips16/libc.a(puts.o)
 .debug_aranges
                0x00000e70       0x20 /opt/microchip/xc32/v1.31/bin/../lib/gcc/pic32mx/4.5.2/../../../../pic32mx/lib/mips16/libc.a(strchr.o)
 .debug_aranges
                0x00000e90       0x20 /opt/microchip/xc32/v1.31/bin/../lib/gcc/pic32mx/4.5.2/../../../../pic32mx/lib/mips16/libc.a(strlen.o)
 .debug_aranges
                0x00000eb0       0x20 /opt/microchip/xc32/v1.31/bin/../lib/gcc/pic32mx/4.5.2/../../../../pic32mx/lib/mips16/libc.a(strncasecmp.o)
 .debug_aranges
                0x00000ed0       0x20 /opt/microchip/xc32/v1.31/bin/../lib/gcc/pic32mx/4.5.2/../../../../pic32mx/lib/mips16/libc.a(strncat.o)
 .debug_aranges
                0x00000ef0       0x20 /opt/microchip/xc32/v1.31/bin/../lib/gcc/pic32mx/4.5.2/../../../../pic32mx/lib/mips16/libc.a(strncpy.o)
 .debug_aranges
                0x00000f10       0x28 /opt/microchip/xc32/v1.31/bin/../lib/gcc/pic32mx/4.5.2/../../../../pic32mx/lib/mips16/libc.a(strtod.o)
 .debug_aranges
                0x00000f38       0x28 /opt/microchip/xc32/v1.31/bin/../lib/gcc/pic32mx/4.5.2/../../../../pic32mx/lib/mips16/libc.a(strtof.o)
 .debug_aranges
                0x00000f60       0x20 /opt/microchip/xc32/v1.31/bin/../lib/gcc/pic32mx/4.5.2/../../../../pic32mx/lib/mips16/libc.a(strstr.o)
 .debug_aranges
                0x00000f80       0x28 /opt/microchip/xc32/v1.31/bin/../lib/gcc/pic32mx/4.5.2/../../../../pic32mx/lib/mips16/libc.a(strtol.o)
 .debug_aranges
                0x00000fa8       0x28 /opt/microchip/xc32/v1.31/bin/../lib/gcc/pic32mx/4.5.2/../../../../pic32mx/lib/mips16/libc.a(strtoll.o)
 .debug_aranges
                0x00000fd0       0x20 /opt/microchip/xc32/v1.31/bin/../lib/gcc/pic32mx/4.5.2/../../../../pic32mx/lib/mips16/libc.a(printf_cdfFnopsuxX.eo)
 .debug_aranges
                0x00000ff0       0x20 /opt/microchip/xc32/v1.31/bin/../lib/gcc/pic32mx/4.5.2/../../../../pic32mx/lib/mips16/libc.a(vprintf.o)
 .debug_aranges
                0x00001010       0x20 /opt/microchip/xc32/v1.31/bin/../lib/gcc/pic32mx/4.5.2/../../../../pic32mx/lib/mips16/libc.a(snprintf_gG.eo)
 .debug_aranges
                0x00001030       0x20 /opt/microchip/xc32/v1.31/bin/../lib/gcc/pic32mx/4.5.2/../../../../pic32mx/lib/mips16/libc.a(vsnprintf_gG.eo)
 .debug_aranges
                0x00001050       0x20 /opt/microchip/xc32/v1.31/bin/../lib/gcc/pic32mx/4.5.2/../../../../pic32mx/lib/mips16/libc.a(fflush.o)
 .debug_aranges
                0x00001070       0x20 /opt/microchip/xc32/v1.31/bin/../lib/gcc/pic32mx/4.5.2/../../../../pic32mx/lib/mips16/libc.a(_fputc_simple.o)
 .debug_aranges
                0x00001090       0x30 /opt/microchip/xc32/v1.31/bin/../lib/gcc/pic32mx/4.5.2/../../../../pic32mx/lib/mips16/libc.a(fseek.o)
 .debug_aranges
                0x000010c0       0x20 /opt/microchip/xc32/v1.31/bin/../lib/gcc/pic32mx/4.5.2/../../../../pic32mx/lib/mips16/libc.a(strncmp.o)
 .debug_aranges
                0x000010e0       0x30 /opt/microchip/xc32/v1.31/bin/../lib/gcc/pic32mx/4.5.2/../../../../pic32mx/lib/mips16/libc.a(doprnt.o)
 .debug_aranges
                0x00001110       0x20 /opt/microchip/xc32/v1.31/bin/../lib/gcc/pic32mx/4.5.2/../../../../pic32mx/lib/mips16/libc.a(_flsbuf_simple.o)
 .debug_aranges
                0x00001130       0x20 /opt/microchip/xc32/v1.31/bin/../lib/gcc/pic32mx/4.5.2/../../../../pic32mx/lib/mips16/libpic32.a(write.o)
 .debug_aranges
                0x00001150       0x20 /opt/microchip/xc32/v1.31/bin/../lib/gcc/pic32mx/4.5.2/../../../../pic32mx/lib/mips16/libpic32.a(lseek.o)
 .debug_aranges
                0x00001170       0x30 /opt/microchip/xc32/v1.31/bin/../lib/gcc/pic32mx/4.5.2/../../../../pic32mx/lib/mips16/libe.a(_floatdisf.o)
 .debug_aranges
                0x000011a0       0x28 /opt/microchip/xc32/v1.31/bin/../lib/gcc/pic32mx/4.5.2/../../../../pic32mx/lib/mips16/libe.a(_strtod.o)
 .debug_aranges
                0x000011c8       0x28 /opt/microchip/xc32/v1.31/bin/../lib/gcc/pic32mx/4.5.2/../../../../pic32mx/lib/mips16/libe.a(_strtof.o)
 .debug_aranges
                0x000011f0       0x30 /opt/microchip/xc32/v1.31/bin/../lib/gcc/pic32mx/4.5.2/../../../../pic32mx/lib/mips16/libe.a(_ldexp.o)
 .debug_aranges
                0x00001220       0x30 /opt/microchip/xc32/v1.31/bin/../lib/gcc/pic32mx/4.5.2/../../../../pic32mx/lib/mips16/libe.a(_ldexpf.o)
 .debug_aranges
                0x00001250       0x20 /opt/microchip/xc32/v1.31/bin/../lib/gcc/pic32mx/4.5.2/mips16/libgcc.a(_lshrdi3.o)
 .debug_aranges
                0x00001270       0x20 /opt/microchip/xc32/v1.31/bin/../lib/gcc/pic32mx/4.5.2/mips16/libgcc.a(_floatundisf.o)
 .debug_aranges
                0x00001290       0x20 /opt/microchip/xc32/v1.31/bin/../lib/gcc/pic32mx/4.5.2/mips16/libgcc.a(_umoddi3.o)
 .debug_aranges
                0x000012b0       0x30 /opt/microchip/xc32/v1.31/bin/../lib/gcc/pic32mx/4.5.2/../../../../pic32mx/lib/mips16/libc.a(doprnt_cdfFgGnopsuxX.eo)

.debug_pubnames
                0x00000000     0x340a
 *(.debug_pubnames)
 .debug_pubnames
                0x00000000       0x79 build/default/production/src/drivers/eeprom.o
 .debug_pubnames
                0x00000079       0x53 build/default/production/src/drivers/tmp275.o
 .debug_pubnames
                0x000000cc      0x11e build/default/production/src/drivers/dispkyb.o
 .debug_pubnames
                0x000001ea       0x56 build/default/production/src/drivers/usb_uart.o
 .debug_pubnames
                0x00000240       0xa9 build/default/production/src/drivers/adc.o
 .debug_pubnames
                0x000002e9       0xb1 build/default/production/src/drivers/adcctrl.o
 .debug_pubnames
                0x0000039a       0x1c build/default/production/src/eefs/crc32.o
 .debug_pubnames
                0x000003b6       0x3f build/default/production/src/eefs/eefs.o
 .debug_pubnames
                0x000003f5       0x88 build/default/production/src/FreeRTOS/portable/MemMang/heap_4.o
 .debug_pubnames
                0x0000047d      0x130 build/default/production/src/FreeRTOS/portable/MPLAB/PIC32MX/port.o
 .debug_pubnames
                0x000005ad      0x338 build/default/production/src/FreeRTOS/tasks.o
 .debug_pubnames
                0x000008e5       0x72 build/default/production/src/FreeRTOS/list.o
 .debug_pubnames
                0x00000957       0xd9 build/default/production/src/FreeRTOS/event_groups.o
 .debug_pubnames
                0x00000a30       0x96 build/default/production/src/FreeRTOS/croutine.o
 .debug_pubnames
                0x00000ac6      0x1b0 build/default/production/src/FreeRTOS/queue.o
 .debug_pubnames
                0x00000c76       0x31 build/default/production/src/hal/exceptions.o
 .debug_pubnames
                0x00000ca7       0x8c build/default/production/src/hal/hal_adc.o
 .debug_pubnames
                0x00000d33      0x1f9 build/default/production/src/hal/hal_uart.o
 .debug_pubnames
                0x00000f2c       0xe3 build/default/production/src/hal/hal_i2c.o
 .debug_pubnames
                0x0000100f       0x41 build/default/production/src/hal/hal_spi.o
 .debug_pubnames
                0x00001050       0x34 build/default/production/src/hal/hal_timer.o
 .debug_pubnames
                0x00001084      0x12d build/default/production/src/hal/hal_io.o
 .debug_pubnames
                0x000011b1       0x4a build/default/production/src/hal/hal_sys.o
 .debug_pubnames
                0x000011fb      0x1aa build/default/production/src/scpi-parser/libscpi/src/lexer.o
 .debug_pubnames
                0x000013a5       0x8a build/default/production/src/scpi-parser/libscpi/src/error.o
 .debug_pubnames
                0x0000142f       0x93 build/default/production/src/scpi-parser/libscpi/src/fifo.o
 .debug_pubnames
                0x000014c2      0x154 build/default/production/src/scpi-parser/libscpi/src/ieee488.o
 .debug_pubnames
                0x00001616       0xf9 build/default/production/src/scpi-parser/libscpi/src/minimal.o
 .debug_pubnames
                0x0000170f      0x525 build/default/production/src/scpi-parser/libscpi/src/parser.o
 .debug_pubnames
                0x00001c34       0x6c build/default/production/src/scpi-parser/libscpi/src/units.o
 .debug_pubnames
                0x00001ca0      0x21d build/default/production/src/scpi-parser/libscpi/src/utils.o
 .debug_pubnames
                0x00001ebd       0x7d build/default/production/src/sys/src/system.o
 .debug_pubnames
                0x00001f3a      0x213 build/default/production/src/sys/src/settings.o
 .debug_pubnames
                0x0000214d       0x27 build/default/production/src/tasks/task_calibration.o
 .debug_pubnames
                0x00002174       0x26 build/default/production/src/tasks/task_multimeter.o
 .debug_pubnames
                0x0000219a       0x89 build/default/production/src/tasks/main.o
 .debug_pubnames
                0x00002223       0x41 build/default/production/src/tasks/tskmgr.o
 .debug_pubnames
                0x00002264       0x5c build/default/production/src/tasks/task_scpi.o
 .debug_pubnames
                0x000022c0       0x26 build/default/production/src/utils/fcvt-1.1/fcvt.o
 .debug_pubnames
                0x000022e6       0x7e build/default/production/src/utils/src/diag.o
 .debug_pubnames
                0x00002364       0x94 build/default/production/src/utils/src/fitlinear.o
 .debug_pubnames
                0x000023f8       0x50 build/default/production/src/utils/src/disfmt.o
 .debug_pubnames
                0x00002448       0x82 build/default/production/src/utils/src/util_ringbuff.o
 .debug_pubnames
                0x000024ca       0x54 build/default/production/src/utils/src/strutils.o
 .debug_pubnames
                0x0000251e       0x24 /opt/microchip/xc32/v1.31/bin/../lib/gcc/pic32mx/4.5.2/../../../../pic32mx/lib/mips16/libmchp_peripheral.a(open_core_timer_lib.o)
 .debug_pubnames
                0x00002542       0x26 /opt/microchip/xc32/v1.31/bin/../lib/gcc/pic32mx/4.5.2/../../../../pic32mx/lib/mips16/libmchp_peripheral.a(update_core_timer_lib.o)
 .debug_pubnames
                0x00002568       0x3b /opt/microchip/xc32/v1.31/bin/../lib/gcc/pic32mx/4.5.2/../../../../pic32mx/lib/mips16/libmchp_peripheral_32MX350F256L.a(pcache.o)
 .debug_pubnames
                0x000025a3       0x29 /opt/microchip/xc32/v1.31/bin/../lib/gcc/pic32mx/4.5.2/../../../../pic32mx/lib/mips16/libmchp_peripheral_32MX350F256L.a(int_configure_system_lib.o)
 .debug_pubnames
                0x000025cc       0x2b /opt/microchip/xc32/v1.31/bin/../lib/gcc/pic32mx/4.5.2/../../../../pic32mx/lib/mips16/libmchp_peripheral_32MX350F256L.a(int_disable_interrupts_lib.o)
 .debug_pubnames
                0x000025f7       0x2b /opt/microchip/xc32/v1.31/bin/../lib/gcc/pic32mx/4.5.2/../../../../pic32mx/lib/mips16/libmchp_peripheral_32MX350F256L.a(int_restore_interrupts_lib.o)
 .debug_pubnames
                0x00002622       0xca /opt/microchip/xc32/v1.31/bin/../lib/gcc/pic32mx/4.5.2/../../../../pic32mx/lib/mips16/libmchp_peripheral_32MX350F256L.a(int_tbl_lib.o)
 .debug_pubnames
                0x000026ec       0x21 /opt/microchip/xc32/v1.31/bin/../lib/gcc/pic32mx/4.5.2/../../../../pic32mx/lib/mips16/libmchp_peripheral_32MX350F256L.a(spi_chn_open_lib.o)
 .debug_pubnames
                0x0000270d       0x43 /opt/microchip/xc32/v1.31/bin/../lib/gcc/pic32mx/4.5.2/../../../../pic32mx/lib/mips16/libmchp_peripheral_32MX350F256L.a(spi_chn_putc_lib.o)
 .debug_pubnames
                0x00002750       0x24 /opt/microchip/xc32/v1.31/bin/../lib/gcc/pic32mx/4.5.2/../../../../pic32mx/lib/mips16/libmchp_peripheral_32MX350F256L.a(power_idle_lib.o)
 .debug_pubnames
                0x00002774       0x2b /opt/microchip/xc32/v1.31/bin/../lib/gcc/pic32mx/4.5.2/../../../../pic32mx/lib/mips16/libmchp_peripheral_32MX350F256L.a(port_set_pins_digital_in_lib.o)
 .debug_pubnames
                0x0000279f       0x2c /opt/microchip/xc32/v1.31/bin/../lib/gcc/pic32mx/4.5.2/../../../../pic32mx/lib/mips16/libmchp_peripheral_32MX350F256L.a(port_set_pins_digital_out_lib.o)
 .debug_pubnames
                0x000027cb       0x23 /opt/microchip/xc32/v1.31/bin/../lib/gcc/pic32mx/4.5.2/../../../../pic32mx/lib/mips16/libmchp_peripheral_32MX350F256L.a(port_read_bits_lib.o)
 .debug_pubnames
                0x000027ee       0x24 /opt/microchip/xc32/v1.31/bin/../lib/gcc/pic32mx/4.5.2/../../../../pic32mx/lib/mips16/libmchp_peripheral_32MX350F256L.a(port_clear_bits_lib.o)
 .debug_pubnames
                0x00002812       0x22 /opt/microchip/xc32/v1.31/bin/../lib/gcc/pic32mx/4.5.2/../../../../pic32mx/lib/mips16/libmchp_peripheral_32MX350F256L.a(port_set_bits_lib.o)
 .debug_pubnames
                0x00002834       0x25 /opt/microchip/xc32/v1.31/bin/../lib/gcc/pic32mx/4.5.2/../../../../pic32mx/lib/mips16/libmchp_peripheral_32MX350F256L.a(port_toggle_bits_lib.o)
 .debug_pubnames
                0x00002859       0xb1 /opt/microchip/xc32/v1.31/bin/../lib/gcc/pic32mx/4.5.2/../../../../pic32mx/lib/mips16/libmchp_peripheral_32MX350F256L.a(uart_lib.o)
 .debug_pubnames
                0x0000290a       0x29 /opt/microchip/xc32/v1.31/bin/../lib/gcc/pic32mx/4.5.2/../../../../pic32mx/lib/mips16/libmchp_peripheral_32MX350F256L.a(I2CAcknowledgeByte.o)
 .debug_pubnames
                0x00002933       0x31 /opt/microchip/xc32/v1.31/bin/../lib/gcc/pic32mx/4.5.2/../../../../pic32mx/lib/mips16/libmchp_peripheral_32MX350F256L.a(I2CAcknowledgeHasCompleted.o)
 .debug_pubnames
                0x00002964       0x23 /opt/microchip/xc32/v1.31/bin/../lib/gcc/pic32mx/4.5.2/../../../../pic32mx/lib/mips16/libmchp_peripheral_32MX350F256L.a(I2CBusIsIdle.o)
 .debug_pubnames
                0x00002987       0x2d /opt/microchip/xc32/v1.31/bin/../lib/gcc/pic32mx/4.5.2/../../../../pic32mx/lib/mips16/libmchp_peripheral_32MX350F256L.a(I2CByteWasAcknowledged.o)
 .debug_pubnames
                0x000029b4       0x23 /opt/microchip/xc32/v1.31/bin/../lib/gcc/pic32mx/4.5.2/../../../../pic32mx/lib/mips16/libmchp_peripheral_32MX350F256L.a(I2CConfigure.o)
 .debug_pubnames
                0x000029d7       0x20 /opt/microchip/xc32/v1.31/bin/../lib/gcc/pic32mx/4.5.2/../../../../pic32mx/lib/mips16/libmchp_peripheral_32MX350F256L.a(I2CEnable.o)
 .debug_pubnames
                0x000029f7       0x21 /opt/microchip/xc32/v1.31/bin/../lib/gcc/pic32mx/4.5.2/../../../../pic32mx/lib/mips16/libmchp_peripheral_32MX350F256L.a(I2CGetByte.o)
 .debug_pubnames
                0x00002a18       0x23 /opt/microchip/xc32/v1.31/bin/../lib/gcc/pic32mx/4.5.2/../../../../pic32mx/lib/mips16/libmchp_peripheral_32MX350F256L.a(I2CGetStatus.o)
 .debug_pubnames
                0x00002a3b       0x31 /opt/microchip/xc32/v1.31/bin/../lib/gcc/pic32mx/4.5.2/../../../../pic32mx/lib/mips16/libmchp_peripheral_32MX350F256L.a(I2CReceivedDataIsAvailable.o)
 .debug_pubnames
                0x00002a6c       0x28 /opt/microchip/xc32/v1.31/bin/../lib/gcc/pic32mx/4.5.2/../../../../pic32mx/lib/mips16/libmchp_peripheral_32MX350F256L.a(I2CReceiverEnable.o)
 .debug_pubnames
                0x00002a94       0x25 /opt/microchip/xc32/v1.31/bin/../lib/gcc/pic32mx/4.5.2/../../../../pic32mx/lib/mips16/libmchp_peripheral_32MX350F256L.a(I2CRepeatStart.o)
 .debug_pubnames
                0x00002ab9       0x22 /opt/microchip/xc32/v1.31/bin/../lib/gcc/pic32mx/4.5.2/../../../../pic32mx/lib/mips16/libmchp_peripheral_32MX350F256L.a(I2CSendByte.o)
 .debug_pubnames
                0x00002adb       0x26 /opt/microchip/xc32/v1.31/bin/../lib/gcc/pic32mx/4.5.2/../../../../pic32mx/lib/mips16/libmchp_peripheral_32MX350F256L.a(I2CSetFrequency.o)
 .debug_pubnames
                0x00002b01       0x1f /opt/microchip/xc32/v1.31/bin/../lib/gcc/pic32mx/4.5.2/../../../../pic32mx/lib/mips16/libmchp_peripheral_32MX350F256L.a(I2CStart.o)
 .debug_pubnames
                0x00002b20       0x1e /opt/microchip/xc32/v1.31/bin/../lib/gcc/pic32mx/4.5.2/../../../../pic32mx/lib/mips16/libmchp_peripheral_32MX350F256L.a(I2CStop.o)
 .debug_pubnames
                0x00002b3e       0x32 /opt/microchip/xc32/v1.31/bin/../lib/gcc/pic32mx/4.5.2/../../../../pic32mx/lib/mips16/libmchp_peripheral_32MX350F256L.a(I2CTransmissionHasCompleted.o)
 .debug_pubnames
                0x00002b70       0x2c /opt/microchip/xc32/v1.31/bin/../lib/gcc/pic32mx/4.5.2/../../../../pic32mx/lib/mips16/libmchp_peripheral_32MX350F256L.a(I2CTransmitterIsReady.o)
 .debug_pubnames
                0x00002b9c       0x24 /opt/microchip/xc32/v1.31/bin/../lib/gcc/pic32mx/4.5.2/mips16/libgcc.a(_floatundidf.o)
 .debug_pubnames
                0x00002bc0       0x20 /opt/microchip/xc32/v1.31/bin/../lib/gcc/pic32mx/4.5.2/mips16/libgcc.a(_udivdi3.o)
 .debug_pubnames
                0x00002be0       0x24 /opt/microchip/xc32/v1.31/bin/../lib/gcc/pic32mx/4.5.2/mips16/libgcc.a(floatunsidf.o)
 .debug_pubnames
                0x00002c04       0x24 /opt/microchip/xc32/v1.31/bin/../lib/gcc/pic32mx/4.5.2/mips16/libgcc.a(floatunsisf.o)
 .debug_pubnames
                0x00002c28       0x20 /opt/microchip/xc32/v1.31/bin/../lib/gcc/pic32mx/4.5.2/mips16/libgcc.a(_clz.o)
 .debug_pubnames
                0x00002c48       0x33 /opt/microchip/xc32/v1.31/bin/../lib/gcc/pic32mx/4.5.2/../../../../pic32mx/lib/mips16/libpic32.a(default-bootstrap-exception-handler.o)
 .debug_pubnames
                0x00002c7b       0x20 /opt/microchip/xc32/v1.31/bin/../lib/gcc/pic32mx/4.5.2/../../../../pic32mx/lib/mips16/libpic32.a(default-on-reset.o)
 .debug_pubnames
                0x00002c9b       0x24 /opt/microchip/xc32/v1.31/bin/../lib/gcc/pic32mx/4.5.2/../../../../pic32mx/lib/mips16/libpic32.a(default-on-bootstrap.o)
 .debug_pubnames
                0x00002cbf       0x1a /opt/microchip/xc32/v1.31/bin/../lib/gcc/pic32mx/4.5.2/../../../../pic32mx/lib/mips16/libm.a(w_pow.o)
 .debug_pubnames
                0x00002cd9       0x1c /opt/microchip/xc32/v1.31/bin/../lib/gcc/pic32mx/4.5.2/../../../../pic32mx/lib/mips16/libm.a(w_log10.o)
 .debug_pubnames
                0x00002cf5       0x2f /opt/microchip/xc32/v1.31/bin/../lib/gcc/pic32mx/4.5.2/../../../../pic32mx/lib/mips16/libm.a(floor.o)
 .debug_pubnames
                0x00002d24       0x1b /opt/microchip/xc32/v1.31/bin/../lib/gcc/pic32mx/4.5.2/../../../../pic32mx/lib/mips16/libm.a(w_sqrt.o)
 .debug_pubnames
                0x00002d3f       0x98 /opt/microchip/xc32/v1.31/bin/../lib/gcc/pic32mx/4.5.2/../../../../pic32mx/lib/mips16/libm.a(support.o)
 .debug_pubnames
                0x00002dd7       0x1c /opt/microchip/xc32/v1.31/bin/../lib/gcc/pic32mx/4.5.2/../../../../pic32mx/lib/mips16/libm.a(w_ldexp.o)
 .debug_pubnames
                0x00002df3       0x21 /opt/microchip/xc32/v1.31/bin/../lib/gcc/pic32mx/4.5.2/../../../../pic32mx/lib/mips16/libe.a(_unorddf2.o)
 .debug_pubnames
                0x00002e14       0x52 /opt/microchip/xc32/v1.31/bin/../lib/gcc/pic32mx/4.5.2/../../../../pic32mx/lib/mips16/libpic32.a(isinf.o)
 .debug_pubnames
                0x00002e66       0x1d /opt/microchip/xc32/v1.31/bin/../lib/gcc/pic32mx/4.5.2/../../../../pic32mx/lib/mips16/libc.a(fwrite.o)
 .debug_pubnames
                0x00002e83       0xe1 /opt/microchip/xc32/v1.31/bin/../lib/gcc/pic32mx/4.5.2/../../../../pic32mx/lib/mips16/libc.a(ctypef.o)
 .debug_pubnames
                0x00002f64       0x1d /opt/microchip/xc32/v1.31/bin/../lib/gcc/pic32mx/4.5.2/../../../../pic32mx/lib/mips16/libc.a(memcmp.o)
 .debug_pubnames
                0x00002f81       0x1d /opt/microchip/xc32/v1.31/bin/../lib/gcc/pic32mx/4.5.2/../../../../pic32mx/lib/mips16/libc.a(memcpy.o)
 .debug_pubnames
                0x00002f9e       0x1e /opt/microchip/xc32/v1.31/bin/../lib/gcc/pic32mx/4.5.2/../../../../pic32mx/lib/mips16/libc.a(memmove.o)
 .debug_pubnames
                0x00002fbc       0x1d /opt/microchip/xc32/v1.31/bin/../lib/gcc/pic32mx/4.5.2/../../../../pic32mx/lib/mips16/libc.a(memset.o)
 .debug_pubnames
                0x00002fd9       0x25 /opt/microchip/xc32/v1.31/bin/../lib/gcc/pic32mx/4.5.2/../../../../pic32mx/lib/mips16/libc.a(puts.o)
 .debug_pubnames
                0x00002ffe       0x1d /opt/microchip/xc32/v1.31/bin/../lib/gcc/pic32mx/4.5.2/../../../../pic32mx/lib/mips16/libc.a(strchr.o)
 .debug_pubnames
                0x0000301b       0x1d /opt/microchip/xc32/v1.31/bin/../lib/gcc/pic32mx/4.5.2/../../../../pic32mx/lib/mips16/libc.a(strlen.o)
 .debug_pubnames
                0x00003038       0x22 /opt/microchip/xc32/v1.31/bin/../lib/gcc/pic32mx/4.5.2/../../../../pic32mx/lib/mips16/libc.a(strncasecmp.o)
 .debug_pubnames
                0x0000305a       0x1e /opt/microchip/xc32/v1.31/bin/../lib/gcc/pic32mx/4.5.2/../../../../pic32mx/lib/mips16/libc.a(strncat.o)
 .debug_pubnames
                0x00003078       0x1e /opt/microchip/xc32/v1.31/bin/../lib/gcc/pic32mx/4.5.2/../../../../pic32mx/lib/mips16/libc.a(strncpy.o)
 .debug_pubnames
                0x00003096       0x2a /opt/microchip/xc32/v1.31/bin/../lib/gcc/pic32mx/4.5.2/../../../../pic32mx/lib/mips16/libc.a(strtod.o)
 .debug_pubnames
                0x000030c0       0x29 /opt/microchip/xc32/v1.31/bin/../lib/gcc/pic32mx/4.5.2/../../../../pic32mx/lib/mips16/libc.a(strtof.o)
 .debug_pubnames
                0x000030e9       0x1d /opt/microchip/xc32/v1.31/bin/../lib/gcc/pic32mx/4.5.2/../../../../pic32mx/lib/mips16/libc.a(strstr.o)
 .debug_pubnames
                0x00003106       0x29 /opt/microchip/xc32/v1.31/bin/../lib/gcc/pic32mx/4.5.2/../../../../pic32mx/lib/mips16/libc.a(strtol.o)
 .debug_pubnames
                0x0000312f       0x2b /opt/microchip/xc32/v1.31/bin/../lib/gcc/pic32mx/4.5.2/../../../../pic32mx/lib/mips16/libc.a(strtoll.o)
 .debug_pubnames
                0x0000315a       0x2a /opt/microchip/xc32/v1.31/bin/../lib/gcc/pic32mx/4.5.2/../../../../pic32mx/lib/mips16/libc.a(printf_cdfFnopsuxX.eo)
 .debug_pubnames
                0x00003184       0x1e /opt/microchip/xc32/v1.31/bin/../lib/gcc/pic32mx/4.5.2/../../../../pic32mx/lib/mips16/libc.a(vprintf.o)
 .debug_pubnames
                0x000031a2       0x23 /opt/microchip/xc32/v1.31/bin/../lib/gcc/pic32mx/4.5.2/../../../../pic32mx/lib/mips16/libc.a(snprintf_gG.eo)
 .debug_pubnames
                0x000031c5       0x24 /opt/microchip/xc32/v1.31/bin/../lib/gcc/pic32mx/4.5.2/../../../../pic32mx/lib/mips16/libc.a(vsnprintf_gG.eo)
 .debug_pubnames
                0x000031e9       0x1d /opt/microchip/xc32/v1.31/bin/../lib/gcc/pic32mx/4.5.2/../../../../pic32mx/lib/mips16/libc.a(fflush.o)
 .debug_pubnames
                0x00003206       0x1c /opt/microchip/xc32/v1.31/bin/../lib/gcc/pic32mx/4.5.2/../../../../pic32mx/lib/mips16/libc.a(_fputc_simple.o)
 .debug_pubnames
                0x00003222       0x26 /opt/microchip/xc32/v1.31/bin/../lib/gcc/pic32mx/4.5.2/../../../../pic32mx/lib/mips16/libc.a(fseek.o)
 .debug_pubnames
                0x00003248       0x1e /opt/microchip/xc32/v1.31/bin/../lib/gcc/pic32mx/4.5.2/../../../../pic32mx/lib/mips16/libc.a(strncmp.o)
 .debug_pubnames
                0x00003266       0x1f /opt/microchip/xc32/v1.31/bin/../lib/gcc/pic32mx/4.5.2/../../../../pic32mx/lib/mips16/libc.a(doprnt.o)
 .debug_pubnames
                0x00003285       0x1e /opt/microchip/xc32/v1.31/bin/../lib/gcc/pic32mx/4.5.2/../../../../pic32mx/lib/mips16/libc.a(_flsbuf_simple.o)
 .debug_pubnames
                0x000032a3       0x1c /opt/microchip/xc32/v1.31/bin/../lib/gcc/pic32mx/4.5.2/../../../../pic32mx/lib/mips16/libpic32.a(write.o)
 .debug_pubnames
                0x000032bf       0x1c /opt/microchip/xc32/v1.31/bin/../lib/gcc/pic32mx/4.5.2/../../../../pic32mx/lib/mips16/libpic32.a(lseek.o)
 .debug_pubnames
                0x000032db       0x22 /opt/microchip/xc32/v1.31/bin/../lib/gcc/pic32mx/4.5.2/../../../../pic32mx/lib/mips16/libe.a(_floatdisf.o)
 .debug_pubnames
                0x000032fd       0x1f /opt/microchip/xc32/v1.31/bin/../lib/gcc/pic32mx/4.5.2/../../../../pic32mx/lib/mips16/libe.a(_strtod.o)
 .debug_pubnames
                0x0000331c       0x1f /opt/microchip/xc32/v1.31/bin/../lib/gcc/pic32mx/4.5.2/../../../../pic32mx/lib/mips16/libe.a(_strtof.o)
 .debug_pubnames
                0x0000333b       0x1e /opt/microchip/xc32/v1.31/bin/../lib/gcc/pic32mx/4.5.2/../../../../pic32mx/lib/mips16/libe.a(_ldexp.o)
 .debug_pubnames
                0x00003359       0x1f /opt/microchip/xc32/v1.31/bin/../lib/gcc/pic32mx/4.5.2/../../../../pic32mx/lib/mips16/libe.a(_ldexpf.o)
 .debug_pubnames
                0x00003378       0x20 /opt/microchip/xc32/v1.31/bin/../lib/gcc/pic32mx/4.5.2/mips16/libgcc.a(_lshrdi3.o)
 .debug_pubnames
                0x00003398       0x24 /opt/microchip/xc32/v1.31/bin/../lib/gcc/pic32mx/4.5.2/mips16/libgcc.a(_floatundisf.o)
 .debug_pubnames
                0x000033bc       0x20 /opt/microchip/xc32/v1.31/bin/../lib/gcc/pic32mx/4.5.2/mips16/libgcc.a(_umoddi3.o)
 .debug_pubnames
                0x000033dc       0x2e /opt/microchip/xc32/v1.31/bin/../lib/gcc/pic32mx/4.5.2/../../../../pic32mx/lib/mips16/libc.a(doprnt_cdfFgGnopsuxX.eo)

.debug_info     0x00000000    0x254a7
 *(.debug_info .gnu.linkonce.wi.*)
 .debug_info    0x00000000      0x3af build/default/production/src/drivers/eeprom.o
 .debug_info    0x000003af      0x43e build/default/production/src/drivers/tmp275.o
 .debug_info    0x000007ed      0x7d2 build/default/production/src/drivers/dispkyb.o
 .debug_info    0x00000fbf      0x4ad build/default/production/src/drivers/usb_uart.o
 .debug_info    0x0000146c      0x90c build/default/production/src/drivers/adc.o
 .debug_info    0x00001d78      0xaa7 build/default/production/src/drivers/adcctrl.o
 .debug_info    0x0000281f      0x1e3 build/default/production/src/eefs/crc32.o
 .debug_info    0x00002a02      0x478 build/default/production/src/eefs/eefs.o
 .debug_info    0x00002e7a      0x555 build/default/production/src/FreeRTOS/portable/MemMang/heap_4.o
 .debug_info    0x000033cf      0xe80 build/default/production/src/FreeRTOS/portable/MPLAB/PIC32MX/port.o
 .debug_info    0x0000424f       0x80 build/default/production/src/FreeRTOS/portable/MPLAB/PIC32MX/port_asm.o
 .debug_info    0x000042cf      0x12c build/default/production/src/FreeRTOS/timers.o
 .debug_info    0x000043fb     0x1904 build/default/production/src/FreeRTOS/tasks.o
 .debug_info    0x00005cff      0x428 build/default/production/src/FreeRTOS/list.o
 .debug_info    0x00006127      0x8b6 build/default/production/src/FreeRTOS/event_groups.o
 .debug_info    0x000069dd      0x861 build/default/production/src/FreeRTOS/croutine.o
 .debug_info    0x0000723e      0xddc build/default/production/src/FreeRTOS/queue.o
 .debug_info    0x0000801a       0xdb build/default/production/src/hal/fuses.o
 .debug_info    0x000080f5      0x267 build/default/production/src/hal/exceptions.o
 .debug_info    0x0000835c       0x67 build/default/production/src/hal/isrWrappers.o
 .debug_info    0x000083c3     0x1194 build/default/production/src/hal/hal_adc.o
 .debug_info    0x00009557     0x2459 build/default/production/src/hal/hal_uart.o
 .debug_info    0x0000b9b0      0x846 build/default/production/src/hal/hal_i2c.o
 .debug_info    0x0000c1f6      0x623 build/default/production/src/hal/hal_spi.o
 .debug_info    0x0000c819      0x6b8 build/default/production/src/hal/hal_timer.o
 .debug_info    0x0000ced1      0x56b build/default/production/src/hal/hal_io.o
 .debug_info    0x0000d43c     0x117f build/default/production/src/hal/hal_sys.o
 .debug_info    0x0000e5bb     0x1275 build/default/production/src/scpi-parser/libscpi/src/lexer.o
 .debug_info    0x0000f830     0x1444 build/default/production/src/scpi-parser/libscpi/src/error.o
 .debug_info    0x00010c74      0x3c8 build/default/production/src/scpi-parser/libscpi/src/fifo.o
 .debug_info    0x0001103c     0x14ec build/default/production/src/scpi-parser/libscpi/src/ieee488.o
 .debug_info    0x00012528     0x11c2 build/default/production/src/scpi-parser/libscpi/src/minimal.o
 .debug_info    0x000136ea     0x33b7 build/default/production/src/scpi-parser/libscpi/src/parser.o
 .debug_info    0x00016aa1     0x1651 build/default/production/src/scpi-parser/libscpi/src/units.o
 .debug_info    0x000180f2     0x15b5 build/default/production/src/scpi-parser/libscpi/src/utils.o
 .debug_info    0x000196a7      0x886 build/default/production/src/sys/src/system.o
 .debug_info    0x00019f2d      0xe1e build/default/production/src/sys/src/settings.o
 .debug_info    0x0001ad4b      0x726 build/default/production/src/tasks/task_calibration.o
 .debug_info    0x0001b471      0x46f build/default/production/src/tasks/task_multimeter.o
 .debug_info    0x0001b8e0      0x25b build/default/production/src/tasks/main.o
 .debug_info    0x0001bb3b      0x78d build/default/production/src/tasks/tskmgr.o
 .debug_info    0x0001c2c8     0x1700 build/default/production/src/tasks/task_scpi.o
 .debug_info    0x0001d9c8      0x31b build/default/production/src/utils/fcvt-1.1/fcvt.o
 .debug_info    0x0001dce3      0x2c4 build/default/production/src/utils/src/diag.o
 .debug_info    0x0001dfa7      0x9ac build/default/production/src/utils/src/fitlinear.o
 .debug_info    0x0001e953      0x6ef build/default/production/src/utils/src/disfmt.o
 .debug_info    0x0001f042      0x2f7 build/default/production/src/utils/src/util_ringbuff.o
 .debug_info    0x0001f339      0x45f build/default/production/src/utils/src/strutils.o
 .debug_info    0x0001f798       0xaa /opt/microchip/xc32/v1.31/bin/../lib/gcc/pic32mx/4.5.2/../../../../pic32mx/lib/mips16/libmchp_peripheral.a(open_core_timer_lib.o)
 .debug_info    0x0001f842       0xae /opt/microchip/xc32/v1.31/bin/../lib/gcc/pic32mx/4.5.2/../../../../pic32mx/lib/mips16/libmchp_peripheral.a(update_core_timer_lib.o)
 .debug_info    0x0001f8f0       0xbf /opt/microchip/xc32/v1.31/bin/../lib/gcc/pic32mx/4.5.2/../../../../pic32mx/lib/mips16/libmchp_peripheral_32MX350F256L.a(pcache.o)
 .debug_info    0x0001f9af       0xb2 /opt/microchip/xc32/v1.31/bin/../lib/gcc/pic32mx/4.5.2/../../../../pic32mx/lib/mips16/libmchp_peripheral_32MX350F256L.a(int_configure_system_lib.o)
 .debug_info    0x0001fa61       0xb6 /opt/microchip/xc32/v1.31/bin/../lib/gcc/pic32mx/4.5.2/../../../../pic32mx/lib/mips16/libmchp_peripheral_32MX350F256L.a(int_disable_interrupts_lib.o)
 .debug_info    0x0001fb17       0xb6 /opt/microchip/xc32/v1.31/bin/../lib/gcc/pic32mx/4.5.2/../../../../pic32mx/lib/mips16/libmchp_peripheral_32MX350F256L.a(int_restore_interrupts_lib.o)
 .debug_info    0x0001fbcd      0x196 /opt/microchip/xc32/v1.31/bin/../lib/gcc/pic32mx/4.5.2/../../../../pic32mx/lib/mips16/libmchp_peripheral_32MX350F256L.a(int_tbl_lib.o)
 .debug_info    0x0001fd63       0xa2 /opt/microchip/xc32/v1.31/bin/../lib/gcc/pic32mx/4.5.2/../../../../pic32mx/lib/mips16/libmchp_peripheral_32MX350F256L.a(spi_chn_open_lib.o)
 .debug_info    0x0001fe05       0xeb /opt/microchip/xc32/v1.31/bin/../lib/gcc/pic32mx/4.5.2/../../../../pic32mx/lib/mips16/libmchp_peripheral_32MX350F256L.a(spi_chn_putc_lib.o)
 .debug_info    0x0001fef0        0x0 /opt/microchip/xc32/v1.31/bin/../lib/gcc/pic32mx/4.5.2/../../../../pic32mx/lib/mips16/libmchp_peripheral_32MX350F256L.a(spi_map_tbl_libp.o)
 .debug_info    0x0001fef0       0xc6 /opt/microchip/xc32/v1.31/bin/../lib/gcc/pic32mx/4.5.2/../../../../pic32mx/lib/mips16/libmchp_peripheral_32MX350F256L.a(power_idle_lib.o)
 .debug_info    0x0001ffb6       0xba /opt/microchip/xc32/v1.31/bin/../lib/gcc/pic32mx/4.5.2/../../../../pic32mx/lib/mips16/libmchp_peripheral_32MX350F256L.a(port_set_pins_digital_in_lib.o)
 .debug_info    0x00020070       0xbc /opt/microchip/xc32/v1.31/bin/../lib/gcc/pic32mx/4.5.2/../../../../pic32mx/lib/mips16/libmchp_peripheral_32MX350F256L.a(port_set_pins_digital_out_lib.o)
 .debug_info    0x0002012c       0xa8 /opt/microchip/xc32/v1.31/bin/../lib/gcc/pic32mx/4.5.2/../../../../pic32mx/lib/mips16/libmchp_peripheral_32MX350F256L.a(port_read_bits_lib.o)
 .debug_info    0x000201d4       0xaa /opt/microchip/xc32/v1.31/bin/../lib/gcc/pic32mx/4.5.2/../../../../pic32mx/lib/mips16/libmchp_peripheral_32MX350F256L.a(port_clear_bits_lib.o)
 .debug_info    0x0002027e       0xa6 /opt/microchip/xc32/v1.31/bin/../lib/gcc/pic32mx/4.5.2/../../../../pic32mx/lib/mips16/libmchp_peripheral_32MX350F256L.a(port_set_bits_lib.o)
 .debug_info    0x00020324       0xac /opt/microchip/xc32/v1.31/bin/../lib/gcc/pic32mx/4.5.2/../../../../pic32mx/lib/mips16/libmchp_peripheral_32MX350F256L.a(port_toggle_bits_lib.o)
 .debug_info    0x000203d0        0x0 /opt/microchip/xc32/v1.31/bin/../lib/gcc/pic32mx/4.5.2/../../../../pic32mx/lib/mips16/libmchp_peripheral_32MX350F256L.a(_ports_tbl_libp.o)
 .debug_info    0x000203d0      0x175 /opt/microchip/xc32/v1.31/bin/../lib/gcc/pic32mx/4.5.2/../../../../pic32mx/lib/mips16/libmchp_peripheral_32MX350F256L.a(uart_lib.o)
 .debug_info    0x00020545       0xac /opt/microchip/xc32/v1.31/bin/../lib/gcc/pic32mx/4.5.2/../../../../pic32mx/lib/mips16/libmchp_peripheral_32MX350F256L.a(I2CAcknowledgeByte.o)
 .debug_info    0x000205f1       0xbc /opt/microchip/xc32/v1.31/bin/../lib/gcc/pic32mx/4.5.2/../../../../pic32mx/lib/mips16/libmchp_peripheral_32MX350F256L.a(I2CAcknowledgeHasCompleted.o)
 .debug_info    0x000206ad       0xa0 /opt/microchip/xc32/v1.31/bin/../lib/gcc/pic32mx/4.5.2/../../../../pic32mx/lib/mips16/libmchp_peripheral_32MX350F256L.a(I2CBusIsIdle.o)
 .debug_info    0x0002074d       0xb4 /opt/microchip/xc32/v1.31/bin/../lib/gcc/pic32mx/4.5.2/../../../../pic32mx/lib/mips16/libmchp_peripheral_32MX350F256L.a(I2CByteWasAcknowledged.o)
 .debug_info    0x00020801       0xa0 /opt/microchip/xc32/v1.31/bin/../lib/gcc/pic32mx/4.5.2/../../../../pic32mx/lib/mips16/libmchp_peripheral_32MX350F256L.a(I2CConfigure.o)
 .debug_info    0x000208a1       0x9a /opt/microchip/xc32/v1.31/bin/../lib/gcc/pic32mx/4.5.2/../../../../pic32mx/lib/mips16/libmchp_peripheral_32MX350F256L.a(I2CEnable.o)
 .debug_info    0x0002093b       0x9c /opt/microchip/xc32/v1.31/bin/../lib/gcc/pic32mx/4.5.2/../../../../pic32mx/lib/mips16/libmchp_peripheral_32MX350F256L.a(I2CGetByte.o)
 .debug_info    0x000209d7       0xa0 /opt/microchip/xc32/v1.31/bin/../lib/gcc/pic32mx/4.5.2/../../../../pic32mx/lib/mips16/libmchp_peripheral_32MX350F256L.a(I2CGetStatus.o)
 .debug_info    0x00020a77       0xbc /opt/microchip/xc32/v1.31/bin/../lib/gcc/pic32mx/4.5.2/../../../../pic32mx/lib/mips16/libmchp_peripheral_32MX350F256L.a(I2CReceivedDataIsAvailable.o)
 .debug_info    0x00020b33       0xaa /opt/microchip/xc32/v1.31/bin/../lib/gcc/pic32mx/4.5.2/../../../../pic32mx/lib/mips16/libmchp_peripheral_32MX350F256L.a(I2CReceiverEnable.o)
 .debug_info    0x00020bdd       0xa4 /opt/microchip/xc32/v1.31/bin/../lib/gcc/pic32mx/4.5.2/../../../../pic32mx/lib/mips16/libmchp_peripheral_32MX350F256L.a(I2CRepeatStart.o)
 .debug_info    0x00020c81       0x9e /opt/microchip/xc32/v1.31/bin/../lib/gcc/pic32mx/4.5.2/../../../../pic32mx/lib/mips16/libmchp_peripheral_32MX350F256L.a(I2CSendByte.o)
 .debug_info    0x00020d1f       0xa6 /opt/microchip/xc32/v1.31/bin/../lib/gcc/pic32mx/4.5.2/../../../../pic32mx/lib/mips16/libmchp_peripheral_32MX350F256L.a(I2CSetFrequency.o)
 .debug_info    0x00020dc5       0x98 /opt/microchip/xc32/v1.31/bin/../lib/gcc/pic32mx/4.5.2/../../../../pic32mx/lib/mips16/libmchp_peripheral_32MX350F256L.a(I2CStart.o)
 .debug_info    0x00020e5d       0x96 /opt/microchip/xc32/v1.31/bin/../lib/gcc/pic32mx/4.5.2/../../../../pic32mx/lib/mips16/libmchp_peripheral_32MX350F256L.a(I2CStop.o)
 .debug_info    0x00020ef3       0xbe /opt/microchip/xc32/v1.31/bin/../lib/gcc/pic32mx/4.5.2/../../../../pic32mx/lib/mips16/libmchp_peripheral_32MX350F256L.a(I2CTransmissionHasCompleted.o)
 .debug_info    0x00020fb1       0xb2 /opt/microchip/xc32/v1.31/bin/../lib/gcc/pic32mx/4.5.2/../../../../pic32mx/lib/mips16/libmchp_peripheral_32MX350F256L.a(I2CTransmitterIsReady.o)
 .debug_info    0x00021063        0x0 /opt/microchip/xc32/v1.31/bin/../lib/gcc/pic32mx/4.5.2/../../../../pic32mx/lib/mips16/libmchp_peripheral_32MX350F256L.a(I2CPrivate.o)
 .debug_info    0x00021063      0x312 /opt/microchip/xc32/v1.31/bin/../lib/gcc/pic32mx/4.5.2/mips16/libgcc.a(_floatundidf.o)
 .debug_info    0x00021375      0x870 /opt/microchip/xc32/v1.31/bin/../lib/gcc/pic32mx/4.5.2/mips16/libgcc.a(_udivdi3.o)
 .debug_info    0x00021be5      0x176 /opt/microchip/xc32/v1.31/bin/../lib/gcc/pic32mx/4.5.2/mips16/libgcc.a(floatunsidf.o)
 .debug_info    0x00021d5b      0x163 /opt/microchip/xc32/v1.31/bin/../lib/gcc/pic32mx/4.5.2/mips16/libgcc.a(floatunsisf.o)
 .debug_info    0x00021ebe      0x22a /opt/microchip/xc32/v1.31/bin/../lib/gcc/pic32mx/4.5.2/mips16/libgcc.a(_clz.o)
 .debug_info    0x000220e8       0xde /opt/microchip/xc32/v1.31/bin/../lib/gcc/pic32mx/4.5.2/../../../../pic32mx/lib/mips16/libpic32.a(default-bootstrap-exception-handler.o)
 .debug_info    0x000221c6       0xb8 /opt/microchip/xc32/v1.31/bin/../lib/gcc/pic32mx/4.5.2/../../../../pic32mx/lib/mips16/libpic32.a(default-on-reset.o)
 .debug_info    0x0002227e       0xc0 /opt/microchip/xc32/v1.31/bin/../lib/gcc/pic32mx/4.5.2/../../../../pic32mx/lib/mips16/libpic32.a(default-on-bootstrap.o)
 .debug_info    0x0002233e       0xab /opt/microchip/xc32/v1.31/bin/../lib/gcc/pic32mx/4.5.2/../../../../pic32mx/lib/mips16/libm.a(w_pow.o)
 .debug_info    0x000223e9       0xaf /opt/microchip/xc32/v1.31/bin/../lib/gcc/pic32mx/4.5.2/../../../../pic32mx/lib/mips16/libm.a(w_log10.o)
 .debug_info    0x00022498       0xe8 /opt/microchip/xc32/v1.31/bin/../lib/gcc/pic32mx/4.5.2/../../../../pic32mx/lib/mips16/libm.a(floor.o)
 .debug_info    0x00022580       0xa6 /opt/microchip/xc32/v1.31/bin/../lib/gcc/pic32mx/4.5.2/../../../../pic32mx/lib/mips16/libm.a(w_sqrt.o)
 .debug_info    0x00022626        0x0 /opt/microchip/xc32/v1.31/bin/../lib/gcc/pic32mx/4.5.2/../../../../pic32mx/lib/mips16/libm.a(s_lib_ver.o)
 .debug_info    0x00022626      0x192 /opt/microchip/xc32/v1.31/bin/../lib/gcc/pic32mx/4.5.2/../../../../pic32mx/lib/mips16/libm.a(support.o)
 .debug_info    0x000227b8       0xaf /opt/microchip/xc32/v1.31/bin/../lib/gcc/pic32mx/4.5.2/../../../../pic32mx/lib/mips16/libm.a(w_ldexp.o)
 .debug_info    0x00022867       0xc2 /opt/microchip/xc32/v1.31/bin/../lib/gcc/pic32mx/4.5.2/../../../../pic32mx/lib/mips16/libe.a(_unorddf2.o)
 .debug_info    0x00022929        0x0 /opt/microchip/xc32/v1.31/bin/../lib/gcc/pic32mx/4.5.2/../../../../pic32mx/lib/mips16/libpic32.a(errno.o)
 .debug_info    0x00022929      0x111 /opt/microchip/xc32/v1.31/bin/../lib/gcc/pic32mx/4.5.2/../../../../pic32mx/lib/mips16/libpic32.a(isinf.o)
 .debug_info    0x00022a3a        0x0 /opt/microchip/xc32/v1.31/bin/../lib/gcc/pic32mx/4.5.2/../../../../pic32mx/lib/mips16/libc.a(_iob.o)
 .debug_info    0x00022a3a       0xb1 /opt/microchip/xc32/v1.31/bin/../lib/gcc/pic32mx/4.5.2/../../../../pic32mx/lib/mips16/libc.a(fwrite.o)
 .debug_info    0x00022aeb        0x0 /opt/microchip/xc32/v1.31/bin/../lib/gcc/pic32mx/4.5.2/../../../../pic32mx/lib/mips16/libc.a(ctype.o)
 .debug_info    0x00022aeb      0x215 /opt/microchip/xc32/v1.31/bin/../lib/gcc/pic32mx/4.5.2/../../../../pic32mx/lib/mips16/libc.a(ctypef.o)
 .debug_info    0x00022d00       0xb1 /opt/microchip/xc32/v1.31/bin/../lib/gcc/pic32mx/4.5.2/../../../../pic32mx/lib/mips16/libc.a(memcmp.o)
 .debug_info    0x00022db1       0xb1 /opt/microchip/xc32/v1.31/bin/../lib/gcc/pic32mx/4.5.2/../../../../pic32mx/lib/mips16/libc.a(memcpy.o)
 .debug_info    0x00022e62       0xb3 /opt/microchip/xc32/v1.31/bin/../lib/gcc/pic32mx/4.5.2/../../../../pic32mx/lib/mips16/libc.a(memmove.o)
 .debug_info    0x00022f15       0xb1 /opt/microchip/xc32/v1.31/bin/../lib/gcc/pic32mx/4.5.2/../../../../pic32mx/lib/mips16/libc.a(memset.o)
 .debug_info    0x00022fc6       0xc1 /opt/microchip/xc32/v1.31/bin/../lib/gcc/pic32mx/4.5.2/../../../../pic32mx/lib/mips16/libc.a(puts.o)
 .debug_info    0x00023087       0xb1 /opt/microchip/xc32/v1.31/bin/../lib/gcc/pic32mx/4.5.2/../../../../pic32mx/lib/mips16/libc.a(strchr.o)
 .debug_info    0x00023138       0xb1 /opt/microchip/xc32/v1.31/bin/../lib/gcc/pic32mx/4.5.2/../../../../pic32mx/lib/mips16/libc.a(strlen.o)
 .debug_info    0x000231e9       0xbb /opt/microchip/xc32/v1.31/bin/../lib/gcc/pic32mx/4.5.2/../../../../pic32mx/lib/mips16/libc.a(strncasecmp.o)
 .debug_info    0x000232a4       0xb3 /opt/microchip/xc32/v1.31/bin/../lib/gcc/pic32mx/4.5.2/../../../../pic32mx/lib/mips16/libc.a(strncat.o)
 .debug_info    0x00023357       0xb3 /opt/microchip/xc32/v1.31/bin/../lib/gcc/pic32mx/4.5.2/../../../../pic32mx/lib/mips16/libc.a(strncpy.o)
 .debug_info    0x0002340a       0xe0 /opt/microchip/xc32/v1.31/bin/../lib/gcc/pic32mx/4.5.2/../../../../pic32mx/lib/mips16/libc.a(strtod.o)
 .debug_info    0x000234ea       0xdf /opt/microchip/xc32/v1.31/bin/../lib/gcc/pic32mx/4.5.2/../../../../pic32mx/lib/mips16/libc.a(strtof.o)
 .debug_info    0x000235c9       0xb1 /opt/microchip/xc32/v1.31/bin/../lib/gcc/pic32mx/4.5.2/../../../../pic32mx/lib/mips16/libc.a(strstr.o)
 .debug_info    0x0002367a       0xc7 /opt/microchip/xc32/v1.31/bin/../lib/gcc/pic32mx/4.5.2/../../../../pic32mx/lib/mips16/libc.a(strtol.o)
 .debug_info    0x00023741       0xca /opt/microchip/xc32/v1.31/bin/../lib/gcc/pic32mx/4.5.2/../../../../pic32mx/lib/mips16/libc.a(strtoll.o)
 .debug_info    0x0002380b       0xbe /opt/microchip/xc32/v1.31/bin/../lib/gcc/pic32mx/4.5.2/../../../../pic32mx/lib/mips16/libc.a(printf_cdfFnopsuxX.eo)
 .debug_info    0x000238c9       0xb3 /opt/microchip/xc32/v1.31/bin/../lib/gcc/pic32mx/4.5.2/../../../../pic32mx/lib/mips16/libc.a(vprintf.o)
 .debug_info    0x0002397c       0xb9 /opt/microchip/xc32/v1.31/bin/../lib/gcc/pic32mx/4.5.2/../../../../pic32mx/lib/mips16/libc.a(snprintf_gG.eo)
 .debug_info    0x00023a35       0xbb /opt/microchip/xc32/v1.31/bin/../lib/gcc/pic32mx/4.5.2/../../../../pic32mx/lib/mips16/libc.a(vsnprintf_gG.eo)
 .debug_info    0x00023af0       0xb1 /opt/microchip/xc32/v1.31/bin/../lib/gcc/pic32mx/4.5.2/../../../../pic32mx/lib/mips16/libc.a(fflush.o)
 .debug_info    0x00023ba1       0xaf /opt/microchip/xc32/v1.31/bin/../lib/gcc/pic32mx/4.5.2/../../../../pic32mx/lib/mips16/libc.a(_fputc_simple.o)
 .debug_info    0x00023c50       0xdd /opt/microchip/xc32/v1.31/bin/../lib/gcc/pic32mx/4.5.2/../../../../pic32mx/lib/mips16/libc.a(fseek.o)
 .debug_info    0x00023d2d       0xb3 /opt/microchip/xc32/v1.31/bin/../lib/gcc/pic32mx/4.5.2/../../../../pic32mx/lib/mips16/libc.a(strncmp.o)
 .debug_info    0x00023de0       0xdd /opt/microchip/xc32/v1.31/bin/../lib/gcc/pic32mx/4.5.2/../../../../pic32mx/lib/mips16/libc.a(doprnt.o)
 .debug_info    0x00023ebd       0xb2 /opt/microchip/xc32/v1.31/bin/../lib/gcc/pic32mx/4.5.2/../../../../pic32mx/lib/mips16/libc.a(_flsbuf_simple.o)
 .debug_info    0x00023f6f        0x0 /opt/microchip/xc32/v1.31/bin/../lib/gcc/pic32mx/4.5.2/../../../../pic32mx/lib/mips16/libc.a(powersf.o)
 .debug_info    0x00023f6f       0xa9 /opt/microchip/xc32/v1.31/bin/../lib/gcc/pic32mx/4.5.2/../../../../pic32mx/lib/mips16/libpic32.a(write.o)
 .debug_info    0x00024018       0xa9 /opt/microchip/xc32/v1.31/bin/../lib/gcc/pic32mx/4.5.2/../../../../pic32mx/lib/mips16/libpic32.a(lseek.o)
 .debug_info    0x000240c1       0xd9 /opt/microchip/xc32/v1.31/bin/../lib/gcc/pic32mx/4.5.2/../../../../pic32mx/lib/mips16/libe.a(_floatdisf.o)
 .debug_info    0x0002419a       0xc0 /opt/microchip/xc32/v1.31/bin/../lib/gcc/pic32mx/4.5.2/../../../../pic32mx/lib/mips16/libe.a(_strtod.o)
 .debug_info    0x0002425a       0xc0 /opt/microchip/xc32/v1.31/bin/../lib/gcc/pic32mx/4.5.2/../../../../pic32mx/lib/mips16/libe.a(_strtof.o)
 .debug_info    0x0002431a       0xd5 /opt/microchip/xc32/v1.31/bin/../lib/gcc/pic32mx/4.5.2/../../../../pic32mx/lib/mips16/libe.a(_ldexp.o)
 .debug_info    0x000243ef       0xd6 /opt/microchip/xc32/v1.31/bin/../lib/gcc/pic32mx/4.5.2/../../../../pic32mx/lib/mips16/libe.a(_ldexpf.o)
 .debug_info    0x000244c5      0x31f /opt/microchip/xc32/v1.31/bin/../lib/gcc/pic32mx/4.5.2/mips16/libgcc.a(_lshrdi3.o)
 .debug_info    0x000247e4      0x316 /opt/microchip/xc32/v1.31/bin/../lib/gcc/pic32mx/4.5.2/mips16/libgcc.a(_floatundisf.o)
 .debug_info    0x00024afa      0x8c1 /opt/microchip/xc32/v1.31/bin/../lib/gcc/pic32mx/4.5.2/mips16/libgcc.a(_umoddi3.o)
 .debug_info    0x000253bb       0xec /opt/microchip/xc32/v1.31/bin/../lib/gcc/pic32mx/4.5.2/../../../../pic32mx/lib/mips16/libc.a(doprnt_cdfFgGnopsuxX.eo)

.debug_abbrev   0x00000000     0x4dd6
 *(.debug_abbrev)
 .debug_abbrev  0x00000000      0x129 build/default/production/src/drivers/eeprom.o
 .debug_abbrev  0x00000129      0x158 build/default/production/src/drivers/tmp275.o
 .debug_abbrev  0x00000281      0x17e build/default/production/src/drivers/dispkyb.o
 .debug_abbrev  0x000003ff       0xf5 build/default/production/src/drivers/usb_uart.o
 .debug_abbrev  0x000004f4       0xc8 build/default/production/src/drivers/adc.o
 .debug_abbrev  0x000005bc      0x136 build/default/production/src/drivers/adcctrl.o
 .debug_abbrev  0x000006f2       0x8a build/default/production/src/eefs/crc32.o
 .debug_abbrev  0x0000077c      0x10b build/default/production/src/eefs/eefs.o
 .debug_abbrev  0x00000887      0x13a build/default/production/src/FreeRTOS/portable/MemMang/heap_4.o
 .debug_abbrev  0x000009c1      0x25b build/default/production/src/FreeRTOS/portable/MPLAB/PIC32MX/port.o
 .debug_abbrev  0x00000c1c       0x14 build/default/production/src/FreeRTOS/portable/MPLAB/PIC32MX/port_asm.o
 .debug_abbrev  0x00000c30       0x1f build/default/production/src/FreeRTOS/timers.o
 .debug_abbrev  0x00000c4f      0x1c9 build/default/production/src/FreeRTOS/tasks.o
 .debug_abbrev  0x00000e18       0xda build/default/production/src/FreeRTOS/list.o
 .debug_abbrev  0x00000ef2      0x14b build/default/production/src/FreeRTOS/event_groups.o
 .debug_abbrev  0x0000103d      0x1bb build/default/production/src/FreeRTOS/croutine.o
 .debug_abbrev  0x000011f8      0x190 build/default/production/src/FreeRTOS/queue.o
 .debug_abbrev  0x00001388       0x1f build/default/production/src/hal/fuses.o
 .debug_abbrev  0x000013a7       0x6a build/default/production/src/hal/exceptions.o
 .debug_abbrev  0x00001411       0x14 build/default/production/src/hal/isrWrappers.o
 .debug_abbrev  0x00001425      0x1d1 build/default/production/src/hal/hal_adc.o
 .debug_abbrev  0x000015f6      0x2fb build/default/production/src/hal/hal_uart.o
 .debug_abbrev  0x000018f1      0x16a build/default/production/src/hal/hal_i2c.o
 .debug_abbrev  0x00001a5b       0xfd build/default/production/src/hal/hal_spi.o
 .debug_abbrev  0x00001b58      0x106 build/default/production/src/hal/hal_timer.o
 .debug_abbrev  0x00001c5e      0x18b build/default/production/src/hal/hal_io.o
 .debug_abbrev  0x00001de9      0x245 build/default/production/src/hal/hal_sys.o
 .debug_abbrev  0x0000202e      0x17e build/default/production/src/scpi-parser/libscpi/src/lexer.o
 .debug_abbrev  0x000021ac      0x16d build/default/production/src/scpi-parser/libscpi/src/error.o
 .debug_abbrev  0x00002319       0xb8 build/default/production/src/scpi-parser/libscpi/src/fifo.o
 .debug_abbrev  0x000023d1      0x1ae build/default/production/src/scpi-parser/libscpi/src/ieee488.o
 .debug_abbrev  0x0000257f      0x125 build/default/production/src/scpi-parser/libscpi/src/minimal.o
 .debug_abbrev  0x000026a4      0x21f build/default/production/src/scpi-parser/libscpi/src/parser.o
 .debug_abbrev  0x000028c3      0x1e6 build/default/production/src/scpi-parser/libscpi/src/units.o
 .debug_abbrev  0x00002aa9      0x1d0 build/default/production/src/scpi-parser/libscpi/src/utils.o
 .debug_abbrev  0x00002c79       0xdc build/default/production/src/sys/src/system.o
 .debug_abbrev  0x00002d55      0x215 build/default/production/src/sys/src/settings.o
 .debug_abbrev  0x00002f6a      0x116 build/default/production/src/tasks/task_calibration.o
 .debug_abbrev  0x00003080      0x101 build/default/production/src/tasks/task_multimeter.o
 .debug_abbrev  0x00003181       0xa6 build/default/production/src/tasks/main.o
 .debug_abbrev  0x00003227      0x12d build/default/production/src/tasks/tskmgr.o
 .debug_abbrev  0x00003354      0x23c build/default/production/src/tasks/task_scpi.o
 .debug_abbrev  0x00003590       0xc3 build/default/production/src/utils/fcvt-1.1/fcvt.o
 .debug_abbrev  0x00003653       0xb6 build/default/production/src/utils/src/diag.o
 .debug_abbrev  0x00003709      0x102 build/default/production/src/utils/src/fitlinear.o
 .debug_abbrev  0x0000380b      0x128 build/default/production/src/utils/src/disfmt.o
 .debug_abbrev  0x00003933       0xde build/default/production/src/utils/src/util_ringbuff.o
 .debug_abbrev  0x00003a11       0xc5 build/default/production/src/utils/src/strutils.o
 .debug_abbrev  0x00003ad6       0x25 /opt/microchip/xc32/v1.31/bin/../lib/gcc/pic32mx/4.5.2/../../../../pic32mx/lib/mips16/libmchp_peripheral.a(open_core_timer_lib.o)
 .debug_abbrev  0x00003afb       0x25 /opt/microchip/xc32/v1.31/bin/../lib/gcc/pic32mx/4.5.2/../../../../pic32mx/lib/mips16/libmchp_peripheral.a(update_core_timer_lib.o)
 .debug_abbrev  0x00003b20       0x25 /opt/microchip/xc32/v1.31/bin/../lib/gcc/pic32mx/4.5.2/../../../../pic32mx/lib/mips16/libmchp_peripheral_32MX350F256L.a(pcache.o)
 .debug_abbrev  0x00003b45       0x25 /opt/microchip/xc32/v1.31/bin/../lib/gcc/pic32mx/4.5.2/../../../../pic32mx/lib/mips16/libmchp_peripheral_32MX350F256L.a(int_configure_system_lib.o)
 .debug_abbrev  0x00003b6a       0x25 /opt/microchip/xc32/v1.31/bin/../lib/gcc/pic32mx/4.5.2/../../../../pic32mx/lib/mips16/libmchp_peripheral_32MX350F256L.a(int_disable_interrupts_lib.o)
 .debug_abbrev  0x00003b8f       0x25 /opt/microchip/xc32/v1.31/bin/../lib/gcc/pic32mx/4.5.2/../../../../pic32mx/lib/mips16/libmchp_peripheral_32MX350F256L.a(int_restore_interrupts_lib.o)
 .debug_abbrev  0x00003bb4       0x25 /opt/microchip/xc32/v1.31/bin/../lib/gcc/pic32mx/4.5.2/../../../../pic32mx/lib/mips16/libmchp_peripheral_32MX350F256L.a(int_tbl_lib.o)
 .debug_abbrev  0x00003bd9       0x25 /opt/microchip/xc32/v1.31/bin/../lib/gcc/pic32mx/4.5.2/../../../../pic32mx/lib/mips16/libmchp_peripheral_32MX350F256L.a(spi_chn_open_lib.o)
 .debug_abbrev  0x00003bfe       0x34 /opt/microchip/xc32/v1.31/bin/../lib/gcc/pic32mx/4.5.2/../../../../pic32mx/lib/mips16/libmchp_peripheral_32MX350F256L.a(spi_chn_putc_lib.o)
 .debug_abbrev  0x00003c32        0x1 /opt/microchip/xc32/v1.31/bin/../lib/gcc/pic32mx/4.5.2/../../../../pic32mx/lib/mips16/libmchp_peripheral_32MX350F256L.a(spi_map_tbl_libp.o)
 .debug_abbrev  0x00003c33       0x34 /opt/microchip/xc32/v1.31/bin/../lib/gcc/pic32mx/4.5.2/../../../../pic32mx/lib/mips16/libmchp_peripheral_32MX350F256L.a(power_idle_lib.o)
 .debug_abbrev  0x00003c67       0x25 /opt/microchip/xc32/v1.31/bin/../lib/gcc/pic32mx/4.5.2/../../../../pic32mx/lib/mips16/libmchp_peripheral_32MX350F256L.a(port_set_pins_digital_in_lib.o)
 .debug_abbrev  0x00003c8c       0x25 /opt/microchip/xc32/v1.31/bin/../lib/gcc/pic32mx/4.5.2/../../../../pic32mx/lib/mips16/libmchp_peripheral_32MX350F256L.a(port_set_pins_digital_out_lib.o)
 .debug_abbrev  0x00003cb1       0x25 /opt/microchip/xc32/v1.31/bin/../lib/gcc/pic32mx/4.5.2/../../../../pic32mx/lib/mips16/libmchp_peripheral_32MX350F256L.a(port_read_bits_lib.o)
 .debug_abbrev  0x00003cd6       0x25 /opt/microchip/xc32/v1.31/bin/../lib/gcc/pic32mx/4.5.2/../../../../pic32mx/lib/mips16/libmchp_peripheral_32MX350F256L.a(port_clear_bits_lib.o)
 .debug_abbrev  0x00003cfb       0x25 /opt/microchip/xc32/v1.31/bin/../lib/gcc/pic32mx/4.5.2/../../../../pic32mx/lib/mips16/libmchp_peripheral_32MX350F256L.a(port_set_bits_lib.o)
 .debug_abbrev  0x00003d20       0x25 /opt/microchip/xc32/v1.31/bin/../lib/gcc/pic32mx/4.5.2/../../../../pic32mx/lib/mips16/libmchp_peripheral_32MX350F256L.a(port_toggle_bits_lib.o)
 .debug_abbrev  0x00003d45        0x1 /opt/microchip/xc32/v1.31/bin/../lib/gcc/pic32mx/4.5.2/../../../../pic32mx/lib/mips16/libmchp_peripheral_32MX350F256L.a(_ports_tbl_libp.o)
 .debug_abbrev  0x00003d46       0x38 /opt/microchip/xc32/v1.31/bin/../lib/gcc/pic32mx/4.5.2/../../../../pic32mx/lib/mips16/libmchp_peripheral_32MX350F256L.a(uart_lib.o)
 .debug_abbrev  0x00003d7e       0x25 /opt/microchip/xc32/v1.31/bin/../lib/gcc/pic32mx/4.5.2/../../../../pic32mx/lib/mips16/libmchp_peripheral_32MX350F256L.a(I2CAcknowledgeByte.o)
 .debug_abbrev  0x00003da3       0x25 /opt/microchip/xc32/v1.31/bin/../lib/gcc/pic32mx/4.5.2/../../../../pic32mx/lib/mips16/libmchp_peripheral_32MX350F256L.a(I2CAcknowledgeHasCompleted.o)
 .debug_abbrev  0x00003dc8       0x25 /opt/microchip/xc32/v1.31/bin/../lib/gcc/pic32mx/4.5.2/../../../../pic32mx/lib/mips16/libmchp_peripheral_32MX350F256L.a(I2CBusIsIdle.o)
 .debug_abbrev  0x00003ded       0x25 /opt/microchip/xc32/v1.31/bin/../lib/gcc/pic32mx/4.5.2/../../../../pic32mx/lib/mips16/libmchp_peripheral_32MX350F256L.a(I2CByteWasAcknowledged.o)
 .debug_abbrev  0x00003e12       0x25 /opt/microchip/xc32/v1.31/bin/../lib/gcc/pic32mx/4.5.2/../../../../pic32mx/lib/mips16/libmchp_peripheral_32MX350F256L.a(I2CConfigure.o)
 .debug_abbrev  0x00003e37       0x25 /opt/microchip/xc32/v1.31/bin/../lib/gcc/pic32mx/4.5.2/../../../../pic32mx/lib/mips16/libmchp_peripheral_32MX350F256L.a(I2CEnable.o)
 .debug_abbrev  0x00003e5c       0x25 /opt/microchip/xc32/v1.31/bin/../lib/gcc/pic32mx/4.5.2/../../../../pic32mx/lib/mips16/libmchp_peripheral_32MX350F256L.a(I2CGetByte.o)
 .debug_abbrev  0x00003e81       0x25 /opt/microchip/xc32/v1.31/bin/../lib/gcc/pic32mx/4.5.2/../../../../pic32mx/lib/mips16/libmchp_peripheral_32MX350F256L.a(I2CGetStatus.o)
 .debug_abbrev  0x00003ea6       0x25 /opt/microchip/xc32/v1.31/bin/../lib/gcc/pic32mx/4.5.2/../../../../pic32mx/lib/mips16/libmchp_peripheral_32MX350F256L.a(I2CReceivedDataIsAvailable.o)
 .debug_abbrev  0x00003ecb       0x25 /opt/microchip/xc32/v1.31/bin/../lib/gcc/pic32mx/4.5.2/../../../../pic32mx/lib/mips16/libmchp_peripheral_32MX350F256L.a(I2CReceiverEnable.o)
 .debug_abbrev  0x00003ef0       0x25 /opt/microchip/xc32/v1.31/bin/../lib/gcc/pic32mx/4.5.2/../../../../pic32mx/lib/mips16/libmchp_peripheral_32MX350F256L.a(I2CRepeatStart.o)
 .debug_abbrev  0x00003f15       0x25 /opt/microchip/xc32/v1.31/bin/../lib/gcc/pic32mx/4.5.2/../../../../pic32mx/lib/mips16/libmchp_peripheral_32MX350F256L.a(I2CSendByte.o)
 .debug_abbrev  0x00003f3a       0x25 /opt/microchip/xc32/v1.31/bin/../lib/gcc/pic32mx/4.5.2/../../../../pic32mx/lib/mips16/libmchp_peripheral_32MX350F256L.a(I2CSetFrequency.o)
 .debug_abbrev  0x00003f5f       0x25 /opt/microchip/xc32/v1.31/bin/../lib/gcc/pic32mx/4.5.2/../../../../pic32mx/lib/mips16/libmchp_peripheral_32MX350F256L.a(I2CStart.o)
 .debug_abbrev  0x00003f84       0x25 /opt/microchip/xc32/v1.31/bin/../lib/gcc/pic32mx/4.5.2/../../../../pic32mx/lib/mips16/libmchp_peripheral_32MX350F256L.a(I2CStop.o)
 .debug_abbrev  0x00003fa9       0x25 /opt/microchip/xc32/v1.31/bin/../lib/gcc/pic32mx/4.5.2/../../../../pic32mx/lib/mips16/libmchp_peripheral_32MX350F256L.a(I2CTransmissionHasCompleted.o)
 .debug_abbrev  0x00003fce       0x25 /opt/microchip/xc32/v1.31/bin/../lib/gcc/pic32mx/4.5.2/../../../../pic32mx/lib/mips16/libmchp_peripheral_32MX350F256L.a(I2CTransmitterIsReady.o)
 .debug_abbrev  0x00003ff3        0x1 /opt/microchip/xc32/v1.31/bin/../lib/gcc/pic32mx/4.5.2/../../../../pic32mx/lib/mips16/libmchp_peripheral_32MX350F256L.a(I2CPrivate.o)
 .debug_abbrev  0x00003ff4       0xc3 /opt/microchip/xc32/v1.31/bin/../lib/gcc/pic32mx/4.5.2/mips16/libgcc.a(_floatundidf.o)
 .debug_abbrev  0x000040b7      0x166 /opt/microchip/xc32/v1.31/bin/../lib/gcc/pic32mx/4.5.2/mips16/libgcc.a(_udivdi3.o)
 .debug_abbrev  0x0000421d       0x61 /opt/microchip/xc32/v1.31/bin/../lib/gcc/pic32mx/4.5.2/mips16/libgcc.a(floatunsidf.o)
 .debug_abbrev  0x0000427e       0x61 /opt/microchip/xc32/v1.31/bin/../lib/gcc/pic32mx/4.5.2/mips16/libgcc.a(floatunsisf.o)
 .debug_abbrev  0x000042df       0x65 /opt/microchip/xc32/v1.31/bin/../lib/gcc/pic32mx/4.5.2/mips16/libgcc.a(_clz.o)
 .debug_abbrev  0x00004344       0x23 /opt/microchip/xc32/v1.31/bin/../lib/gcc/pic32mx/4.5.2/../../../../pic32mx/lib/mips16/libpic32.a(default-bootstrap-exception-handler.o)
 .debug_abbrev  0x00004367       0x23 /opt/microchip/xc32/v1.31/bin/../lib/gcc/pic32mx/4.5.2/../../../../pic32mx/lib/mips16/libpic32.a(default-on-reset.o)
 .debug_abbrev  0x0000438a       0x23 /opt/microchip/xc32/v1.31/bin/../lib/gcc/pic32mx/4.5.2/../../../../pic32mx/lib/mips16/libpic32.a(default-on-bootstrap.o)
 .debug_abbrev  0x000043ad       0x23 /opt/microchip/xc32/v1.31/bin/../lib/gcc/pic32mx/4.5.2/../../../../pic32mx/lib/mips16/libm.a(w_pow.o)
 .debug_abbrev  0x000043d0       0x23 /opt/microchip/xc32/v1.31/bin/../lib/gcc/pic32mx/4.5.2/../../../../pic32mx/lib/mips16/libm.a(w_log10.o)
 .debug_abbrev  0x000043f3       0x47 /opt/microchip/xc32/v1.31/bin/../lib/gcc/pic32mx/4.5.2/../../../../pic32mx/lib/mips16/libm.a(floor.o)
 .debug_abbrev  0x0000443a       0x23 /opt/microchip/xc32/v1.31/bin/../lib/gcc/pic32mx/4.5.2/../../../../pic32mx/lib/mips16/libm.a(w_sqrt.o)
 .debug_abbrev  0x0000445d        0x1 /opt/microchip/xc32/v1.31/bin/../lib/gcc/pic32mx/4.5.2/../../../../pic32mx/lib/mips16/libm.a(s_lib_ver.o)
 .debug_abbrev  0x0000445e       0x36 /opt/microchip/xc32/v1.31/bin/../lib/gcc/pic32mx/4.5.2/../../../../pic32mx/lib/mips16/libm.a(support.o)
 .debug_abbrev  0x00004494       0x23 /opt/microchip/xc32/v1.31/bin/../lib/gcc/pic32mx/4.5.2/../../../../pic32mx/lib/mips16/libm.a(w_ldexp.o)
 .debug_abbrev  0x000044b7       0x34 /opt/microchip/xc32/v1.31/bin/../lib/gcc/pic32mx/4.5.2/../../../../pic32mx/lib/mips16/libe.a(_unorddf2.o)
 .debug_abbrev  0x000044eb        0x1 /opt/microchip/xc32/v1.31/bin/../lib/gcc/pic32mx/4.5.2/../../../../pic32mx/lib/mips16/libpic32.a(errno.o)
 .debug_abbrev  0x000044ec       0x23 /opt/microchip/xc32/v1.31/bin/../lib/gcc/pic32mx/4.5.2/../../../../pic32mx/lib/mips16/libpic32.a(isinf.o)
 .debug_abbrev  0x0000450f        0x1 /opt/microchip/xc32/v1.31/bin/../lib/gcc/pic32mx/4.5.2/../../../../pic32mx/lib/mips16/libc.a(_iob.o)
 .debug_abbrev  0x00004510       0x23 /opt/microchip/xc32/v1.31/bin/../lib/gcc/pic32mx/4.5.2/../../../../pic32mx/lib/mips16/libc.a(fwrite.o)
 .debug_abbrev  0x00004533        0x1 /opt/microchip/xc32/v1.31/bin/../lib/gcc/pic32mx/4.5.2/../../../../pic32mx/lib/mips16/libc.a(ctype.o)
 .debug_abbrev  0x00004534       0x23 /opt/microchip/xc32/v1.31/bin/../lib/gcc/pic32mx/4.5.2/../../../../pic32mx/lib/mips16/libc.a(ctypef.o)
 .debug_abbrev  0x00004557       0x23 /opt/microchip/xc32/v1.31/bin/../lib/gcc/pic32mx/4.5.2/../../../../pic32mx/lib/mips16/libc.a(memcmp.o)
 .debug_abbrev  0x0000457a       0x23 /opt/microchip/xc32/v1.31/bin/../lib/gcc/pic32mx/4.5.2/../../../../pic32mx/lib/mips16/libc.a(memcpy.o)
 .debug_abbrev  0x0000459d       0x23 /opt/microchip/xc32/v1.31/bin/../lib/gcc/pic32mx/4.5.2/../../../../pic32mx/lib/mips16/libc.a(memmove.o)
 .debug_abbrev  0x000045c0       0x23 /opt/microchip/xc32/v1.31/bin/../lib/gcc/pic32mx/4.5.2/../../../../pic32mx/lib/mips16/libc.a(memset.o)
 .debug_abbrev  0x000045e3       0x23 /opt/microchip/xc32/v1.31/bin/../lib/gcc/pic32mx/4.5.2/../../../../pic32mx/lib/mips16/libc.a(puts.o)
 .debug_abbrev  0x00004606       0x23 /opt/microchip/xc32/v1.31/bin/../lib/gcc/pic32mx/4.5.2/../../../../pic32mx/lib/mips16/libc.a(strchr.o)
 .debug_abbrev  0x00004629       0x23 /opt/microchip/xc32/v1.31/bin/../lib/gcc/pic32mx/4.5.2/../../../../pic32mx/lib/mips16/libc.a(strlen.o)
 .debug_abbrev  0x0000464c       0x23 /opt/microchip/xc32/v1.31/bin/../lib/gcc/pic32mx/4.5.2/../../../../pic32mx/lib/mips16/libc.a(strncasecmp.o)
 .debug_abbrev  0x0000466f       0x23 /opt/microchip/xc32/v1.31/bin/../lib/gcc/pic32mx/4.5.2/../../../../pic32mx/lib/mips16/libc.a(strncat.o)
 .debug_abbrev  0x00004692       0x23 /opt/microchip/xc32/v1.31/bin/../lib/gcc/pic32mx/4.5.2/../../../../pic32mx/lib/mips16/libc.a(strncpy.o)
 .debug_abbrev  0x000046b5       0x47 /opt/microchip/xc32/v1.31/bin/../lib/gcc/pic32mx/4.5.2/../../../../pic32mx/lib/mips16/libc.a(strtod.o)
 .debug_abbrev  0x000046fc       0x47 /opt/microchip/xc32/v1.31/bin/../lib/gcc/pic32mx/4.5.2/../../../../pic32mx/lib/mips16/libc.a(strtof.o)
 .debug_abbrev  0x00004743       0x23 /opt/microchip/xc32/v1.31/bin/../lib/gcc/pic32mx/4.5.2/../../../../pic32mx/lib/mips16/libc.a(strstr.o)
 .debug_abbrev  0x00004766       0x23 /opt/microchip/xc32/v1.31/bin/../lib/gcc/pic32mx/4.5.2/../../../../pic32mx/lib/mips16/libc.a(strtol.o)
 .debug_abbrev  0x00004789       0x23 /opt/microchip/xc32/v1.31/bin/../lib/gcc/pic32mx/4.5.2/../../../../pic32mx/lib/mips16/libc.a(strtoll.o)
 .debug_abbrev  0x000047ac       0x23 /opt/microchip/xc32/v1.31/bin/../lib/gcc/pic32mx/4.5.2/../../../../pic32mx/lib/mips16/libc.a(printf_cdfFnopsuxX.eo)
 .debug_abbrev  0x000047cf       0x23 /opt/microchip/xc32/v1.31/bin/../lib/gcc/pic32mx/4.5.2/../../../../pic32mx/lib/mips16/libc.a(vprintf.o)
 .debug_abbrev  0x000047f2       0x23 /opt/microchip/xc32/v1.31/bin/../lib/gcc/pic32mx/4.5.2/../../../../pic32mx/lib/mips16/libc.a(snprintf_gG.eo)
 .debug_abbrev  0x00004815       0x23 /opt/microchip/xc32/v1.31/bin/../lib/gcc/pic32mx/4.5.2/../../../../pic32mx/lib/mips16/libc.a(vsnprintf_gG.eo)
 .debug_abbrev  0x00004838       0x23 /opt/microchip/xc32/v1.31/bin/../lib/gcc/pic32mx/4.5.2/../../../../pic32mx/lib/mips16/libc.a(fflush.o)
 .debug_abbrev  0x0000485b       0x23 /opt/microchip/xc32/v1.31/bin/../lib/gcc/pic32mx/4.5.2/../../../../pic32mx/lib/mips16/libc.a(_fputc_simple.o)
 .debug_abbrev  0x0000487e       0x3d /opt/microchip/xc32/v1.31/bin/../lib/gcc/pic32mx/4.5.2/../../../../pic32mx/lib/mips16/libc.a(fseek.o)
 .debug_abbrev  0x000048bb       0x23 /opt/microchip/xc32/v1.31/bin/../lib/gcc/pic32mx/4.5.2/../../../../pic32mx/lib/mips16/libc.a(strncmp.o)
 .debug_abbrev  0x000048de       0x34 /opt/microchip/xc32/v1.31/bin/../lib/gcc/pic32mx/4.5.2/../../../../pic32mx/lib/mips16/libc.a(doprnt.o)
 .debug_abbrev  0x00004912       0x23 /opt/microchip/xc32/v1.31/bin/../lib/gcc/pic32mx/4.5.2/../../../../pic32mx/lib/mips16/libc.a(_flsbuf_simple.o)
 .debug_abbrev  0x00004935        0x1 /opt/microchip/xc32/v1.31/bin/../lib/gcc/pic32mx/4.5.2/../../../../pic32mx/lib/mips16/libc.a(powersf.o)
 .debug_abbrev  0x00004936       0x23 /opt/microchip/xc32/v1.31/bin/../lib/gcc/pic32mx/4.5.2/../../../../pic32mx/lib/mips16/libpic32.a(write.o)
 .debug_abbrev  0x00004959       0x23 /opt/microchip/xc32/v1.31/bin/../lib/gcc/pic32mx/4.5.2/../../../../pic32mx/lib/mips16/libpic32.a(lseek.o)
 .debug_abbrev  0x0000497c       0x34 /opt/microchip/xc32/v1.31/bin/../lib/gcc/pic32mx/4.5.2/../../../../pic32mx/lib/mips16/libe.a(_floatdisf.o)
 .debug_abbrev  0x000049b0       0x34 /opt/microchip/xc32/v1.31/bin/../lib/gcc/pic32mx/4.5.2/../../../../pic32mx/lib/mips16/libe.a(_strtod.o)
 .debug_abbrev  0x000049e4       0x34 /opt/microchip/xc32/v1.31/bin/../lib/gcc/pic32mx/4.5.2/../../../../pic32mx/lib/mips16/libe.a(_strtof.o)
 .debug_abbrev  0x00004a18       0x34 /opt/microchip/xc32/v1.31/bin/../lib/gcc/pic32mx/4.5.2/../../../../pic32mx/lib/mips16/libe.a(_ldexp.o)
 .debug_abbrev  0x00004a4c       0x34 /opt/microchip/xc32/v1.31/bin/../lib/gcc/pic32mx/4.5.2/../../../../pic32mx/lib/mips16/libe.a(_ldexpf.o)
 .debug_abbrev  0x00004a80       0xe3 /opt/microchip/xc32/v1.31/bin/../lib/gcc/pic32mx/4.5.2/mips16/libgcc.a(_lshrdi3.o)
 .debug_abbrev  0x00004b63       0xc3 /opt/microchip/xc32/v1.31/bin/../lib/gcc/pic32mx/4.5.2/mips16/libgcc.a(_floatundisf.o)
 .debug_abbrev  0x00004c26      0x17c /opt/microchip/xc32/v1.31/bin/../lib/gcc/pic32mx/4.5.2/mips16/libgcc.a(_umoddi3.o)
 .debug_abbrev  0x00004da2       0x34 /opt/microchip/xc32/v1.31/bin/../lib/gcc/pic32mx/4.5.2/../../../../pic32mx/lib/mips16/libc.a(doprnt_cdfFgGnopsuxX.eo)

.debug_line     0x00000000     0x83be
 *(.debug_line)
 .debug_line    0x00000000      0x15b build/default/production/src/drivers/eeprom.o
 .debug_line    0x0000015b      0x147 build/default/production/src/drivers/tmp275.o
 .debug_line    0x000002a2      0x227 build/default/production/src/drivers/dispkyb.o
 .debug_line    0x000004c9      0x1e7 build/default/production/src/drivers/usb_uart.o
 .debug_line    0x000006b0      0x169 build/default/production/src/drivers/adc.o
 .debug_line    0x00000819      0x144 build/default/production/src/drivers/adcctrl.o
 .debug_line    0x0000095d       0xea build/default/production/src/eefs/crc32.o
 .debug_line    0x00000a47      0x122 build/default/production/src/eefs/eefs.o
 .debug_line    0x00000b69      0x170 build/default/production/src/FreeRTOS/portable/MemMang/heap_4.o
 .debug_line    0x00000cd9      0x1b7 build/default/production/src/FreeRTOS/portable/MPLAB/PIC32MX/port.o
 .debug_line    0x00000e90       0xe2 build/default/production/src/FreeRTOS/portable/MPLAB/PIC32MX/port_asm.o
 .debug_line    0x00000f72       0x1d build/default/production/src/FreeRTOS/timers.o
 .debug_line    0x00000f8f      0x54f build/default/production/src/FreeRTOS/tasks.o
 .debug_line    0x000014de      0x17c build/default/production/src/FreeRTOS/list.o
 .debug_line    0x0000165a      0x21b build/default/production/src/FreeRTOS/event_groups.o
 .debug_line    0x00001875      0x1ff build/default/production/src/FreeRTOS/croutine.o
 .debug_line    0x00001a74      0x362 build/default/production/src/FreeRTOS/queue.o
 .debug_line    0x00001dd6       0x1d build/default/production/src/hal/fuses.o
 .debug_line    0x00001df3       0x7c build/default/production/src/hal/exceptions.o
 .debug_line    0x00001e6f       0x91 build/default/production/src/hal/isrWrappers.o
 .debug_line    0x00001f00      0x270 build/default/production/src/hal/hal_adc.o
 .debug_line    0x00002170      0x2ca build/default/production/src/hal/hal_uart.o
 .debug_line    0x0000243a      0x1f7 build/default/production/src/hal/hal_i2c.o
 .debug_line    0x00002631      0x138 build/default/production/src/hal/hal_spi.o
 .debug_line    0x00002769      0x112 build/default/production/src/hal/hal_timer.o
 .debug_line    0x0000287b      0x192 build/default/production/src/hal/hal_io.o
 .debug_line    0x00002a0d      0x1cf build/default/production/src/hal/hal_sys.o
 .debug_line    0x00002bdc      0x365 build/default/production/src/scpi-parser/libscpi/src/lexer.o
 .debug_line    0x00002f41      0x1a8 build/default/production/src/scpi-parser/libscpi/src/error.o
 .debug_line    0x000030e9      0x145 build/default/production/src/scpi-parser/libscpi/src/fifo.o
 .debug_line    0x0000322e      0x1f6 build/default/production/src/scpi-parser/libscpi/src/ieee488.o
 .debug_line    0x00003424      0x185 build/default/production/src/scpi-parser/libscpi/src/minimal.o
 .debug_line    0x000035a9      0x4fd build/default/production/src/scpi-parser/libscpi/src/parser.o
 .debug_line    0x00003aa6      0x1e6 build/default/production/src/scpi-parser/libscpi/src/units.o
 .debug_line    0x00003c8c      0x3ea build/default/production/src/scpi-parser/libscpi/src/utils.o
 .debug_line    0x00004076      0x23c build/default/production/src/sys/src/system.o
 .debug_line    0x000042b2      0x38d build/default/production/src/sys/src/settings.o
 .debug_line    0x0000463f      0x24f build/default/production/src/tasks/task_calibration.o
 .debug_line    0x0000488e      0x1f3 build/default/production/src/tasks/task_multimeter.o
 .debug_line    0x00004a81       0xbd build/default/production/src/tasks/main.o
 .debug_line    0x00004b3e      0x277 build/default/production/src/tasks/tskmgr.o
 .debug_line    0x00004db5      0x20e build/default/production/src/tasks/task_scpi.o
 .debug_line    0x00004fc3      0x110 build/default/production/src/utils/fcvt-1.1/fcvt.o
 .debug_line    0x000050d3       0xf5 build/default/production/src/utils/src/diag.o
 .debug_line    0x000051c8      0x1eb build/default/production/src/utils/src/fitlinear.o
 .debug_line    0x000053b3      0x1b5 build/default/production/src/utils/src/disfmt.o
 .debug_line    0x00005568       0xe9 build/default/production/src/utils/src/util_ringbuff.o
 .debug_line    0x00005651       0xfe build/default/production/src/utils/src/strutils.o
 .debug_line    0x0000574f       0x6e /opt/microchip/xc32/v1.31/bin/../lib/gcc/pic32mx/4.5.2/../../../../pic32mx/lib/mips16/libmchp_peripheral.a(open_core_timer_lib.o)
 .debug_line    0x000057bd       0x70 /opt/microchip/xc32/v1.31/bin/../lib/gcc/pic32mx/4.5.2/../../../../pic32mx/lib/mips16/libmchp_peripheral.a(update_core_timer_lib.o)
 .debug_line    0x0000582d       0x62 /opt/microchip/xc32/v1.31/bin/../lib/gcc/pic32mx/4.5.2/../../../../pic32mx/lib/mips16/libmchp_peripheral_32MX350F256L.a(pcache.o)
 .debug_line    0x0000588f       0x71 /opt/microchip/xc32/v1.31/bin/../lib/gcc/pic32mx/4.5.2/../../../../pic32mx/lib/mips16/libmchp_peripheral_32MX350F256L.a(int_configure_system_lib.o)
 .debug_line    0x00005900       0x73 /opt/microchip/xc32/v1.31/bin/../lib/gcc/pic32mx/4.5.2/../../../../pic32mx/lib/mips16/libmchp_peripheral_32MX350F256L.a(int_disable_interrupts_lib.o)
 .debug_line    0x00005973       0x73 /opt/microchip/xc32/v1.31/bin/../lib/gcc/pic32mx/4.5.2/../../../../pic32mx/lib/mips16/libmchp_peripheral_32MX350F256L.a(int_restore_interrupts_lib.o)
 .debug_line    0x000059e6       0x64 /opt/microchip/xc32/v1.31/bin/../lib/gcc/pic32mx/4.5.2/../../../../pic32mx/lib/mips16/libmchp_peripheral_32MX350F256L.a(int_tbl_lib.o)
 .debug_line    0x00005a4a       0x69 /opt/microchip/xc32/v1.31/bin/../lib/gcc/pic32mx/4.5.2/../../../../pic32mx/lib/mips16/libmchp_peripheral_32MX350F256L.a(spi_chn_open_lib.o)
 .debug_line    0x00005ab3       0x7b /opt/microchip/xc32/v1.31/bin/../lib/gcc/pic32mx/4.5.2/../../../../pic32mx/lib/mips16/libmchp_peripheral_32MX350F256L.a(spi_chn_putc_lib.o)
 .debug_line    0x00005b2e        0x0 /opt/microchip/xc32/v1.31/bin/../lib/gcc/pic32mx/4.5.2/../../../../pic32mx/lib/mips16/libmchp_peripheral_32MX350F256L.a(spi_map_tbl_libp.o)
 .debug_line    0x00005b2e       0xbb /opt/microchip/xc32/v1.31/bin/../lib/gcc/pic32mx/4.5.2/../../../../pic32mx/lib/mips16/libmchp_peripheral_32MX350F256L.a(power_idle_lib.o)
 .debug_line    0x00005be9       0x77 /opt/microchip/xc32/v1.31/bin/../lib/gcc/pic32mx/4.5.2/../../../../pic32mx/lib/mips16/libmchp_peripheral_32MX350F256L.a(port_set_pins_digital_in_lib.o)
 .debug_line    0x00005c60       0x78 /opt/microchip/xc32/v1.31/bin/../lib/gcc/pic32mx/4.5.2/../../../../pic32mx/lib/mips16/libmchp_peripheral_32MX350F256L.a(port_set_pins_digital_out_lib.o)
 .debug_line    0x00005cd8       0x6d /opt/microchip/xc32/v1.31/bin/../lib/gcc/pic32mx/4.5.2/../../../../pic32mx/lib/mips16/libmchp_peripheral_32MX350F256L.a(port_read_bits_lib.o)
 .debug_line    0x00005d45       0x6e /opt/microchip/xc32/v1.31/bin/../lib/gcc/pic32mx/4.5.2/../../../../pic32mx/lib/mips16/libmchp_peripheral_32MX350F256L.a(port_clear_bits_lib.o)
 .debug_line    0x00005db3       0x6c /opt/microchip/xc32/v1.31/bin/../lib/gcc/pic32mx/4.5.2/../../../../pic32mx/lib/mips16/libmchp_peripheral_32MX350F256L.a(port_set_bits_lib.o)
 .debug_line    0x00005e1f       0x6f /opt/microchip/xc32/v1.31/bin/../lib/gcc/pic32mx/4.5.2/../../../../pic32mx/lib/mips16/libmchp_peripheral_32MX350F256L.a(port_toggle_bits_lib.o)
 .debug_line    0x00005e8e        0x0 /opt/microchip/xc32/v1.31/bin/../lib/gcc/pic32mx/4.5.2/../../../../pic32mx/lib/mips16/libmchp_peripheral_32MX350F256L.a(_ports_tbl_libp.o)
 .debug_line    0x00005e8e       0x62 /opt/microchip/xc32/v1.31/bin/../lib/gcc/pic32mx/4.5.2/../../../../pic32mx/lib/mips16/libmchp_peripheral_32MX350F256L.a(uart_lib.o)
 .debug_line    0x00005ef0       0x6b /opt/microchip/xc32/v1.31/bin/../lib/gcc/pic32mx/4.5.2/../../../../pic32mx/lib/mips16/libmchp_peripheral_32MX350F256L.a(I2CAcknowledgeByte.o)
 .debug_line    0x00005f5b       0x73 /opt/microchip/xc32/v1.31/bin/../lib/gcc/pic32mx/4.5.2/../../../../pic32mx/lib/mips16/libmchp_peripheral_32MX350F256L.a(I2CAcknowledgeHasCompleted.o)
 .debug_line    0x00005fce       0x65 /opt/microchip/xc32/v1.31/bin/../lib/gcc/pic32mx/4.5.2/../../../../pic32mx/lib/mips16/libmchp_peripheral_32MX350F256L.a(I2CBusIsIdle.o)
 .debug_line    0x00006033       0x6f /opt/microchip/xc32/v1.31/bin/../lib/gcc/pic32mx/4.5.2/../../../../pic32mx/lib/mips16/libmchp_peripheral_32MX350F256L.a(I2CByteWasAcknowledged.o)
 .debug_line    0x000060a2       0x65 /opt/microchip/xc32/v1.31/bin/../lib/gcc/pic32mx/4.5.2/../../../../pic32mx/lib/mips16/libmchp_peripheral_32MX350F256L.a(I2CConfigure.o)
 .debug_line    0x00006107       0x62 /opt/microchip/xc32/v1.31/bin/../lib/gcc/pic32mx/4.5.2/../../../../pic32mx/lib/mips16/libmchp_peripheral_32MX350F256L.a(I2CEnable.o)
 .debug_line    0x00006169       0x63 /opt/microchip/xc32/v1.31/bin/../lib/gcc/pic32mx/4.5.2/../../../../pic32mx/lib/mips16/libmchp_peripheral_32MX350F256L.a(I2CGetByte.o)
 .debug_line    0x000061cc       0x65 /opt/microchip/xc32/v1.31/bin/../lib/gcc/pic32mx/4.5.2/../../../../pic32mx/lib/mips16/libmchp_peripheral_32MX350F256L.a(I2CGetStatus.o)
 .debug_line    0x00006231       0x73 /opt/microchip/xc32/v1.31/bin/../lib/gcc/pic32mx/4.5.2/../../../../pic32mx/lib/mips16/libmchp_peripheral_32MX350F256L.a(I2CReceivedDataIsAvailable.o)
 .debug_line    0x000062a4       0x6a /opt/microchip/xc32/v1.31/bin/../lib/gcc/pic32mx/4.5.2/../../../../pic32mx/lib/mips16/libmchp_peripheral_32MX350F256L.a(I2CReceiverEnable.o)
 .debug_line    0x0000630e       0x67 /opt/microchip/xc32/v1.31/bin/../lib/gcc/pic32mx/4.5.2/../../../../pic32mx/lib/mips16/libmchp_peripheral_32MX350F256L.a(I2CRepeatStart.o)
 .debug_line    0x00006375       0x64 /opt/microchip/xc32/v1.31/bin/../lib/gcc/pic32mx/4.5.2/../../../../pic32mx/lib/mips16/libmchp_peripheral_32MX350F256L.a(I2CSendByte.o)
 .debug_line    0x000063d9       0x68 /opt/microchip/xc32/v1.31/bin/../lib/gcc/pic32mx/4.5.2/../../../../pic32mx/lib/mips16/libmchp_peripheral_32MX350F256L.a(I2CSetFrequency.o)
 .debug_line    0x00006441       0x61 /opt/microchip/xc32/v1.31/bin/../lib/gcc/pic32mx/4.5.2/../../../../pic32mx/lib/mips16/libmchp_peripheral_32MX350F256L.a(I2CStart.o)
 .debug_line    0x000064a2       0x60 /opt/microchip/xc32/v1.31/bin/../lib/gcc/pic32mx/4.5.2/../../../../pic32mx/lib/mips16/libmchp_peripheral_32MX350F256L.a(I2CStop.o)
 .debug_line    0x00006502       0x74 /opt/microchip/xc32/v1.31/bin/../lib/gcc/pic32mx/4.5.2/../../../../pic32mx/lib/mips16/libmchp_peripheral_32MX350F256L.a(I2CTransmissionHasCompleted.o)
 .debug_line    0x00006576       0x6e /opt/microchip/xc32/v1.31/bin/../lib/gcc/pic32mx/4.5.2/../../../../pic32mx/lib/mips16/libmchp_peripheral_32MX350F256L.a(I2CTransmitterIsReady.o)
 .debug_line    0x000065e4        0x0 /opt/microchip/xc32/v1.31/bin/../lib/gcc/pic32mx/4.5.2/../../../../pic32mx/lib/mips16/libmchp_peripheral_32MX350F256L.a(I2CPrivate.o)
 .debug_line    0x000065e4      0x11c /opt/microchip/xc32/v1.31/bin/../lib/gcc/pic32mx/4.5.2/mips16/libgcc.a(_floatundidf.o)
 .debug_line    0x00006700      0x193 /opt/microchip/xc32/v1.31/bin/../lib/gcc/pic32mx/4.5.2/mips16/libgcc.a(_udivdi3.o)
 .debug_line    0x00006893       0x8d /opt/microchip/xc32/v1.31/bin/../lib/gcc/pic32mx/4.5.2/mips16/libgcc.a(floatunsidf.o)
 .debug_line    0x00006920       0x90 /opt/microchip/xc32/v1.31/bin/../lib/gcc/pic32mx/4.5.2/mips16/libgcc.a(floatunsisf.o)
 .debug_line    0x000069b0       0xda /opt/microchip/xc32/v1.31/bin/../lib/gcc/pic32mx/4.5.2/mips16/libgcc.a(_clz.o)
 .debug_line    0x00006a8a       0x97 /opt/microchip/xc32/v1.31/bin/../lib/gcc/pic32mx/4.5.2/../../../../pic32mx/lib/mips16/libpic32.a(default-bootstrap-exception-handler.o)
 .debug_line    0x00006b21       0x84 /opt/microchip/xc32/v1.31/bin/../lib/gcc/pic32mx/4.5.2/../../../../pic32mx/lib/mips16/libpic32.a(default-on-reset.o)
 .debug_line    0x00006ba5       0x88 /opt/microchip/xc32/v1.31/bin/../lib/gcc/pic32mx/4.5.2/../../../../pic32mx/lib/mips16/libpic32.a(default-on-bootstrap.o)
 .debug_line    0x00006c2d       0x7d /opt/microchip/xc32/v1.31/bin/../lib/gcc/pic32mx/4.5.2/../../../../pic32mx/lib/mips16/libm.a(w_pow.o)
 .debug_line    0x00006caa       0x7f /opt/microchip/xc32/v1.31/bin/../lib/gcc/pic32mx/4.5.2/../../../../pic32mx/lib/mips16/libm.a(w_log10.o)
 .debug_line    0x00006d29       0x7d /opt/microchip/xc32/v1.31/bin/../lib/gcc/pic32mx/4.5.2/../../../../pic32mx/lib/mips16/libm.a(floor.o)
 .debug_line    0x00006da6       0x77 /opt/microchip/xc32/v1.31/bin/../lib/gcc/pic32mx/4.5.2/../../../../pic32mx/lib/mips16/libm.a(w_sqrt.o)
 .debug_line    0x00006e1d        0x0 /opt/microchip/xc32/v1.31/bin/../lib/gcc/pic32mx/4.5.2/../../../../pic32mx/lib/mips16/libm.a(s_lib_ver.o)
 .debug_line    0x00006e1d       0x76 /opt/microchip/xc32/v1.31/bin/../lib/gcc/pic32mx/4.5.2/../../../../pic32mx/lib/mips16/libm.a(support.o)
 .debug_line    0x00006e93       0x7f /opt/microchip/xc32/v1.31/bin/../lib/gcc/pic32mx/4.5.2/../../../../pic32mx/lib/mips16/libm.a(w_ldexp.o)
 .debug_line    0x00006f12       0x7f /opt/microchip/xc32/v1.31/bin/../lib/gcc/pic32mx/4.5.2/../../../../pic32mx/lib/mips16/libe.a(_unorddf2.o)
 .debug_line    0x00006f91        0x0 /opt/microchip/xc32/v1.31/bin/../lib/gcc/pic32mx/4.5.2/../../../../pic32mx/lib/mips16/libpic32.a(errno.o)
 .debug_line    0x00006f91       0x79 /opt/microchip/xc32/v1.31/bin/../lib/gcc/pic32mx/4.5.2/../../../../pic32mx/lib/mips16/libpic32.a(isinf.o)
 .debug_line    0x0000700a        0x0 /opt/microchip/xc32/v1.31/bin/../lib/gcc/pic32mx/4.5.2/../../../../pic32mx/lib/mips16/libc.a(_iob.o)
 .debug_line    0x0000700a       0x70 /opt/microchip/xc32/v1.31/bin/../lib/gcc/pic32mx/4.5.2/../../../../pic32mx/lib/mips16/libc.a(fwrite.o)
 .debug_line    0x0000707a        0x0 /opt/microchip/xc32/v1.31/bin/../lib/gcc/pic32mx/4.5.2/../../../../pic32mx/lib/mips16/libc.a(ctype.o)
 .debug_line    0x0000707a       0x70 /opt/microchip/xc32/v1.31/bin/../lib/gcc/pic32mx/4.5.2/../../../../pic32mx/lib/mips16/libc.a(ctypef.o)
 .debug_line    0x000070ea       0x70 /opt/microchip/xc32/v1.31/bin/../lib/gcc/pic32mx/4.5.2/../../../../pic32mx/lib/mips16/libc.a(memcmp.o)
 .debug_line    0x0000715a       0x70 /opt/microchip/xc32/v1.31/bin/../lib/gcc/pic32mx/4.5.2/../../../../pic32mx/lib/mips16/libc.a(memcpy.o)
 .debug_line    0x000071ca       0x71 /opt/microchip/xc32/v1.31/bin/../lib/gcc/pic32mx/4.5.2/../../../../pic32mx/lib/mips16/libc.a(memmove.o)
 .debug_line    0x0000723b       0x70 /opt/microchip/xc32/v1.31/bin/../lib/gcc/pic32mx/4.5.2/../../../../pic32mx/lib/mips16/libc.a(memset.o)
 .debug_line    0x000072ab       0x6e /opt/microchip/xc32/v1.31/bin/../lib/gcc/pic32mx/4.5.2/../../../../pic32mx/lib/mips16/libc.a(puts.o)
 .debug_line    0x00007319       0x70 /opt/microchip/xc32/v1.31/bin/../lib/gcc/pic32mx/4.5.2/../../../../pic32mx/lib/mips16/libc.a(strchr.o)
 .debug_line    0x00007389       0x70 /opt/microchip/xc32/v1.31/bin/../lib/gcc/pic32mx/4.5.2/../../../../pic32mx/lib/mips16/libc.a(strlen.o)
 .debug_line    0x000073f9       0x75 /opt/microchip/xc32/v1.31/bin/../lib/gcc/pic32mx/4.5.2/../../../../pic32mx/lib/mips16/libc.a(strncasecmp.o)
 .debug_line    0x0000746e       0x71 /opt/microchip/xc32/v1.31/bin/../lib/gcc/pic32mx/4.5.2/../../../../pic32mx/lib/mips16/libc.a(strncat.o)
 .debug_line    0x000074df       0x71 /opt/microchip/xc32/v1.31/bin/../lib/gcc/pic32mx/4.5.2/../../../../pic32mx/lib/mips16/libc.a(strncpy.o)
 .debug_line    0x00007550       0x70 /opt/microchip/xc32/v1.31/bin/../lib/gcc/pic32mx/4.5.2/../../../../pic32mx/lib/mips16/libc.a(strtod.o)
 .debug_line    0x000075c0       0x70 /opt/microchip/xc32/v1.31/bin/../lib/gcc/pic32mx/4.5.2/../../../../pic32mx/lib/mips16/libc.a(strtof.o)
 .debug_line    0x00007630       0x70 /opt/microchip/xc32/v1.31/bin/../lib/gcc/pic32mx/4.5.2/../../../../pic32mx/lib/mips16/libc.a(strstr.o)
 .debug_line    0x000076a0       0x70 /opt/microchip/xc32/v1.31/bin/../lib/gcc/pic32mx/4.5.2/../../../../pic32mx/lib/mips16/libc.a(strtol.o)
 .debug_line    0x00007710       0x71 /opt/microchip/xc32/v1.31/bin/../lib/gcc/pic32mx/4.5.2/../../../../pic32mx/lib/mips16/libc.a(strtoll.o)
 .debug_line    0x00007781       0x70 /opt/microchip/xc32/v1.31/bin/../lib/gcc/pic32mx/4.5.2/../../../../pic32mx/lib/mips16/libc.a(printf_cdfFnopsuxX.eo)
 .debug_line    0x000077f1       0x71 /opt/microchip/xc32/v1.31/bin/../lib/gcc/pic32mx/4.5.2/../../../../pic32mx/lib/mips16/libc.a(vprintf.o)
 .debug_line    0x00007862       0x72 /opt/microchip/xc32/v1.31/bin/../lib/gcc/pic32mx/4.5.2/../../../../pic32mx/lib/mips16/libc.a(snprintf_gG.eo)
 .debug_line    0x000078d4       0x73 /opt/microchip/xc32/v1.31/bin/../lib/gcc/pic32mx/4.5.2/../../../../pic32mx/lib/mips16/libc.a(vsnprintf_gG.eo)
 .debug_line    0x00007947       0x70 /opt/microchip/xc32/v1.31/bin/../lib/gcc/pic32mx/4.5.2/../../../../pic32mx/lib/mips16/libc.a(fflush.o)
 .debug_line    0x000079b7       0x6f /opt/microchip/xc32/v1.31/bin/../lib/gcc/pic32mx/4.5.2/../../../../pic32mx/lib/mips16/libc.a(_fputc_simple.o)
 .debug_line    0x00007a26       0x6f /opt/microchip/xc32/v1.31/bin/../lib/gcc/pic32mx/4.5.2/../../../../pic32mx/lib/mips16/libc.a(fseek.o)
 .debug_line    0x00007a95       0x71 /opt/microchip/xc32/v1.31/bin/../lib/gcc/pic32mx/4.5.2/../../../../pic32mx/lib/mips16/libc.a(strncmp.o)
 .debug_line    0x00007b06       0x70 /opt/microchip/xc32/v1.31/bin/../lib/gcc/pic32mx/4.5.2/../../../../pic32mx/lib/mips16/libc.a(doprnt.o)
 .debug_line    0x00007b76       0x70 /opt/microchip/xc32/v1.31/bin/../lib/gcc/pic32mx/4.5.2/../../../../pic32mx/lib/mips16/libc.a(_flsbuf_simple.o)
 .debug_line    0x00007be6        0x0 /opt/microchip/xc32/v1.31/bin/../lib/gcc/pic32mx/4.5.2/../../../../pic32mx/lib/mips16/libc.a(powersf.o)
 .debug_line    0x00007be6       0x79 /opt/microchip/xc32/v1.31/bin/../lib/gcc/pic32mx/4.5.2/../../../../pic32mx/lib/mips16/libpic32.a(write.o)
 .debug_line    0x00007c5f       0x79 /opt/microchip/xc32/v1.31/bin/../lib/gcc/pic32mx/4.5.2/../../../../pic32mx/lib/mips16/libpic32.a(lseek.o)
 .debug_line    0x00007cd8       0x93 /opt/microchip/xc32/v1.31/bin/../lib/gcc/pic32mx/4.5.2/../../../../pic32mx/lib/mips16/libe.a(_floatdisf.o)
 .debug_line    0x00007d6b       0x80 /opt/microchip/xc32/v1.31/bin/../lib/gcc/pic32mx/4.5.2/../../../../pic32mx/lib/mips16/libe.a(_strtod.o)
 .debug_line    0x00007deb       0x80 /opt/microchip/xc32/v1.31/bin/../lib/gcc/pic32mx/4.5.2/../../../../pic32mx/lib/mips16/libe.a(_strtof.o)
 .debug_line    0x00007e6b       0x93 /opt/microchip/xc32/v1.31/bin/../lib/gcc/pic32mx/4.5.2/../../../../pic32mx/lib/mips16/libe.a(_ldexp.o)
 .debug_line    0x00007efe       0x93 /opt/microchip/xc32/v1.31/bin/../lib/gcc/pic32mx/4.5.2/../../../../pic32mx/lib/mips16/libe.a(_ldexpf.o)
 .debug_line    0x00007f91       0xfe /opt/microchip/xc32/v1.31/bin/../lib/gcc/pic32mx/4.5.2/mips16/libgcc.a(_lshrdi3.o)
 .debug_line    0x0000808f      0x11c /opt/microchip/xc32/v1.31/bin/../lib/gcc/pic32mx/4.5.2/mips16/libgcc.a(_floatundisf.o)
 .debug_line    0x000081ab      0x1a3 /opt/microchip/xc32/v1.31/bin/../lib/gcc/pic32mx/4.5.2/mips16/libgcc.a(_umoddi3.o)
 .debug_line    0x0000834e       0x70 /opt/microchip/xc32/v1.31/bin/../lib/gcc/pic32mx/4.5.2/../../../../pic32mx/lib/mips16/libc.a(doprnt_cdfFgGnopsuxX.eo)

.debug_frame    0x00000000     0x552c
 *(.debug_frame)
 .debug_frame   0x00000000       0xa4 build/default/production/src/drivers/eeprom.o
 .debug_frame   0x000000a4       0x80 build/default/production/src/drivers/tmp275.o
 .debug_frame   0x00000124      0x1d0 build/default/production/src/drivers/dispkyb.o
 .debug_frame   0x000002f4       0x94 build/default/production/src/drivers/usb_uart.o
 .debug_frame   0x00000388      0x190 build/default/production/src/drivers/adc.o
 .debug_frame   0x00000518      0x154 build/default/production/src/drivers/adcctrl.o
 .debug_frame   0x0000066c       0x30 build/default/production/src/eefs/crc32.o
 .debug_frame   0x0000069c       0x98 build/default/production/src/eefs/eefs.o
 .debug_frame   0x00000734       0xd4 build/default/production/src/FreeRTOS/portable/MemMang/heap_4.o
 .debug_frame   0x00000808       0xf8 build/default/production/src/FreeRTOS/portable/MPLAB/PIC32MX/port.o
 .debug_frame   0x00000900      0x4c4 build/default/production/src/FreeRTOS/tasks.o
 .debug_frame   0x00000dc4       0xa4 build/default/production/src/FreeRTOS/list.o
 .debug_frame   0x00000e68      0x13c build/default/production/src/FreeRTOS/event_groups.o
 .debug_frame   0x00000fa4       0xfc build/default/production/src/FreeRTOS/croutine.o
 .debug_frame   0x000010a0      0x2d0 build/default/production/src/FreeRTOS/queue.o
 .debug_frame   0x00001370       0x30 build/default/production/src/hal/exceptions.o
 .debug_frame   0x000013a0      0x160 build/default/production/src/hal/hal_adc.o
 .debug_frame   0x00001500      0x2b0 build/default/production/src/hal/hal_uart.o
 .debug_frame   0x000017b0      0x150 build/default/production/src/hal/hal_i2c.o
 .debug_frame   0x00001900       0x48 build/default/production/src/hal/hal_spi.o
 .debug_frame   0x00001948       0x50 build/default/production/src/hal/hal_timer.o
 .debug_frame   0x00001998      0x184 build/default/production/src/hal/hal_io.o
 .debug_frame   0x00001b1c       0x64 build/default/production/src/hal/hal_sys.o
 .debug_frame   0x00001b80      0x5fc build/default/production/src/scpi-parser/libscpi/src/lexer.o
 .debug_frame   0x0000217c      0x128 build/default/production/src/scpi-parser/libscpi/src/error.o
 .debug_frame   0x000022a4      0x104 build/default/production/src/scpi-parser/libscpi/src/fifo.o
 .debug_frame   0x000023a8      0x2b0 build/default/production/src/scpi-parser/libscpi/src/ieee488.o
 .debug_frame   0x00002658      0x12c build/default/production/src/scpi-parser/libscpi/src/minimal.o
 .debug_frame   0x00002784      0x9a8 build/default/production/src/scpi-parser/libscpi/src/parser.o
 .debug_frame   0x0000312c       0xcc build/default/production/src/scpi-parser/libscpi/src/units.o
 .debug_frame   0x000031f8      0x3f4 build/default/production/src/scpi-parser/libscpi/src/utils.o
 .debug_frame   0x000035ec       0xe0 build/default/production/src/sys/src/system.o
 .debug_frame   0x000036cc      0x2f0 build/default/production/src/sys/src/settings.o
 .debug_frame   0x000039bc       0xb4 build/default/production/src/tasks/task_calibration.o
 .debug_frame   0x00003a70       0xac build/default/production/src/tasks/task_multimeter.o
 .debug_frame   0x00003b1c       0xa0 build/default/production/src/tasks/main.o
 .debug_frame   0x00003bbc       0xe4 build/default/production/src/tasks/tskmgr.o
 .debug_frame   0x00003ca0      0x194 build/default/production/src/tasks/task_scpi.o
 .debug_frame   0x00003e34       0x68 build/default/production/src/utils/fcvt-1.1/fcvt.o
 .debug_frame   0x00003e9c       0xb0 build/default/production/src/utils/src/diag.o
 .debug_frame   0x00003f4c      0x118 build/default/production/src/utils/src/fitlinear.o
 .debug_frame   0x00004064       0xf8 build/default/production/src/utils/src/disfmt.o
 .debug_frame   0x0000415c       0x88 build/default/production/src/utils/src/util_ringbuff.o
 .debug_frame   0x000041e4       0xec build/default/production/src/utils/src/strutils.o
 .debug_frame   0x000042d0       0x20 /opt/microchip/xc32/v1.31/bin/../lib/gcc/pic32mx/4.5.2/../../../../pic32mx/lib/mips16/libmchp_peripheral.a(open_core_timer_lib.o)
 .debug_frame   0x000042f0       0x20 /opt/microchip/xc32/v1.31/bin/../lib/gcc/pic32mx/4.5.2/../../../../pic32mx/lib/mips16/libmchp_peripheral.a(update_core_timer_lib.o)
 .debug_frame   0x00004310       0x30 /opt/microchip/xc32/v1.31/bin/../lib/gcc/pic32mx/4.5.2/../../../../pic32mx/lib/mips16/libmchp_peripheral_32MX350F256L.a(pcache.o)
 .debug_frame   0x00004340       0x20 /opt/microchip/xc32/v1.31/bin/../lib/gcc/pic32mx/4.5.2/../../../../pic32mx/lib/mips16/libmchp_peripheral_32MX350F256L.a(int_configure_system_lib.o)
 .debug_frame   0x00004360       0x20 /opt/microchip/xc32/v1.31/bin/../lib/gcc/pic32mx/4.5.2/../../../../pic32mx/lib/mips16/libmchp_peripheral_32MX350F256L.a(int_disable_interrupts_lib.o)
 .debug_frame   0x00004380       0x20 /opt/microchip/xc32/v1.31/bin/../lib/gcc/pic32mx/4.5.2/../../../../pic32mx/lib/mips16/libmchp_peripheral_32MX350F256L.a(int_restore_interrupts_lib.o)
 .debug_frame   0x000043a0       0xa0 /opt/microchip/xc32/v1.31/bin/../lib/gcc/pic32mx/4.5.2/../../../../pic32mx/lib/mips16/libmchp_peripheral_32MX350F256L.a(int_tbl_lib.o)
 .debug_frame   0x00004440       0x2c /opt/microchip/xc32/v1.31/bin/../lib/gcc/pic32mx/4.5.2/../../../../pic32mx/lib/mips16/libmchp_peripheral_32MX350F256L.a(spi_chn_open_lib.o)
 .debug_frame   0x0000446c       0x40 /opt/microchip/xc32/v1.31/bin/../lib/gcc/pic32mx/4.5.2/../../../../pic32mx/lib/mips16/libmchp_peripheral_32MX350F256L.a(spi_chn_putc_lib.o)
 .debug_frame   0x000044ac       0x28 /opt/microchip/xc32/v1.31/bin/../lib/gcc/pic32mx/4.5.2/../../../../pic32mx/lib/mips16/libmchp_peripheral_32MX350F256L.a(power_idle_lib.o)
 .debug_frame   0x000044d4       0x20 /opt/microchip/xc32/v1.31/bin/../lib/gcc/pic32mx/4.5.2/../../../../pic32mx/lib/mips16/libmchp_peripheral_32MX350F256L.a(port_set_pins_digital_in_lib.o)
 .debug_frame   0x000044f4       0x20 /opt/microchip/xc32/v1.31/bin/../lib/gcc/pic32mx/4.5.2/../../../../pic32mx/lib/mips16/libmchp_peripheral_32MX350F256L.a(port_set_pins_digital_out_lib.o)
 .debug_frame   0x00004514       0x20 /opt/microchip/xc32/v1.31/bin/../lib/gcc/pic32mx/4.5.2/../../../../pic32mx/lib/mips16/libmchp_peripheral_32MX350F256L.a(port_read_bits_lib.o)
 .debug_frame   0x00004534       0x20 /opt/microchip/xc32/v1.31/bin/../lib/gcc/pic32mx/4.5.2/../../../../pic32mx/lib/mips16/libmchp_peripheral_32MX350F256L.a(port_clear_bits_lib.o)
 .debug_frame   0x00004554       0x20 /opt/microchip/xc32/v1.31/bin/../lib/gcc/pic32mx/4.5.2/../../../../pic32mx/lib/mips16/libmchp_peripheral_32MX350F256L.a(port_set_bits_lib.o)
 .debug_frame   0x00004574       0x20 /opt/microchip/xc32/v1.31/bin/../lib/gcc/pic32mx/4.5.2/../../../../pic32mx/lib/mips16/libmchp_peripheral_32MX350F256L.a(port_toggle_bits_lib.o)
 .debug_frame   0x00004594       0x90 /opt/microchip/xc32/v1.31/bin/../lib/gcc/pic32mx/4.5.2/../../../../pic32mx/lib/mips16/libmchp_peripheral_32MX350F256L.a(uart_lib.o)
 .debug_frame   0x00004624       0x20 /opt/microchip/xc32/v1.31/bin/../lib/gcc/pic32mx/4.5.2/../../../../pic32mx/lib/mips16/libmchp_peripheral_32MX350F256L.a(I2CAcknowledgeByte.o)
 .debug_frame   0x00004644       0x20 /opt/microchip/xc32/v1.31/bin/../lib/gcc/pic32mx/4.5.2/../../../../pic32mx/lib/mips16/libmchp_peripheral_32MX350F256L.a(I2CAcknowledgeHasCompleted.o)
 .debug_frame   0x00004664       0x20 /opt/microchip/xc32/v1.31/bin/../lib/gcc/pic32mx/4.5.2/../../../../pic32mx/lib/mips16/libmchp_peripheral_32MX350F256L.a(I2CBusIsIdle.o)
 .debug_frame   0x00004684       0x20 /opt/microchip/xc32/v1.31/bin/../lib/gcc/pic32mx/4.5.2/../../../../pic32mx/lib/mips16/libmchp_peripheral_32MX350F256L.a(I2CByteWasAcknowledged.o)
 .debug_frame   0x000046a4       0x20 /opt/microchip/xc32/v1.31/bin/../lib/gcc/pic32mx/4.5.2/../../../../pic32mx/lib/mips16/libmchp_peripheral_32MX350F256L.a(I2CConfigure.o)
 .debug_frame   0x000046c4       0x20 /opt/microchip/xc32/v1.31/bin/../lib/gcc/pic32mx/4.5.2/../../../../pic32mx/lib/mips16/libmchp_peripheral_32MX350F256L.a(I2CEnable.o)
 .debug_frame   0x000046e4       0x20 /opt/microchip/xc32/v1.31/bin/../lib/gcc/pic32mx/4.5.2/../../../../pic32mx/lib/mips16/libmchp_peripheral_32MX350F256L.a(I2CGetByte.o)
 .debug_frame   0x00004704       0x20 /opt/microchip/xc32/v1.31/bin/../lib/gcc/pic32mx/4.5.2/../../../../pic32mx/lib/mips16/libmchp_peripheral_32MX350F256L.a(I2CGetStatus.o)
 .debug_frame   0x00004724       0x20 /opt/microchip/xc32/v1.31/bin/../lib/gcc/pic32mx/4.5.2/../../../../pic32mx/lib/mips16/libmchp_peripheral_32MX350F256L.a(I2CReceivedDataIsAvailable.o)
 .debug_frame   0x00004744       0x20 /opt/microchip/xc32/v1.31/bin/../lib/gcc/pic32mx/4.5.2/../../../../pic32mx/lib/mips16/libmchp_peripheral_32MX350F256L.a(I2CReceiverEnable.o)
 .debug_frame   0x00004764       0x20 /opt/microchip/xc32/v1.31/bin/../lib/gcc/pic32mx/4.5.2/../../../../pic32mx/lib/mips16/libmchp_peripheral_32MX350F256L.a(I2CRepeatStart.o)
 .debug_frame   0x00004784       0x20 /opt/microchip/xc32/v1.31/bin/../lib/gcc/pic32mx/4.5.2/../../../../pic32mx/lib/mips16/libmchp_peripheral_32MX350F256L.a(I2CSendByte.o)
 .debug_frame   0x000047a4       0x20 /opt/microchip/xc32/v1.31/bin/../lib/gcc/pic32mx/4.5.2/../../../../pic32mx/lib/mips16/libmchp_peripheral_32MX350F256L.a(I2CSetFrequency.o)
 .debug_frame   0x000047c4       0x20 /opt/microchip/xc32/v1.31/bin/../lib/gcc/pic32mx/4.5.2/../../../../pic32mx/lib/mips16/libmchp_peripheral_32MX350F256L.a(I2CStart.o)
 .debug_frame   0x000047e4       0x20 /opt/microchip/xc32/v1.31/bin/../lib/gcc/pic32mx/4.5.2/../../../../pic32mx/lib/mips16/libmchp_peripheral_32MX350F256L.a(I2CStop.o)
 .debug_frame   0x00004804       0x20 /opt/microchip/xc32/v1.31/bin/../lib/gcc/pic32mx/4.5.2/../../../../pic32mx/lib/mips16/libmchp_peripheral_32MX350F256L.a(I2CTransmissionHasCompleted.o)
 .debug_frame   0x00004824       0x20 /opt/microchip/xc32/v1.31/bin/../lib/gcc/pic32mx/4.5.2/../../../../pic32mx/lib/mips16/libmchp_peripheral_32MX350F256L.a(I2CTransmitterIsReady.o)
 .debug_frame   0x00004844       0x2c /opt/microchip/xc32/v1.31/bin/../lib/gcc/pic32mx/4.5.2/mips16/libgcc.a(_floatundidf.o)
 .debug_frame   0x00004870       0x28 /opt/microchip/xc32/v1.31/bin/../lib/gcc/pic32mx/4.5.2/mips16/libgcc.a(_udivdi3.o)
 .debug_frame   0x00004898       0x28 /opt/microchip/xc32/v1.31/bin/../lib/gcc/pic32mx/4.5.2/mips16/libgcc.a(floatunsidf.o)
 .debug_frame   0x000048c0       0x28 /opt/microchip/xc32/v1.31/bin/../lib/gcc/pic32mx/4.5.2/mips16/libgcc.a(floatunsisf.o)
 .debug_frame   0x000048e8       0x28 /opt/microchip/xc32/v1.31/bin/../lib/gcc/pic32mx/4.5.2/../../../../pic32mx/lib/mips16/libpic32.a(default-bootstrap-exception-handler.o)
 .debug_frame   0x00004910       0x20 /opt/microchip/xc32/v1.31/bin/../lib/gcc/pic32mx/4.5.2/../../../../pic32mx/lib/mips16/libpic32.a(default-on-reset.o)
 .debug_frame   0x00004930       0x20 /opt/microchip/xc32/v1.31/bin/../lib/gcc/pic32mx/4.5.2/../../../../pic32mx/lib/mips16/libpic32.a(default-on-bootstrap.o)
 .debug_frame   0x00004950       0x34 /opt/microchip/xc32/v1.31/bin/../lib/gcc/pic32mx/4.5.2/../../../../pic32mx/lib/mips16/libm.a(w_pow.o)
 .debug_frame   0x00004984       0x2c /opt/microchip/xc32/v1.31/bin/../lib/gcc/pic32mx/4.5.2/../../../../pic32mx/lib/mips16/libm.a(w_log10.o)
 .debug_frame   0x000049b0       0x5c /opt/microchip/xc32/v1.31/bin/../lib/gcc/pic32mx/4.5.2/../../../../pic32mx/lib/mips16/libm.a(floor.o)
 .debug_frame   0x00004a0c       0x2c /opt/microchip/xc32/v1.31/bin/../lib/gcc/pic32mx/4.5.2/../../../../pic32mx/lib/mips16/libm.a(w_sqrt.o)
 .debug_frame   0x00004a38      0x134 /opt/microchip/xc32/v1.31/bin/../lib/gcc/pic32mx/4.5.2/../../../../pic32mx/lib/mips16/libm.a(support.o)
 .debug_frame   0x00004b6c       0x2c /opt/microchip/xc32/v1.31/bin/../lib/gcc/pic32mx/4.5.2/../../../../pic32mx/lib/mips16/libm.a(w_ldexp.o)
 .debug_frame   0x00004b98       0x3c /opt/microchip/xc32/v1.31/bin/../lib/gcc/pic32mx/4.5.2/../../../../pic32mx/lib/mips16/libe.a(_unorddf2.o)
 .debug_frame   0x00004bd4       0x90 /opt/microchip/xc32/v1.31/bin/../lib/gcc/pic32mx/4.5.2/../../../../pic32mx/lib/mips16/libpic32.a(isinf.o)
 .debug_frame   0x00004c64       0x34 /opt/microchip/xc32/v1.31/bin/../lib/gcc/pic32mx/4.5.2/../../../../pic32mx/lib/mips16/libc.a(fwrite.o)
 .debug_frame   0x00004c98      0x120 /opt/microchip/xc32/v1.31/bin/../lib/gcc/pic32mx/4.5.2/../../../../pic32mx/lib/mips16/libc.a(ctypef.o)
 .debug_frame   0x00004db8       0x20 /opt/microchip/xc32/v1.31/bin/../lib/gcc/pic32mx/4.5.2/../../../../pic32mx/lib/mips16/libc.a(memcmp.o)
 .debug_frame   0x00004dd8       0x20 /opt/microchip/xc32/v1.31/bin/../lib/gcc/pic32mx/4.5.2/../../../../pic32mx/lib/mips16/libc.a(memcpy.o)
 .debug_frame   0x00004df8       0x20 /opt/microchip/xc32/v1.31/bin/../lib/gcc/pic32mx/4.5.2/../../../../pic32mx/lib/mips16/libc.a(memmove.o)
 .debug_frame   0x00004e18       0x20 /opt/microchip/xc32/v1.31/bin/../lib/gcc/pic32mx/4.5.2/../../../../pic32mx/lib/mips16/libc.a(memset.o)
 .debug_frame   0x00004e38       0x44 /opt/microchip/xc32/v1.31/bin/../lib/gcc/pic32mx/4.5.2/../../../../pic32mx/lib/mips16/libc.a(puts.o)
 .debug_frame   0x00004e7c       0x20 /opt/microchip/xc32/v1.31/bin/../lib/gcc/pic32mx/4.5.2/../../../../pic32mx/lib/mips16/libc.a(strchr.o)
 .debug_frame   0x00004e9c       0x20 /opt/microchip/xc32/v1.31/bin/../lib/gcc/pic32mx/4.5.2/../../../../pic32mx/lib/mips16/libc.a(strlen.o)
 .debug_frame   0x00004ebc       0x2c /opt/microchip/xc32/v1.31/bin/../lib/gcc/pic32mx/4.5.2/../../../../pic32mx/lib/mips16/libc.a(strncasecmp.o)
 .debug_frame   0x00004ee8       0x20 /opt/microchip/xc32/v1.31/bin/../lib/gcc/pic32mx/4.5.2/../../../../pic32mx/lib/mips16/libc.a(strncat.o)
 .debug_frame   0x00004f08       0x20 /opt/microchip/xc32/v1.31/bin/../lib/gcc/pic32mx/4.5.2/../../../../pic32mx/lib/mips16/libc.a(strncpy.o)
 .debug_frame   0x00004f28       0x40 /opt/microchip/xc32/v1.31/bin/../lib/gcc/pic32mx/4.5.2/../../../../pic32mx/lib/mips16/libc.a(strtod.o)
 .debug_frame   0x00004f68       0x40 /opt/microchip/xc32/v1.31/bin/../lib/gcc/pic32mx/4.5.2/../../../../pic32mx/lib/mips16/libc.a(strtof.o)
 .debug_frame   0x00004fa8       0x2c /opt/microchip/xc32/v1.31/bin/../lib/gcc/pic32mx/4.5.2/../../../../pic32mx/lib/mips16/libc.a(strstr.o)
 .debug_frame   0x00004fd4       0x4c /opt/microchip/xc32/v1.31/bin/../lib/gcc/pic32mx/4.5.2/../../../../pic32mx/lib/mips16/libc.a(strtol.o)
 .debug_frame   0x00005020       0x4c /opt/microchip/xc32/v1.31/bin/../lib/gcc/pic32mx/4.5.2/../../../../pic32mx/lib/mips16/libc.a(strtoll.o)
 .debug_frame   0x0000506c       0x30 /opt/microchip/xc32/v1.31/bin/../lib/gcc/pic32mx/4.5.2/../../../../pic32mx/lib/mips16/libc.a(printf_cdfFnopsuxX.eo)
 .debug_frame   0x0000509c       0x28 /opt/microchip/xc32/v1.31/bin/../lib/gcc/pic32mx/4.5.2/../../../../pic32mx/lib/mips16/libc.a(vprintf.o)
 .debug_frame   0x000050c4       0x30 /opt/microchip/xc32/v1.31/bin/../lib/gcc/pic32mx/4.5.2/../../../../pic32mx/lib/mips16/libc.a(snprintf_gG.eo)
 .debug_frame   0x000050f4       0x28 /opt/microchip/xc32/v1.31/bin/../lib/gcc/pic32mx/4.5.2/../../../../pic32mx/lib/mips16/libc.a(vsnprintf_gG.eo)
 .debug_frame   0x0000511c       0x28 /opt/microchip/xc32/v1.31/bin/../lib/gcc/pic32mx/4.5.2/../../../../pic32mx/lib/mips16/libc.a(fflush.o)
 .debug_frame   0x00005144       0x2c /opt/microchip/xc32/v1.31/bin/../lib/gcc/pic32mx/4.5.2/../../../../pic32mx/lib/mips16/libc.a(_fputc_simple.o)
 .debug_frame   0x00005170       0x60 /opt/microchip/xc32/v1.31/bin/../lib/gcc/pic32mx/4.5.2/../../../../pic32mx/lib/mips16/libc.a(fseek.o)
 .debug_frame   0x000051d0       0x20 /opt/microchip/xc32/v1.31/bin/../lib/gcc/pic32mx/4.5.2/../../../../pic32mx/lib/mips16/libc.a(strncmp.o)
 .debug_frame   0x000051f0       0x6c /opt/microchip/xc32/v1.31/bin/../lib/gcc/pic32mx/4.5.2/../../../../pic32mx/lib/mips16/libc.a(doprnt.o)
 .debug_frame   0x0000525c       0x2c /opt/microchip/xc32/v1.31/bin/../lib/gcc/pic32mx/4.5.2/../../../../pic32mx/lib/mips16/libc.a(_flsbuf_simple.o)
 .debug_frame   0x00005288       0x28 /opt/microchip/xc32/v1.31/bin/../lib/gcc/pic32mx/4.5.2/../../../../pic32mx/lib/mips16/libpic32.a(write.o)
 .debug_frame   0x000052b0       0x20 /opt/microchip/xc32/v1.31/bin/../lib/gcc/pic32mx/4.5.2/../../../../pic32mx/lib/mips16/libpic32.a(lseek.o)
 .debug_frame   0x000052d0       0x54 /opt/microchip/xc32/v1.31/bin/../lib/gcc/pic32mx/4.5.2/../../../../pic32mx/lib/mips16/libe.a(_floatdisf.o)
 .debug_frame   0x00005324       0x40 /opt/microchip/xc32/v1.31/bin/../lib/gcc/pic32mx/4.5.2/../../../../pic32mx/lib/mips16/libe.a(_strtod.o)
 .debug_frame   0x00005364       0x40 /opt/microchip/xc32/v1.31/bin/../lib/gcc/pic32mx/4.5.2/../../../../pic32mx/lib/mips16/libe.a(_strtof.o)
 .debug_frame   0x000053a4       0x58 /opt/microchip/xc32/v1.31/bin/../lib/gcc/pic32mx/4.5.2/../../../../pic32mx/lib/mips16/libe.a(_ldexp.o)
 .debug_frame   0x000053fc       0x50 /opt/microchip/xc32/v1.31/bin/../lib/gcc/pic32mx/4.5.2/../../../../pic32mx/lib/mips16/libe.a(_ldexpf.o)
 .debug_frame   0x0000544c       0x20 /opt/microchip/xc32/v1.31/bin/../lib/gcc/pic32mx/4.5.2/mips16/libgcc.a(_lshrdi3.o)
 .debug_frame   0x0000546c       0x2c /opt/microchip/xc32/v1.31/bin/../lib/gcc/pic32mx/4.5.2/mips16/libgcc.a(_floatundisf.o)
 .debug_frame   0x00005498       0x28 /opt/microchip/xc32/v1.31/bin/../lib/gcc/pic32mx/4.5.2/mips16/libgcc.a(_umoddi3.o)
 .debug_frame   0x000054c0       0x6c /opt/microchip/xc32/v1.31/bin/../lib/gcc/pic32mx/4.5.2/../../../../pic32mx/lib/mips16/libc.a(doprnt_cdfFgGnopsuxX.eo)

.debug_str      0x00000000      0xae5
 *(.debug_str)
 .debug_str     0x00000000       0x31 build/default/production/src/drivers/eeprom.o
 .debug_str     0x00000031       0x29 build/default/production/src/drivers/tmp275.o
 .debug_str     0x0000005a       0x15 build/default/production/src/drivers/dispkyb.o
 .debug_str     0x0000006f        0xa build/default/production/src/drivers/usb_uart.o
 .debug_str     0x00000079       0x11 build/default/production/src/drivers/adc.o
 .debug_str     0x0000008a       0x22 build/default/production/src/drivers/adcctrl.o
 .debug_str     0x000000ac        0x0 build/default/production/src/eefs/crc32.o
 .debug_str     0x000000ac       0x30 build/default/production/src/eefs/eefs.o
 .debug_str     0x000000dc        0x0 build/default/production/src/FreeRTOS/portable/MemMang/heap_4.o
 .debug_str     0x000000dc       0x7d build/default/production/src/FreeRTOS/portable/MPLAB/PIC32MX/port.o
 .debug_str     0x00000159        0x0 build/default/production/src/FreeRTOS/timers.o
 .debug_str     0x00000159      0x144 build/default/production/src/FreeRTOS/tasks.o
 .debug_str     0x0000029d       0x2b build/default/production/src/FreeRTOS/list.o
 .debug_str     0x000002c8       0xd9 build/default/production/src/FreeRTOS/event_groups.o
 .debug_str     0x000003a1       0x59 build/default/production/src/FreeRTOS/croutine.o
 .debug_str     0x000003fa       0xf1 build/default/production/src/FreeRTOS/queue.o
 .debug_str     0x000004eb        0x0 build/default/production/src/hal/fuses.o
 .debug_str     0x000004eb        0x0 build/default/production/src/hal/exceptions.o
 .debug_str     0x000004eb       0x75 build/default/production/src/hal/hal_adc.o
 .debug_str     0x00000560      0x144 build/default/production/src/hal/hal_uart.o
 .debug_str     0x000006a4       0x35 build/default/production/src/hal/hal_i2c.o
 .debug_str     0x000006d9       0x33 build/default/production/src/hal/hal_spi.o
 .debug_str     0x0000070c       0x29 build/default/production/src/hal/hal_timer.o
 .debug_str     0x00000735       0x32 build/default/production/src/hal/hal_io.o
 .debug_str     0x00000767       0xaf build/default/production/src/hal/hal_sys.o
 .debug_str     0x00000816       0x18 build/default/production/src/scpi-parser/libscpi/src/lexer.o
 .debug_str     0x0000082e       0x11 build/default/production/src/scpi-parser/libscpi/src/error.o
 .debug_str     0x0000083f        0xb build/default/production/src/scpi-parser/libscpi/src/fifo.o
 .debug_str     0x0000084a       0x16 build/default/production/src/scpi-parser/libscpi/src/ieee488.o
 .debug_str     0x00000860       0x11 build/default/production/src/scpi-parser/libscpi/src/minimal.o
 .debug_str     0x00000871       0xa4 build/default/production/src/scpi-parser/libscpi/src/parser.o
 .debug_str     0x00000915       0x24 build/default/production/src/scpi-parser/libscpi/src/units.o
 .debug_str     0x00000939       0x3d build/default/production/src/scpi-parser/libscpi/src/utils.o
 .debug_str     0x00000976       0x15 build/default/production/src/sys/src/system.o
 .debug_str     0x0000098b        0xf build/default/production/src/sys/src/settings.o
 .debug_str     0x0000099a       0x11 build/default/production/src/tasks/task_calibration.o
 .debug_str     0x000009ab       0x10 build/default/production/src/tasks/task_multimeter.o
 .debug_str     0x000009bb        0x0 build/default/production/src/tasks/main.o
 .debug_str     0x000009bb       0x36 build/default/production/src/tasks/tskmgr.o
 .debug_str     0x000009f1       0x6a build/default/production/src/tasks/task_scpi.o
 .debug_str     0x00000a5b        0x7 build/default/production/src/utils/fcvt-1.1/fcvt.o
 .debug_str     0x00000a62       0x10 build/default/production/src/utils/src/diag.o
 .debug_str     0x00000a72       0x25 build/default/production/src/utils/src/fitlinear.o
 .debug_str     0x00000a97        0xd build/default/production/src/utils/src/disfmt.o
 .debug_str     0x00000aa4        0x0 build/default/production/src/utils/src/util_ringbuff.o
 .debug_str     0x00000aa4        0x7 build/default/production/src/utils/src/strutils.o
 .debug_str     0x00000aab        0x0 /opt/microchip/xc32/v1.31/bin/../lib/gcc/pic32mx/4.5.2/../../../../pic32mx/lib/mips16/libmchp_peripheral.a(open_core_timer_lib.o)
 .debug_str     0x00000aab        0x0 /opt/microchip/xc32/v1.31/bin/../lib/gcc/pic32mx/4.5.2/../../../../pic32mx/lib/mips16/libmchp_peripheral.a(update_core_timer_lib.o)
 .debug_str     0x00000aab        0x0 /opt/microchip/xc32/v1.31/bin/../lib/gcc/pic32mx/4.5.2/../../../../pic32mx/lib/mips16/libmchp_peripheral_32MX350F256L.a(pcache.o)
 .debug_str     0x00000aab        0x0 /opt/microchip/xc32/v1.31/bin/../lib/gcc/pic32mx/4.5.2/../../../../pic32mx/lib/mips16/libmchp_peripheral_32MX350F256L.a(int_configure_system_lib.o)
 .debug_str     0x00000aab        0x0 /opt/microchip/xc32/v1.31/bin/../lib/gcc/pic32mx/4.5.2/../../../../pic32mx/lib/mips16/libmchp_peripheral_32MX350F256L.a(int_disable_interrupts_lib.o)
 .debug_str     0x00000aab        0x0 /opt/microchip/xc32/v1.31/bin/../lib/gcc/pic32mx/4.5.2/../../../../pic32mx/lib/mips16/libmchp_peripheral_32MX350F256L.a(int_restore_interrupts_lib.o)
 .debug_str     0x00000aab        0x0 /opt/microchip/xc32/v1.31/bin/../lib/gcc/pic32mx/4.5.2/../../../../pic32mx/lib/mips16/libmchp_peripheral_32MX350F256L.a(int_tbl_lib.o)
 .debug_str     0x00000aab        0x0 /opt/microchip/xc32/v1.31/bin/../lib/gcc/pic32mx/4.5.2/../../../../pic32mx/lib/mips16/libmchp_peripheral_32MX350F256L.a(spi_chn_open_lib.o)
 .debug_str     0x00000aab        0x0 /opt/microchip/xc32/v1.31/bin/../lib/gcc/pic32mx/4.5.2/../../../../pic32mx/lib/mips16/libmchp_peripheral_32MX350F256L.a(spi_chn_putc_lib.o)
 .debug_str     0x00000aab        0x0 /opt/microchip/xc32/v1.31/bin/../lib/gcc/pic32mx/4.5.2/../../../../pic32mx/lib/mips16/libmchp_peripheral_32MX350F256L.a(spi_map_tbl_libp.o)
 .debug_str     0x00000aab        0x0 /opt/microchip/xc32/v1.31/bin/../lib/gcc/pic32mx/4.5.2/../../../../pic32mx/lib/mips16/libmchp_peripheral_32MX350F256L.a(power_idle_lib.o)
 .debug_str     0x00000aab        0x0 /opt/microchip/xc32/v1.31/bin/../lib/gcc/pic32mx/4.5.2/../../../../pic32mx/lib/mips16/libmchp_peripheral_32MX350F256L.a(port_set_pins_digital_in_lib.o)
 .debug_str     0x00000aab        0x0 /opt/microchip/xc32/v1.31/bin/../lib/gcc/pic32mx/4.5.2/../../../../pic32mx/lib/mips16/libmchp_peripheral_32MX350F256L.a(port_set_pins_digital_out_lib.o)
 .debug_str     0x00000aab        0x0 /opt/microchip/xc32/v1.31/bin/../lib/gcc/pic32mx/4.5.2/../../../../pic32mx/lib/mips16/libmchp_peripheral_32MX350F256L.a(port_read_bits_lib.o)
 .debug_str     0x00000aab        0x0 /opt/microchip/xc32/v1.31/bin/../lib/gcc/pic32mx/4.5.2/../../../../pic32mx/lib/mips16/libmchp_peripheral_32MX350F256L.a(port_clear_bits_lib.o)
 .debug_str     0x00000aab        0x0 /opt/microchip/xc32/v1.31/bin/../lib/gcc/pic32mx/4.5.2/../../../../pic32mx/lib/mips16/libmchp_peripheral_32MX350F256L.a(port_set_bits_lib.o)
 .debug_str     0x00000aab        0x0 /opt/microchip/xc32/v1.31/bin/../lib/gcc/pic32mx/4.5.2/../../../../pic32mx/lib/mips16/libmchp_peripheral_32MX350F256L.a(port_toggle_bits_lib.o)
 .debug_str     0x00000aab        0x0 /opt/microchip/xc32/v1.31/bin/../lib/gcc/pic32mx/4.5.2/../../../../pic32mx/lib/mips16/libmchp_peripheral_32MX350F256L.a(_ports_tbl_libp.o)
 .debug_str     0x00000aab        0x0 /opt/microchip/xc32/v1.31/bin/../lib/gcc/pic32mx/4.5.2/../../../../pic32mx/lib/mips16/libmchp_peripheral_32MX350F256L.a(uart_lib.o)
 .debug_str     0x00000aab        0x0 /opt/microchip/xc32/v1.31/bin/../lib/gcc/pic32mx/4.5.2/../../../../pic32mx/lib/mips16/libmchp_peripheral_32MX350F256L.a(I2CAcknowledgeByte.o)
 .debug_str     0x00000aab        0x0 /opt/microchip/xc32/v1.31/bin/../lib/gcc/pic32mx/4.5.2/../../../../pic32mx/lib/mips16/libmchp_peripheral_32MX350F256L.a(I2CAcknowledgeHasCompleted.o)
 .debug_str     0x00000aab        0x0 /opt/microchip/xc32/v1.31/bin/../lib/gcc/pic32mx/4.5.2/../../../../pic32mx/lib/mips16/libmchp_peripheral_32MX350F256L.a(I2CBusIsIdle.o)
 .debug_str     0x00000aab        0x0 /opt/microchip/xc32/v1.31/bin/../lib/gcc/pic32mx/4.5.2/../../../../pic32mx/lib/mips16/libmchp_peripheral_32MX350F256L.a(I2CByteWasAcknowledged.o)
 .debug_str     0x00000aab        0x0 /opt/microchip/xc32/v1.31/bin/../lib/gcc/pic32mx/4.5.2/../../../../pic32mx/lib/mips16/libmchp_peripheral_32MX350F256L.a(I2CConfigure.o)
 .debug_str     0x00000aab        0x0 /opt/microchip/xc32/v1.31/bin/../lib/gcc/pic32mx/4.5.2/../../../../pic32mx/lib/mips16/libmchp_peripheral_32MX350F256L.a(I2CEnable.o)
 .debug_str     0x00000aab        0x0 /opt/microchip/xc32/v1.31/bin/../lib/gcc/pic32mx/4.5.2/../../../../pic32mx/lib/mips16/libmchp_peripheral_32MX350F256L.a(I2CGetByte.o)
 .debug_str     0x00000aab        0x0 /opt/microchip/xc32/v1.31/bin/../lib/gcc/pic32mx/4.5.2/../../../../pic32mx/lib/mips16/libmchp_peripheral_32MX350F256L.a(I2CGetStatus.o)
 .debug_str     0x00000aab        0x0 /opt/microchip/xc32/v1.31/bin/../lib/gcc/pic32mx/4.5.2/../../../../pic32mx/lib/mips16/libmchp_peripheral_32MX350F256L.a(I2CReceivedDataIsAvailable.o)
 .debug_str     0x00000aab        0x0 /opt/microchip/xc32/v1.31/bin/../lib/gcc/pic32mx/4.5.2/../../../../pic32mx/lib/mips16/libmchp_peripheral_32MX350F256L.a(I2CReceiverEnable.o)
 .debug_str     0x00000aab        0x0 /opt/microchip/xc32/v1.31/bin/../lib/gcc/pic32mx/4.5.2/../../../../pic32mx/lib/mips16/libmchp_peripheral_32MX350F256L.a(I2CRepeatStart.o)
 .debug_str     0x00000aab        0x0 /opt/microchip/xc32/v1.31/bin/../lib/gcc/pic32mx/4.5.2/../../../../pic32mx/lib/mips16/libmchp_peripheral_32MX350F256L.a(I2CSendByte.o)
 .debug_str     0x00000aab        0x0 /opt/microchip/xc32/v1.31/bin/../lib/gcc/pic32mx/4.5.2/../../../../pic32mx/lib/mips16/libmchp_peripheral_32MX350F256L.a(I2CSetFrequency.o)
 .debug_str     0x00000aab        0x0 /opt/microchip/xc32/v1.31/bin/../lib/gcc/pic32mx/4.5.2/../../../../pic32mx/lib/mips16/libmchp_peripheral_32MX350F256L.a(I2CStart.o)
 .debug_str     0x00000aab        0x0 /opt/microchip/xc32/v1.31/bin/../lib/gcc/pic32mx/4.5.2/../../../../pic32mx/lib/mips16/libmchp_peripheral_32MX350F256L.a(I2CStop.o)
 .debug_str     0x00000aab        0x0 /opt/microchip/xc32/v1.31/bin/../lib/gcc/pic32mx/4.5.2/../../../../pic32mx/lib/mips16/libmchp_peripheral_32MX350F256L.a(I2CTransmissionHasCompleted.o)
 .debug_str     0x00000aab        0x0 /opt/microchip/xc32/v1.31/bin/../lib/gcc/pic32mx/4.5.2/../../../../pic32mx/lib/mips16/libmchp_peripheral_32MX350F256L.a(I2CTransmitterIsReady.o)
 .debug_str     0x00000aab        0x0 /opt/microchip/xc32/v1.31/bin/../lib/gcc/pic32mx/4.5.2/../../../../pic32mx/lib/mips16/libmchp_peripheral_32MX350F256L.a(I2CPrivate.o)
 .debug_str     0x00000aab        0xa /opt/microchip/xc32/v1.31/bin/../lib/gcc/pic32mx/4.5.2/mips16/libgcc.a(_floatundidf.o)
 .debug_str     0x00000ab5        0xa /opt/microchip/xc32/v1.31/bin/../lib/gcc/pic32mx/4.5.2/mips16/libgcc.a(_udivdi3.o)
 .debug_str     0x00000abf        0x0 /opt/microchip/xc32/v1.31/bin/../lib/gcc/pic32mx/4.5.2/mips16/libgcc.a(floatunsidf.o)
 .debug_str     0x00000abf        0x0 /opt/microchip/xc32/v1.31/bin/../lib/gcc/pic32mx/4.5.2/mips16/libgcc.a(floatunsisf.o)
 .debug_str     0x00000abf        0x0 /opt/microchip/xc32/v1.31/bin/../lib/gcc/pic32mx/4.5.2/mips16/libgcc.a(_clz.o)
 .debug_str     0x00000abf        0x0 /opt/microchip/xc32/v1.31/bin/../lib/gcc/pic32mx/4.5.2/../../../../pic32mx/lib/mips16/libpic32.a(default-bootstrap-exception-handler.o)
 .debug_str     0x00000abf        0x0 /opt/microchip/xc32/v1.31/bin/../lib/gcc/pic32mx/4.5.2/../../../../pic32mx/lib/mips16/libpic32.a(default-on-reset.o)
 .debug_str     0x00000abf        0x0 /opt/microchip/xc32/v1.31/bin/../lib/gcc/pic32mx/4.5.2/../../../../pic32mx/lib/mips16/libpic32.a(default-on-bootstrap.o)
 .debug_str     0x00000abf        0x0 /opt/microchip/xc32/v1.31/bin/../lib/gcc/pic32mx/4.5.2/../../../../pic32mx/lib/mips16/libm.a(w_pow.o)
 .debug_str     0x00000abf        0x0 /opt/microchip/xc32/v1.31/bin/../lib/gcc/pic32mx/4.5.2/../../../../pic32mx/lib/mips16/libm.a(w_log10.o)
 .debug_str     0x00000abf        0x0 /opt/microchip/xc32/v1.31/bin/../lib/gcc/pic32mx/4.5.2/../../../../pic32mx/lib/mips16/libm.a(floor.o)
 .debug_str     0x00000abf        0x0 /opt/microchip/xc32/v1.31/bin/../lib/gcc/pic32mx/4.5.2/../../../../pic32mx/lib/mips16/libm.a(w_sqrt.o)
 .debug_str     0x00000abf        0x0 /opt/microchip/xc32/v1.31/bin/../lib/gcc/pic32mx/4.5.2/../../../../pic32mx/lib/mips16/libm.a(s_lib_ver.o)
 .debug_str     0x00000abf        0x0 /opt/microchip/xc32/v1.31/bin/../lib/gcc/pic32mx/4.5.2/../../../../pic32mx/lib/mips16/libm.a(support.o)
 .debug_str     0x00000abf        0x0 /opt/microchip/xc32/v1.31/bin/../lib/gcc/pic32mx/4.5.2/../../../../pic32mx/lib/mips16/libm.a(w_ldexp.o)
 .debug_str     0x00000abf        0x0 /opt/microchip/xc32/v1.31/bin/../lib/gcc/pic32mx/4.5.2/../../../../pic32mx/lib/mips16/libe.a(_unorddf2.o)
 .debug_str     0x00000abf        0x0 /opt/microchip/xc32/v1.31/bin/../lib/gcc/pic32mx/4.5.2/../../../../pic32mx/lib/mips16/libpic32.a(errno.o)
 .debug_str     0x00000abf        0x0 /opt/microchip/xc32/v1.31/bin/../lib/gcc/pic32mx/4.5.2/../../../../pic32mx/lib/mips16/libpic32.a(isinf.o)
 .debug_str     0x00000abf        0x0 /opt/microchip/xc32/v1.31/bin/../lib/gcc/pic32mx/4.5.2/../../../../pic32mx/lib/mips16/libc.a(_iob.o)
 .debug_str     0x00000abf        0x0 /opt/microchip/xc32/v1.31/bin/../lib/gcc/pic32mx/4.5.2/../../../../pic32mx/lib/mips16/libc.a(fwrite.o)
 .debug_str     0x00000abf        0x0 /opt/microchip/xc32/v1.31/bin/../lib/gcc/pic32mx/4.5.2/../../../../pic32mx/lib/mips16/libc.a(ctype.o)
 .debug_str     0x00000abf        0x0 /opt/microchip/xc32/v1.31/bin/../lib/gcc/pic32mx/4.5.2/../../../../pic32mx/lib/mips16/libc.a(ctypef.o)
 .debug_str     0x00000abf        0x0 /opt/microchip/xc32/v1.31/bin/../lib/gcc/pic32mx/4.5.2/../../../../pic32mx/lib/mips16/libc.a(memcmp.o)
 .debug_str     0x00000abf        0x0 /opt/microchip/xc32/v1.31/bin/../lib/gcc/pic32mx/4.5.2/../../../../pic32mx/lib/mips16/libc.a(memcpy.o)
 .debug_str     0x00000abf        0x0 /opt/microchip/xc32/v1.31/bin/../lib/gcc/pic32mx/4.5.2/../../../../pic32mx/lib/mips16/libc.a(memmove.o)
 .debug_str     0x00000abf        0x0 /opt/microchip/xc32/v1.31/bin/../lib/gcc/pic32mx/4.5.2/../../../../pic32mx/lib/mips16/libc.a(memset.o)
 .debug_str     0x00000abf        0x0 /opt/microchip/xc32/v1.31/bin/../lib/gcc/pic32mx/4.5.2/../../../../pic32mx/lib/mips16/libc.a(puts.o)
 .debug_str     0x00000abf        0x0 /opt/microchip/xc32/v1.31/bin/../lib/gcc/pic32mx/4.5.2/../../../../pic32mx/lib/mips16/libc.a(strchr.o)
 .debug_str     0x00000abf        0x0 /opt/microchip/xc32/v1.31/bin/../lib/gcc/pic32mx/4.5.2/../../../../pic32mx/lib/mips16/libc.a(strlen.o)
 .debug_str     0x00000abf        0x0 /opt/microchip/xc32/v1.31/bin/../lib/gcc/pic32mx/4.5.2/../../../../pic32mx/lib/mips16/libc.a(strncasecmp.o)
 .debug_str     0x00000abf        0x0 /opt/microchip/xc32/v1.31/bin/../lib/gcc/pic32mx/4.5.2/../../../../pic32mx/lib/mips16/libc.a(strncat.o)
 .debug_str     0x00000abf        0x0 /opt/microchip/xc32/v1.31/bin/../lib/gcc/pic32mx/4.5.2/../../../../pic32mx/lib/mips16/libc.a(strncpy.o)
 .debug_str     0x00000abf        0x9 /opt/microchip/xc32/v1.31/bin/../lib/gcc/pic32mx/4.5.2/../../../../pic32mx/lib/mips16/libc.a(strtod.o)
 .debug_str     0x00000ac8        0x9 /opt/microchip/xc32/v1.31/bin/../lib/gcc/pic32mx/4.5.2/../../../../pic32mx/lib/mips16/libc.a(strtof.o)
 .debug_str     0x00000ad1        0x0 /opt/microchip/xc32/v1.31/bin/../lib/gcc/pic32mx/4.5.2/../../../../pic32mx/lib/mips16/libc.a(strstr.o)
 .debug_str     0x00000ad1        0x0 /opt/microchip/xc32/v1.31/bin/../lib/gcc/pic32mx/4.5.2/../../../../pic32mx/lib/mips16/libc.a(strtol.o)
 .debug_str     0x00000ad1        0x0 /opt/microchip/xc32/v1.31/bin/../lib/gcc/pic32mx/4.5.2/../../../../pic32mx/lib/mips16/libc.a(strtoll.o)
 .debug_str     0x00000ad1        0x0 /opt/microchip/xc32/v1.31/bin/../lib/gcc/pic32mx/4.5.2/../../../../pic32mx/lib/mips16/libc.a(printf_cdfFnopsuxX.eo)
 .debug_str     0x00000ad1        0x0 /opt/microchip/xc32/v1.31/bin/../lib/gcc/pic32mx/4.5.2/../../../../pic32mx/lib/mips16/libc.a(vprintf.o)
 .debug_str     0x00000ad1        0x0 /opt/microchip/xc32/v1.31/bin/../lib/gcc/pic32mx/4.5.2/../../../../pic32mx/lib/mips16/libc.a(snprintf_gG.eo)
 .debug_str     0x00000ad1        0x0 /opt/microchip/xc32/v1.31/bin/../lib/gcc/pic32mx/4.5.2/../../../../pic32mx/lib/mips16/libc.a(vsnprintf_gG.eo)
 .debug_str     0x00000ad1        0x0 /opt/microchip/xc32/v1.31/bin/../lib/gcc/pic32mx/4.5.2/../../../../pic32mx/lib/mips16/libc.a(fflush.o)
 .debug_str     0x00000ad1        0x0 /opt/microchip/xc32/v1.31/bin/../lib/gcc/pic32mx/4.5.2/../../../../pic32mx/lib/mips16/libc.a(_fputc_simple.o)
 .debug_str     0x00000ad1        0x0 /opt/microchip/xc32/v1.31/bin/../lib/gcc/pic32mx/4.5.2/../../../../pic32mx/lib/mips16/libc.a(fseek.o)
 .debug_str     0x00000ad1        0x0 /opt/microchip/xc32/v1.31/bin/../lib/gcc/pic32mx/4.5.2/../../../../pic32mx/lib/mips16/libc.a(strncmp.o)
 .debug_str     0x00000ad1        0x0 /opt/microchip/xc32/v1.31/bin/../lib/gcc/pic32mx/4.5.2/../../../../pic32mx/lib/mips16/libc.a(doprnt.o)
 .debug_str     0x00000ad1        0x0 /opt/microchip/xc32/v1.31/bin/../lib/gcc/pic32mx/4.5.2/../../../../pic32mx/lib/mips16/libc.a(_flsbuf_simple.o)
 .debug_str     0x00000ad1        0x0 /opt/microchip/xc32/v1.31/bin/../lib/gcc/pic32mx/4.5.2/../../../../pic32mx/lib/mips16/libc.a(powersf.o)
 .debug_str     0x00000ad1        0x0 /opt/microchip/xc32/v1.31/bin/../lib/gcc/pic32mx/4.5.2/../../../../pic32mx/lib/mips16/libpic32.a(write.o)
 .debug_str     0x00000ad1        0x0 /opt/microchip/xc32/v1.31/bin/../lib/gcc/pic32mx/4.5.2/../../../../pic32mx/lib/mips16/libpic32.a(lseek.o)
 .debug_str     0x00000ad1        0x0 /opt/microchip/xc32/v1.31/bin/../lib/gcc/pic32mx/4.5.2/../../../../pic32mx/lib/mips16/libe.a(_floatdisf.o)
 .debug_str     0x00000ad1        0x0 /opt/microchip/xc32/v1.31/bin/../lib/gcc/pic32mx/4.5.2/../../../../pic32mx/lib/mips16/libe.a(_strtod.o)
 .debug_str     0x00000ad1        0x0 /opt/microchip/xc32/v1.31/bin/../lib/gcc/pic32mx/4.5.2/../../../../pic32mx/lib/mips16/libe.a(_strtof.o)
 .debug_str     0x00000ad1        0x0 /opt/microchip/xc32/v1.31/bin/../lib/gcc/pic32mx/4.5.2/../../../../pic32mx/lib/mips16/libe.a(_ldexp.o)
 .debug_str     0x00000ad1        0x0 /opt/microchip/xc32/v1.31/bin/../lib/gcc/pic32mx/4.5.2/../../../../pic32mx/lib/mips16/libe.a(_ldexpf.o)
 .debug_str     0x00000ad1        0x0 /opt/microchip/xc32/v1.31/bin/../lib/gcc/pic32mx/4.5.2/mips16/libgcc.a(_lshrdi3.o)
 .debug_str     0x00000ad1        0xa /opt/microchip/xc32/v1.31/bin/../lib/gcc/pic32mx/4.5.2/mips16/libgcc.a(_floatundisf.o)
 .debug_str     0x00000adb        0xa /opt/microchip/xc32/v1.31/bin/../lib/gcc/pic32mx/4.5.2/mips16/libgcc.a(_umoddi3.o)
 .debug_str     0x00000ae5        0x0 /opt/microchip/xc32/v1.31/bin/../lib/gcc/pic32mx/4.5.2/../../../../pic32mx/lib/mips16/libc.a(doprnt_cdfFgGnopsuxX.eo)

.debug_loc      0x00000000     0x1d74
 *(.debug_loc)
 .debug_loc     0x00000000      0x11a /opt/microchip/xc32/v1.31/bin/../lib/gcc/pic32mx/4.5.2/mips16/libgcc.a(_floatundidf.o)
 .debug_loc     0x0000011a      0xc19 /opt/microchip/xc32/v1.31/bin/../lib/gcc/pic32mx/4.5.2/mips16/libgcc.a(_udivdi3.o)
 .debug_loc     0x00000d33       0x7a /opt/microchip/xc32/v1.31/bin/../lib/gcc/pic32mx/4.5.2/mips16/libgcc.a(floatunsidf.o)
 .debug_loc     0x00000dad       0x3c /opt/microchip/xc32/v1.31/bin/../lib/gcc/pic32mx/4.5.2/mips16/libgcc.a(floatunsisf.o)
 .debug_loc     0x00000de9       0x6e /opt/microchip/xc32/v1.31/bin/../lib/gcc/pic32mx/4.5.2/mips16/libgcc.a(_lshrdi3.o)
 .debug_loc     0x00000e57      0x139 /opt/microchip/xc32/v1.31/bin/../lib/gcc/pic32mx/4.5.2/mips16/libgcc.a(_floatundisf.o)
 .debug_loc     0x00000f90      0xde4 /opt/microchip/xc32/v1.31/bin/../lib/gcc/pic32mx/4.5.2/mips16/libgcc.a(_umoddi3.o)

.debug_macinfo
 *(.debug_macinfo)

.debug_weaknames
 *(.debug_weaknames)

.debug_funcnames
 *(.debug_funcnames)

.debug_typenames
 *(.debug_typenames)

.debug_varnames
 *(.debug_varnames)

.debug_pubtypes
                0x00000000     0x2f9a
 *(.debug_pubtypes)
 .debug_pubtypes
                0x00000000       0x43 build/default/production/src/drivers/eeprom.o
 .debug_pubtypes
                0x00000043       0x57 build/default/production/src/drivers/tmp275.o
 .debug_pubtypes
                0x0000009a       0x95 build/default/production/src/drivers/dispkyb.o
 .debug_pubtypes
                0x0000012f       0x84 build/default/production/src/drivers/usb_uart.o
 .debug_pubtypes
                0x000001b3       0x8f build/default/production/src/drivers/adc.o
 .debug_pubtypes
                0x00000242       0x79 build/default/production/src/drivers/adcctrl.o
 .debug_pubtypes
                0x000002bb       0x3a build/default/production/src/eefs/crc32.o
 .debug_pubtypes
                0x000002f5       0x80 build/default/production/src/eefs/eefs.o
 .debug_pubtypes
                0x00000375       0x6a build/default/production/src/FreeRTOS/portable/MemMang/heap_4.o
 .debug_pubtypes
                0x000003df       0xc5 build/default/production/src/FreeRTOS/portable/MPLAB/PIC32MX/port.o
 .debug_pubtypes
                0x000004a4       0x12 build/default/production/src/FreeRTOS/timers.o
 .debug_pubtypes
                0x000004b6      0x183 build/default/production/src/FreeRTOS/tasks.o
 .debug_pubtypes
                0x00000639       0x9a build/default/production/src/FreeRTOS/list.o
 .debug_pubtypes
                0x000006d3       0xfb build/default/production/src/FreeRTOS/event_groups.o
 .debug_pubtypes
                0x000007ce      0x10b build/default/production/src/FreeRTOS/croutine.o
 .debug_pubtypes
                0x000008d9      0x128 build/default/production/src/FreeRTOS/queue.o
 .debug_pubtypes
                0x00000a01       0x12 build/default/production/src/hal/fuses.o
 .debug_pubtypes
                0x00000a13       0x12 build/default/production/src/hal/exceptions.o
 .debug_pubtypes
                0x00000a25       0xbb build/default/production/src/hal/hal_adc.o
 .debug_pubtypes
                0x00000ae0      0x21c build/default/production/src/hal/hal_uart.o
 .debug_pubtypes
                0x00000cfc       0x8d build/default/production/src/hal/hal_i2c.o
 .debug_pubtypes
                0x00000d89       0x47 build/default/production/src/hal/hal_spi.o
 .debug_pubtypes
                0x00000dd0       0x3d build/default/production/src/hal/hal_timer.o
 .debug_pubtypes
                0x00000e0d       0x40 build/default/production/src/hal/hal_io.o
 .debug_pubtypes
                0x00000e4d       0x83 build/default/production/src/hal/hal_sys.o
 .debug_pubtypes
                0x00000ed0       0x91 build/default/production/src/scpi-parser/libscpi/src/lexer.o
 .debug_pubtypes
                0x00000f61      0x37d build/default/production/src/scpi-parser/libscpi/src/error.o
 .debug_pubtypes
                0x000012de       0x51 build/default/production/src/scpi-parser/libscpi/src/fifo.o
 .debug_pubtypes
                0x0000132f      0x383 build/default/production/src/scpi-parser/libscpi/src/ieee488.o
 .debug_pubtypes
                0x000016b2      0x36f build/default/production/src/scpi-parser/libscpi/src/minimal.o
 .debug_pubtypes
                0x00001a21      0x414 build/default/production/src/scpi-parser/libscpi/src/parser.o
 .debug_pubtypes
                0x00001e35      0x408 build/default/production/src/scpi-parser/libscpi/src/units.o
 .debug_pubtypes
                0x0000223d      0x122 build/default/production/src/scpi-parser/libscpi/src/utils.o
 .debug_pubtypes
                0x0000235f       0xf0 build/default/production/src/sys/src/system.o
 .debug_pubtypes
                0x0000244f      0x176 build/default/production/src/sys/src/settings.o
 .debug_pubtypes
                0x000025c5       0xd5 build/default/production/src/tasks/task_calibration.o
 .debug_pubtypes
                0x0000269a       0xd5 build/default/production/src/tasks/task_multimeter.o
 .debug_pubtypes
                0x0000276f       0x23 build/default/production/src/tasks/main.o
 .debug_pubtypes
                0x00002792       0xa7 build/default/production/src/tasks/tskmgr.o
 .debug_pubtypes
                0x00002839      0x3f6 build/default/production/src/tasks/task_scpi.o
 .debug_pubtypes
                0x00002c2f       0x21 build/default/production/src/utils/fcvt-1.1/fcvt.o
 .debug_pubtypes
                0x00002c50       0x3b build/default/production/src/utils/src/diag.o
 .debug_pubtypes
                0x00002c8b       0x1d build/default/production/src/utils/src/fitlinear.o
 .debug_pubtypes
                0x00002ca8       0x5f build/default/production/src/utils/src/disfmt.o
 .debug_pubtypes
                0x00002d07       0x37 build/default/production/src/utils/src/util_ringbuff.o
 .debug_pubtypes
                0x00002d3e       0x12 build/default/production/src/utils/src/strutils.o
 .debug_pubtypes
                0x00002d50       0x4c /opt/microchip/xc32/v1.31/bin/../lib/gcc/pic32mx/4.5.2/mips16/libgcc.a(_floatundidf.o)
 .debug_pubtypes
                0x00002d9c       0x65 /opt/microchip/xc32/v1.31/bin/../lib/gcc/pic32mx/4.5.2/mips16/libgcc.a(_udivdi3.o)
 .debug_pubtypes
                0x00002e01       0x34 /opt/microchip/xc32/v1.31/bin/../lib/gcc/pic32mx/4.5.2/mips16/libgcc.a(floatunsidf.o)
 .debug_pubtypes
                0x00002e35       0x34 /opt/microchip/xc32/v1.31/bin/../lib/gcc/pic32mx/4.5.2/mips16/libgcc.a(floatunsisf.o)
 .debug_pubtypes
                0x00002e69       0x1e /opt/microchip/xc32/v1.31/bin/../lib/gcc/pic32mx/4.5.2/mips16/libgcc.a(_clz.o)
 .debug_pubtypes
                0x00002e87       0x62 /opt/microchip/xc32/v1.31/bin/../lib/gcc/pic32mx/4.5.2/mips16/libgcc.a(_lshrdi3.o)
 .debug_pubtypes
                0x00002ee9       0x4c /opt/microchip/xc32/v1.31/bin/../lib/gcc/pic32mx/4.5.2/mips16/libgcc.a(_floatundisf.o)
 .debug_pubtypes
                0x00002f35       0x65 /opt/microchip/xc32/v1.31/bin/../lib/gcc/pic32mx/4.5.2/mips16/libgcc.a(_umoddi3.o)

.debug_ranges   0x00000000      0x2b0
 *(.debug_ranges)
 .debug_ranges  0x00000000       0x10 /opt/microchip/xc32/v1.31/bin/../lib/gcc/pic32mx/4.5.2/../../../../pic32mx/lib/mips16/libmchp_peripheral.a(open_core_timer_lib.o)
 .debug_ranges  0x00000010       0x10 /opt/microchip/xc32/v1.31/bin/../lib/gcc/pic32mx/4.5.2/../../../../pic32mx/lib/mips16/libmchp_peripheral.a(update_core_timer_lib.o)
 .debug_ranges  0x00000020       0x18 /opt/microchip/xc32/v1.31/bin/../lib/gcc/pic32mx/4.5.2/../../../../pic32mx/lib/mips16/libmchp_peripheral_32MX350F256L.a(pcache.o)
 .debug_ranges  0x00000038       0x10 /opt/microchip/xc32/v1.31/bin/../lib/gcc/pic32mx/4.5.2/../../../../pic32mx/lib/mips16/libmchp_peripheral_32MX350F256L.a(int_configure_system_lib.o)
 .debug_ranges  0x00000048       0x10 /opt/microchip/xc32/v1.31/bin/../lib/gcc/pic32mx/4.5.2/../../../../pic32mx/lib/mips16/libmchp_peripheral_32MX350F256L.a(int_disable_interrupts_lib.o)
 .debug_ranges  0x00000058       0x10 /opt/microchip/xc32/v1.31/bin/../lib/gcc/pic32mx/4.5.2/../../../../pic32mx/lib/mips16/libmchp_peripheral_32MX350F256L.a(int_restore_interrupts_lib.o)
 .debug_ranges  0x00000068       0x50 /opt/microchip/xc32/v1.31/bin/../lib/gcc/pic32mx/4.5.2/../../../../pic32mx/lib/mips16/libmchp_peripheral_32MX350F256L.a(int_tbl_lib.o)
 .debug_ranges  0x000000b8       0x10 /opt/microchip/xc32/v1.31/bin/../lib/gcc/pic32mx/4.5.2/../../../../pic32mx/lib/mips16/libmchp_peripheral_32MX350F256L.a(spi_chn_open_lib.o)
 .debug_ranges  0x000000c8       0x20 /opt/microchip/xc32/v1.31/bin/../lib/gcc/pic32mx/4.5.2/../../../../pic32mx/lib/mips16/libmchp_peripheral_32MX350F256L.a(spi_chn_putc_lib.o)
 .debug_ranges  0x000000e8       0x10 /opt/microchip/xc32/v1.31/bin/../lib/gcc/pic32mx/4.5.2/../../../../pic32mx/lib/mips16/libmchp_peripheral_32MX350F256L.a(power_idle_lib.o)
 .debug_ranges  0x000000f8       0x10 /opt/microchip/xc32/v1.31/bin/../lib/gcc/pic32mx/4.5.2/../../../../pic32mx/lib/mips16/libmchp_peripheral_32MX350F256L.a(port_set_pins_digital_in_lib.o)
 .debug_ranges  0x00000108       0x10 /opt/microchip/xc32/v1.31/bin/../lib/gcc/pic32mx/4.5.2/../../../../pic32mx/lib/mips16/libmchp_peripheral_32MX350F256L.a(port_set_pins_digital_out_lib.o)
 .debug_ranges  0x00000118       0x10 /opt/microchip/xc32/v1.31/bin/../lib/gcc/pic32mx/4.5.2/../../../../pic32mx/lib/mips16/libmchp_peripheral_32MX350F256L.a(port_read_bits_lib.o)
 .debug_ranges  0x00000128       0x10 /opt/microchip/xc32/v1.31/bin/../lib/gcc/pic32mx/4.5.2/../../../../pic32mx/lib/mips16/libmchp_peripheral_32MX350F256L.a(port_clear_bits_lib.o)
 .debug_ranges  0x00000138       0x10 /opt/microchip/xc32/v1.31/bin/../lib/gcc/pic32mx/4.5.2/../../../../pic32mx/lib/mips16/libmchp_peripheral_32MX350F256L.a(port_set_bits_lib.o)
 .debug_ranges  0x00000148       0x10 /opt/microchip/xc32/v1.31/bin/../lib/gcc/pic32mx/4.5.2/../../../../pic32mx/lib/mips16/libmchp_peripheral_32MX350F256L.a(port_toggle_bits_lib.o)
 .debug_ranges  0x00000158       0x48 /opt/microchip/xc32/v1.31/bin/../lib/gcc/pic32mx/4.5.2/../../../../pic32mx/lib/mips16/libmchp_peripheral_32MX350F256L.a(uart_lib.o)
 .debug_ranges  0x000001a0       0x10 /opt/microchip/xc32/v1.31/bin/../lib/gcc/pic32mx/4.5.2/../../../../pic32mx/lib/mips16/libmchp_peripheral_32MX350F256L.a(I2CAcknowledgeByte.o)
 .debug_ranges  0x000001b0       0x10 /opt/microchip/xc32/v1.31/bin/../lib/gcc/pic32mx/4.5.2/../../../../pic32mx/lib/mips16/libmchp_peripheral_32MX350F256L.a(I2CAcknowledgeHasCompleted.o)
 .debug_ranges  0x000001c0       0x10 /opt/microchip/xc32/v1.31/bin/../lib/gcc/pic32mx/4.5.2/../../../../pic32mx/lib/mips16/libmchp_peripheral_32MX350F256L.a(I2CBusIsIdle.o)
 .debug_ranges  0x000001d0       0x10 /opt/microchip/xc32/v1.31/bin/../lib/gcc/pic32mx/4.5.2/../../../../pic32mx/lib/mips16/libmchp_peripheral_32MX350F256L.a(I2CByteWasAcknowledged.o)
 .debug_ranges  0x000001e0       0x10 /opt/microchip/xc32/v1.31/bin/../lib/gcc/pic32mx/4.5.2/../../../../pic32mx/lib/mips16/libmchp_peripheral_32MX350F256L.a(I2CConfigure.o)
 .debug_ranges  0x000001f0       0x10 /opt/microchip/xc32/v1.31/bin/../lib/gcc/pic32mx/4.5.2/../../../../pic32mx/lib/mips16/libmchp_peripheral_32MX350F256L.a(I2CEnable.o)
 .debug_ranges  0x00000200       0x10 /opt/microchip/xc32/v1.31/bin/../lib/gcc/pic32mx/4.5.2/../../../../pic32mx/lib/mips16/libmchp_peripheral_32MX350F256L.a(I2CGetByte.o)
 .debug_ranges  0x00000210       0x10 /opt/microchip/xc32/v1.31/bin/../lib/gcc/pic32mx/4.5.2/../../../../pic32mx/lib/mips16/libmchp_peripheral_32MX350F256L.a(I2CGetStatus.o)
 .debug_ranges  0x00000220       0x10 /opt/microchip/xc32/v1.31/bin/../lib/gcc/pic32mx/4.5.2/../../../../pic32mx/lib/mips16/libmchp_peripheral_32MX350F256L.a(I2CReceivedDataIsAvailable.o)
 .debug_ranges  0x00000230       0x10 /opt/microchip/xc32/v1.31/bin/../lib/gcc/pic32mx/4.5.2/../../../../pic32mx/lib/mips16/libmchp_peripheral_32MX350F256L.a(I2CReceiverEnable.o)
 .debug_ranges  0x00000240       0x10 /opt/microchip/xc32/v1.31/bin/../lib/gcc/pic32mx/4.5.2/../../../../pic32mx/lib/mips16/libmchp_peripheral_32MX350F256L.a(I2CRepeatStart.o)
 .debug_ranges  0x00000250       0x10 /opt/microchip/xc32/v1.31/bin/../lib/gcc/pic32mx/4.5.2/../../../../pic32mx/lib/mips16/libmchp_peripheral_32MX350F256L.a(I2CSendByte.o)
 .debug_ranges  0x00000260       0x10 /opt/microchip/xc32/v1.31/bin/../lib/gcc/pic32mx/4.5.2/../../../../pic32mx/lib/mips16/libmchp_peripheral_32MX350F256L.a(I2CSetFrequency.o)
 .debug_ranges  0x00000270       0x10 /opt/microchip/xc32/v1.31/bin/../lib/gcc/pic32mx/4.5.2/../../../../pic32mx/lib/mips16/libmchp_peripheral_32MX350F256L.a(I2CStart.o)
 .debug_ranges  0x00000280       0x10 /opt/microchip/xc32/v1.31/bin/../lib/gcc/pic32mx/4.5.2/../../../../pic32mx/lib/mips16/libmchp_peripheral_32MX350F256L.a(I2CStop.o)
 .debug_ranges  0x00000290       0x10 /opt/microchip/xc32/v1.31/bin/../lib/gcc/pic32mx/4.5.2/../../../../pic32mx/lib/mips16/libmchp_peripheral_32MX350F256L.a(I2CTransmissionHasCompleted.o)
 .debug_ranges  0x000002a0       0x10 /opt/microchip/xc32/v1.31/bin/../lib/gcc/pic32mx/4.5.2/../../../../pic32mx/lib/mips16/libmchp_peripheral_32MX350F256L.a(I2CTransmitterIsReady.o)

.gnu.attributes
                0x00000000       0x10
 *(.gnu.attributes)
 .gnu.attributes
                0x00000000       0x10 build/default/production/src/drivers/eeprom.o
 .gnu.attributes
                0x00000010       0x10 build/default/production/src/drivers/tmp275.o
 .gnu.attributes
                0x00000020       0x10 build/default/production/src/drivers/dispkyb.o
 .gnu.attributes
                0x00000030       0x10 build/default/production/src/drivers/usb_uart.o
 .gnu.attributes
                0x00000040       0x10 build/default/production/src/drivers/adc.o
 .gnu.attributes
                0x00000050       0x10 build/default/production/src/drivers/adcctrl.o
 .gnu.attributes
                0x00000060       0x10 build/default/production/src/eefs/crc32.o
 .gnu.attributes
                0x00000070       0x10 build/default/production/src/eefs/eefs.o
 .gnu.attributes
                0x00000080       0x10 build/default/production/src/FreeRTOS/portable/MemMang/heap_4.o
 .gnu.attributes
                0x00000090       0x10 build/default/production/src/FreeRTOS/portable/MPLAB/PIC32MX/port.o
 .gnu.attributes
                0x000000a0       0x10 build/default/production/src/FreeRTOS/timers.o
 .gnu.attributes
                0x000000b0       0x10 build/default/production/src/FreeRTOS/tasks.o
 .gnu.attributes
                0x000000c0       0x10 build/default/production/src/FreeRTOS/list.o
 .gnu.attributes
                0x000000d0       0x10 build/default/production/src/FreeRTOS/event_groups.o
 .gnu.attributes
                0x000000e0       0x10 build/default/production/src/FreeRTOS/croutine.o
 .gnu.attributes
                0x000000f0       0x10 build/default/production/src/FreeRTOS/queue.o
 .gnu.attributes
                0x00000100       0x10 build/default/production/src/hal/fuses.o
 .gnu.attributes
                0x00000110       0x10 build/default/production/src/hal/exceptions.o
 .gnu.attributes
                0x00000120       0x10 build/default/production/src/hal/hal_adc.o
 .gnu.attributes
                0x00000130       0x10 build/default/production/src/hal/hal_uart.o
 .gnu.attributes
                0x00000140       0x10 build/default/production/src/hal/hal_i2c.o
 .gnu.attributes
                0x00000150       0x10 build/default/production/src/hal/hal_spi.o
 .gnu.attributes
                0x00000160       0x10 build/default/production/src/hal/hal_timer.o
 .gnu.attributes
                0x00000170       0x10 build/default/production/src/hal/hal_io.o
 .gnu.attributes
                0x00000180       0x10 build/default/production/src/hal/hal_sys.o
 .gnu.attributes
                0x00000190       0x10 build/default/production/src/scpi-parser/libscpi/src/lexer.o
 .gnu.attributes
                0x000001a0       0x10 build/default/production/src/scpi-parser/libscpi/src/error.o
 .gnu.attributes
                0x000001b0       0x10 build/default/production/src/scpi-parser/libscpi/src/fifo.o
 .gnu.attributes
                0x000001c0       0x10 build/default/production/src/scpi-parser/libscpi/src/ieee488.o
 .gnu.attributes
                0x000001d0       0x10 build/default/production/src/scpi-parser/libscpi/src/minimal.o
 .gnu.attributes
                0x000001e0       0x10 build/default/production/src/scpi-parser/libscpi/src/parser.o
 .gnu.attributes
                0x000001f0       0x10 build/default/production/src/scpi-parser/libscpi/src/units.o
 .gnu.attributes
                0x00000200       0x10 build/default/production/src/scpi-parser/libscpi/src/utils.o
 .gnu.attributes
                0x00000210       0x10 build/default/production/src/sys/src/system.o
 .gnu.attributes
                0x00000220       0x10 build/default/production/src/sys/src/settings.o
 .gnu.attributes
                0x00000230       0x10 build/default/production/src/tasks/task_calibration.o
 .gnu.attributes
                0x00000240       0x10 build/default/production/src/tasks/task_multimeter.o
 .gnu.attributes
                0x00000250       0x10 build/default/production/src/tasks/main.o
 .gnu.attributes
                0x00000260       0x10 build/default/production/src/tasks/tskmgr.o
 .gnu.attributes
                0x00000270       0x10 build/default/production/src/tasks/task_scpi.o
 .gnu.attributes
                0x00000280       0x10 build/default/production/src/utils/fcvt-1.1/fcvt.o
 .gnu.attributes
                0x00000290       0x10 build/default/production/src/utils/src/diag.o
 .gnu.attributes
                0x000002a0       0x10 build/default/production/src/utils/src/fitlinear.o
 .gnu.attributes
                0x000002b0       0x10 build/default/production/src/utils/src/disfmt.o
 .gnu.attributes
                0x000002c0       0x10 build/default/production/src/utils/src/util_ringbuff.o
 .gnu.attributes
                0x000002d0       0x10 build/default/production/src/utils/src/strutils.o
 .gnu.attributes
                0x000002e0       0x10 /opt/microchip/xc32/v1.31/bin/../lib/gcc/pic32mx/4.5.2/../../../../pic32mx/lib/mips16/libmchp_peripheral.a(open_core_timer_lib.o)
 .gnu.attributes
                0x000002f0       0x10 /opt/microchip/xc32/v1.31/bin/../lib/gcc/pic32mx/4.5.2/../../../../pic32mx/lib/mips16/libmchp_peripheral.a(update_core_timer_lib.o)
 .gnu.attributes
                0x00000300       0x10 /opt/microchip/xc32/v1.31/bin/../lib/gcc/pic32mx/4.5.2/../../../../pic32mx/lib/mips16/libmchp_peripheral_32MX350F256L.a(pcache.o)
 .gnu.attributes
                0x00000310       0x10 /opt/microchip/xc32/v1.31/bin/../lib/gcc/pic32mx/4.5.2/../../../../pic32mx/lib/mips16/libmchp_peripheral_32MX350F256L.a(int_configure_system_lib.o)
 .gnu.attributes
                0x00000320       0x10 /opt/microchip/xc32/v1.31/bin/../lib/gcc/pic32mx/4.5.2/../../../../pic32mx/lib/mips16/libmchp_peripheral_32MX350F256L.a(int_disable_interrupts_lib.o)
 .gnu.attributes
                0x00000330       0x10 /opt/microchip/xc32/v1.31/bin/../lib/gcc/pic32mx/4.5.2/../../../../pic32mx/lib/mips16/libmchp_peripheral_32MX350F256L.a(int_restore_interrupts_lib.o)
 .gnu.attributes
                0x00000340       0x10 /opt/microchip/xc32/v1.31/bin/../lib/gcc/pic32mx/4.5.2/../../../../pic32mx/lib/mips16/libmchp_peripheral_32MX350F256L.a(int_tbl_lib.o)
 .gnu.attributes
                0x00000350       0x10 /opt/microchip/xc32/v1.31/bin/../lib/gcc/pic32mx/4.5.2/../../../../pic32mx/lib/mips16/libmchp_peripheral_32MX350F256L.a(spi_chn_open_lib.o)
 .gnu.attributes
                0x00000360       0x10 /opt/microchip/xc32/v1.31/bin/../lib/gcc/pic32mx/4.5.2/../../../../pic32mx/lib/mips16/libmchp_peripheral_32MX350F256L.a(spi_chn_putc_lib.o)
 .gnu.attributes
                0x00000370       0x10 /opt/microchip/xc32/v1.31/bin/../lib/gcc/pic32mx/4.5.2/../../../../pic32mx/lib/mips16/libmchp_peripheral_32MX350F256L.a(spi_map_tbl_libp.o)
 .gnu.attributes
                0x00000380       0x10 /opt/microchip/xc32/v1.31/bin/../lib/gcc/pic32mx/4.5.2/../../../../pic32mx/lib/mips16/libmchp_peripheral_32MX350F256L.a(power_idle_lib.o)
 .gnu.attributes
                0x00000390       0x10 /opt/microchip/xc32/v1.31/bin/../lib/gcc/pic32mx/4.5.2/../../../../pic32mx/lib/mips16/libmchp_peripheral_32MX350F256L.a(port_set_pins_digital_in_lib.o)
 .gnu.attributes
                0x000003a0       0x10 /opt/microchip/xc32/v1.31/bin/../lib/gcc/pic32mx/4.5.2/../../../../pic32mx/lib/mips16/libmchp_peripheral_32MX350F256L.a(port_set_pins_digital_out_lib.o)
 .gnu.attributes
                0x000003b0       0x10 /opt/microchip/xc32/v1.31/bin/../lib/gcc/pic32mx/4.5.2/../../../../pic32mx/lib/mips16/libmchp_peripheral_32MX350F256L.a(port_read_bits_lib.o)
 .gnu.attributes
                0x000003c0       0x10 /opt/microchip/xc32/v1.31/bin/../lib/gcc/pic32mx/4.5.2/../../../../pic32mx/lib/mips16/libmchp_peripheral_32MX350F256L.a(port_clear_bits_lib.o)
 .gnu.attributes
                0x000003d0       0x10 /opt/microchip/xc32/v1.31/bin/../lib/gcc/pic32mx/4.5.2/../../../../pic32mx/lib/mips16/libmchp_peripheral_32MX350F256L.a(port_set_bits_lib.o)
 .gnu.attributes
                0x000003e0       0x10 /opt/microchip/xc32/v1.31/bin/../lib/gcc/pic32mx/4.5.2/../../../../pic32mx/lib/mips16/libmchp_peripheral_32MX350F256L.a(port_toggle_bits_lib.o)
 .gnu.attributes
                0x000003f0       0x10 /opt/microchip/xc32/v1.31/bin/../lib/gcc/pic32mx/4.5.2/../../../../pic32mx/lib/mips16/libmchp_peripheral_32MX350F256L.a(_ports_tbl_libp.o)
 .gnu.attributes
                0x00000400       0x10 /opt/microchip/xc32/v1.31/bin/../lib/gcc/pic32mx/4.5.2/../../../../pic32mx/lib/mips16/libmchp_peripheral_32MX350F256L.a(uart_lib.o)
 .gnu.attributes
                0x00000410       0x10 /opt/microchip/xc32/v1.31/bin/../lib/gcc/pic32mx/4.5.2/../../../../pic32mx/lib/mips16/libmchp_peripheral_32MX350F256L.a(I2CAcknowledgeByte.o)
 .gnu.attributes
                0x00000420       0x10 /opt/microchip/xc32/v1.31/bin/../lib/gcc/pic32mx/4.5.2/../../../../pic32mx/lib/mips16/libmchp_peripheral_32MX350F256L.a(I2CAcknowledgeHasCompleted.o)
 .gnu.attributes
                0x00000430       0x10 /opt/microchip/xc32/v1.31/bin/../lib/gcc/pic32mx/4.5.2/../../../../pic32mx/lib/mips16/libmchp_peripheral_32MX350F256L.a(I2CBusIsIdle.o)
 .gnu.attributes
                0x00000440       0x10 /opt/microchip/xc32/v1.31/bin/../lib/gcc/pic32mx/4.5.2/../../../../pic32mx/lib/mips16/libmchp_peripheral_32MX350F256L.a(I2CByteWasAcknowledged.o)
 .gnu.attributes
                0x00000450       0x10 /opt/microchip/xc32/v1.31/bin/../lib/gcc/pic32mx/4.5.2/../../../../pic32mx/lib/mips16/libmchp_peripheral_32MX350F256L.a(I2CConfigure.o)
 .gnu.attributes
                0x00000460       0x10 /opt/microchip/xc32/v1.31/bin/../lib/gcc/pic32mx/4.5.2/../../../../pic32mx/lib/mips16/libmchp_peripheral_32MX350F256L.a(I2CEnable.o)
 .gnu.attributes
                0x00000470       0x10 /opt/microchip/xc32/v1.31/bin/../lib/gcc/pic32mx/4.5.2/../../../../pic32mx/lib/mips16/libmchp_peripheral_32MX350F256L.a(I2CGetByte.o)
 .gnu.attributes
                0x00000480       0x10 /opt/microchip/xc32/v1.31/bin/../lib/gcc/pic32mx/4.5.2/../../../../pic32mx/lib/mips16/libmchp_peripheral_32MX350F256L.a(I2CGetStatus.o)
 .gnu.attributes
                0x00000490       0x10 /opt/microchip/xc32/v1.31/bin/../lib/gcc/pic32mx/4.5.2/../../../../pic32mx/lib/mips16/libmchp_peripheral_32MX350F256L.a(I2CReceivedDataIsAvailable.o)
 .gnu.attributes
                0x000004a0       0x10 /opt/microchip/xc32/v1.31/bin/../lib/gcc/pic32mx/4.5.2/../../../../pic32mx/lib/mips16/libmchp_peripheral_32MX350F256L.a(I2CReceiverEnable.o)
 .gnu.attributes
                0x000004b0       0x10 /opt/microchip/xc32/v1.31/bin/../lib/gcc/pic32mx/4.5.2/../../../../pic32mx/lib/mips16/libmchp_peripheral_32MX350F256L.a(I2CRepeatStart.o)
 .gnu.attributes
                0x000004c0       0x10 /opt/microchip/xc32/v1.31/bin/../lib/gcc/pic32mx/4.5.2/../../../../pic32mx/lib/mips16/libmchp_peripheral_32MX350F256L.a(I2CSendByte.o)
 .gnu.attributes
                0x000004d0       0x10 /opt/microchip/xc32/v1.31/bin/../lib/gcc/pic32mx/4.5.2/../../../../pic32mx/lib/mips16/libmchp_peripheral_32MX350F256L.a(I2CSetFrequency.o)
 .gnu.attributes
                0x000004e0       0x10 /opt/microchip/xc32/v1.31/bin/../lib/gcc/pic32mx/4.5.2/../../../../pic32mx/lib/mips16/libmchp_peripheral_32MX350F256L.a(I2CStart.o)
 .gnu.attributes
                0x000004f0       0x10 /opt/microchip/xc32/v1.31/bin/../lib/gcc/pic32mx/4.5.2/../../../../pic32mx/lib/mips16/libmchp_peripheral_32MX350F256L.a(I2CStop.o)
 .gnu.attributes
                0x00000500       0x10 /opt/microchip/xc32/v1.31/bin/../lib/gcc/pic32mx/4.5.2/../../../../pic32mx/lib/mips16/libmchp_peripheral_32MX350F256L.a(I2CTransmissionHasCompleted.o)
 .gnu.attributes
                0x00000510       0x10 /opt/microchip/xc32/v1.31/bin/../lib/gcc/pic32mx/4.5.2/../../../../pic32mx/lib/mips16/libmchp_peripheral_32MX350F256L.a(I2CTransmitterIsReady.o)
 .gnu.attributes
                0x00000520       0x10 /opt/microchip/xc32/v1.31/bin/../lib/gcc/pic32mx/4.5.2/../../../../pic32mx/lib/mips16/libmchp_peripheral_32MX350F256L.a(I2CPrivate.o)
 .gnu.attributes
                0x00000530       0x10 /opt/microchip/xc32/v1.31/bin/../lib/gcc/pic32mx/4.5.2/mips16/libgcc.a(_floatundidf.o)
 .gnu.attributes
                0x00000540       0x10 /opt/microchip/xc32/v1.31/bin/../lib/gcc/pic32mx/4.5.2/mips16/libgcc.a(_udivdi3.o)
 .gnu.attributes
                0x00000550       0x10 /opt/microchip/xc32/v1.31/bin/../lib/gcc/pic32mx/4.5.2/mips16/libgcc.a(floatunsidf.o)
 .gnu.attributes
                0x00000560       0x10 /opt/microchip/xc32/v1.31/bin/../lib/gcc/pic32mx/4.5.2/mips16/libgcc.a(floatunsisf.o)
 .gnu.attributes
                0x00000570       0x10 /opt/microchip/xc32/v1.31/bin/../lib/gcc/pic32mx/4.5.2/mips16/libgcc.a(_clz.o)
 .gnu.attributes
                0x00000580       0x10 /opt/microchip/xc32/v1.31/bin/../lib/gcc/pic32mx/4.5.2/../../../../pic32mx/lib/mips16/libpic32.a(default-bootstrap-exception-handler.o)
 .gnu.attributes
                0x00000590       0x10 /opt/microchip/xc32/v1.31/bin/../lib/gcc/pic32mx/4.5.2/../../../../pic32mx/lib/mips16/libpic32.a(default-on-reset.o)
 .gnu.attributes
                0x000005a0       0x10 /opt/microchip/xc32/v1.31/bin/../lib/gcc/pic32mx/4.5.2/../../../../pic32mx/lib/mips16/libpic32.a(default-on-bootstrap.o)
 .gnu.attributes
                0x000005b0       0x10 /opt/microchip/xc32/v1.31/bin/../lib/gcc/pic32mx/4.5.2/../../../../pic32mx/lib/mips16/libm.a(w_pow.o)
 .gnu.attributes
                0x000005c0       0x10 /opt/microchip/xc32/v1.31/bin/../lib/gcc/pic32mx/4.5.2/../../../../pic32mx/lib/mips16/libm.a(w_log10.o)
 .gnu.attributes
                0x000005d0       0x10 /opt/microchip/xc32/v1.31/bin/../lib/gcc/pic32mx/4.5.2/../../../../pic32mx/lib/mips16/libm.a(floor.o)
 .gnu.attributes
                0x000005e0       0x10 /opt/microchip/xc32/v1.31/bin/../lib/gcc/pic32mx/4.5.2/../../../../pic32mx/lib/mips16/libm.a(w_sqrt.o)
 .gnu.attributes
                0x000005f0       0x10 /opt/microchip/xc32/v1.31/bin/../lib/gcc/pic32mx/4.5.2/../../../../pic32mx/lib/mips16/libm.a(s_lib_ver.o)
 .gnu.attributes
                0x00000600       0x10 /opt/microchip/xc32/v1.31/bin/../lib/gcc/pic32mx/4.5.2/../../../../pic32mx/lib/mips16/libm.a(support.o)
 .gnu.attributes
                0x00000610       0x10 /opt/microchip/xc32/v1.31/bin/../lib/gcc/pic32mx/4.5.2/../../../../pic32mx/lib/mips16/libm.a(w_ldexp.o)
 .gnu.attributes
                0x00000620       0x10 /opt/microchip/xc32/v1.31/bin/../lib/gcc/pic32mx/4.5.2/../../../../pic32mx/lib/mips16/libe.a(_unorddf2.o)
 .gnu.attributes
                0x00000630       0x10 /opt/microchip/xc32/v1.31/bin/../lib/gcc/pic32mx/4.5.2/../../../../pic32mx/lib/mips16/libpic32.a(errno.o)
 .gnu.attributes
                0x00000640       0x10 /opt/microchip/xc32/v1.31/bin/../lib/gcc/pic32mx/4.5.2/../../../../pic32mx/lib/mips16/libpic32.a(isinf.o)
 .gnu.attributes
                0x00000650       0x10 /opt/microchip/xc32/v1.31/bin/../lib/gcc/pic32mx/4.5.2/../../../../pic32mx/lib/mips16/libc.a(_iob.o)
 .gnu.attributes
                0x00000660       0x10 /opt/microchip/xc32/v1.31/bin/../lib/gcc/pic32mx/4.5.2/../../../../pic32mx/lib/mips16/libc.a(fwrite.o)
 .gnu.attributes
                0x00000670       0x10 /opt/microchip/xc32/v1.31/bin/../lib/gcc/pic32mx/4.5.2/../../../../pic32mx/lib/mips16/libc.a(ctype.o)
 .gnu.attributes
                0x00000680       0x10 /opt/microchip/xc32/v1.31/bin/../lib/gcc/pic32mx/4.5.2/../../../../pic32mx/lib/mips16/libc.a(ctypef.o)
 .gnu.attributes
                0x00000690       0x10 /opt/microchip/xc32/v1.31/bin/../lib/gcc/pic32mx/4.5.2/../../../../pic32mx/lib/mips16/libc.a(memcmp.o)
 .gnu.attributes
                0x000006a0       0x10 /opt/microchip/xc32/v1.31/bin/../lib/gcc/pic32mx/4.5.2/../../../../pic32mx/lib/mips16/libc.a(memcpy.o)
 .gnu.attributes
                0x000006b0       0x10 /opt/microchip/xc32/v1.31/bin/../lib/gcc/pic32mx/4.5.2/../../../../pic32mx/lib/mips16/libc.a(memmove.o)
 .gnu.attributes
                0x000006c0       0x10 /opt/microchip/xc32/v1.31/bin/../lib/gcc/pic32mx/4.5.2/../../../../pic32mx/lib/mips16/libc.a(memset.o)
 .gnu.attributes
                0x000006d0       0x10 /opt/microchip/xc32/v1.31/bin/../lib/gcc/pic32mx/4.5.2/../../../../pic32mx/lib/mips16/libc.a(puts.o)
 .gnu.attributes
                0x000006e0       0x10 /opt/microchip/xc32/v1.31/bin/../lib/gcc/pic32mx/4.5.2/../../../../pic32mx/lib/mips16/libc.a(strchr.o)
 .gnu.attributes
                0x000006f0       0x10 /opt/microchip/xc32/v1.31/bin/../lib/gcc/pic32mx/4.5.2/../../../../pic32mx/lib/mips16/libc.a(strlen.o)
 .gnu.attributes
                0x00000700       0x10 /opt/microchip/xc32/v1.31/bin/../lib/gcc/pic32mx/4.5.2/../../../../pic32mx/lib/mips16/libc.a(strncasecmp.o)
 .gnu.attributes
                0x00000710       0x10 /opt/microchip/xc32/v1.31/bin/../lib/gcc/pic32mx/4.5.2/../../../../pic32mx/lib/mips16/libc.a(strncat.o)
 .gnu.attributes
                0x00000720       0x10 /opt/microchip/xc32/v1.31/bin/../lib/gcc/pic32mx/4.5.2/../../../../pic32mx/lib/mips16/libc.a(strncpy.o)
 .gnu.attributes
                0x00000730       0x10 /opt/microchip/xc32/v1.31/bin/../lib/gcc/pic32mx/4.5.2/../../../../pic32mx/lib/mips16/libc.a(strtod.o)
 .gnu.attributes
                0x00000740       0x10 /opt/microchip/xc32/v1.31/bin/../lib/gcc/pic32mx/4.5.2/../../../../pic32mx/lib/mips16/libc.a(strtof.o)
 .gnu.attributes
                0x00000750       0x10 /opt/microchip/xc32/v1.31/bin/../lib/gcc/pic32mx/4.5.2/../../../../pic32mx/lib/mips16/libc.a(strstr.o)
 .gnu.attributes
                0x00000760       0x10 /opt/microchip/xc32/v1.31/bin/../lib/gcc/pic32mx/4.5.2/../../../../pic32mx/lib/mips16/libc.a(strtol.o)
 .gnu.attributes
                0x00000770       0x10 /opt/microchip/xc32/v1.31/bin/../lib/gcc/pic32mx/4.5.2/../../../../pic32mx/lib/mips16/libc.a(strtoll.o)
 .gnu.attributes
                0x00000780       0x10 /opt/microchip/xc32/v1.31/bin/../lib/gcc/pic32mx/4.5.2/../../../../pic32mx/lib/mips16/libc.a(printf_cdfFnopsuxX.eo)
 .gnu.attributes
                0x00000790       0x10 /opt/microchip/xc32/v1.31/bin/../lib/gcc/pic32mx/4.5.2/../../../../pic32mx/lib/mips16/libc.a(vprintf.o)
 .gnu.attributes
                0x000007a0       0x10 /opt/microchip/xc32/v1.31/bin/../lib/gcc/pic32mx/4.5.2/../../../../pic32mx/lib/mips16/libc.a(snprintf_gG.eo)
 .gnu.attributes
                0x000007b0       0x10 /opt/microchip/xc32/v1.31/bin/../lib/gcc/pic32mx/4.5.2/../../../../pic32mx/lib/mips16/libc.a(vsnprintf_gG.eo)
 .gnu.attributes
                0x000007c0       0x10 /opt/microchip/xc32/v1.31/bin/../lib/gcc/pic32mx/4.5.2/../../../../pic32mx/lib/mips16/libc.a(fflush.o)
 .gnu.attributes
                0x000007d0       0x10 /opt/microchip/xc32/v1.31/bin/../lib/gcc/pic32mx/4.5.2/../../../../pic32mx/lib/mips16/libc.a(_fputc_simple.o)
 .gnu.attributes
                0x000007e0       0x10 /opt/microchip/xc32/v1.31/bin/../lib/gcc/pic32mx/4.5.2/../../../../pic32mx/lib/mips16/libc.a(fseek.o)
 .gnu.attributes
                0x000007f0       0x10 /opt/microchip/xc32/v1.31/bin/../lib/gcc/pic32mx/4.5.2/../../../../pic32mx/lib/mips16/libc.a(strncmp.o)
 .gnu.attributes
                0x00000800       0x10 /opt/microchip/xc32/v1.31/bin/../lib/gcc/pic32mx/4.5.2/../../../../pic32mx/lib/mips16/libc.a(doprnt.o)
 .gnu.attributes
                0x00000810       0x10 /opt/microchip/xc32/v1.31/bin/../lib/gcc/pic32mx/4.5.2/../../../../pic32mx/lib/mips16/libc.a(_flsbuf_simple.o)
 .gnu.attributes
                0x00000820       0x10 /opt/microchip/xc32/v1.31/bin/../lib/gcc/pic32mx/4.5.2/../../../../pic32mx/lib/mips16/libc.a(powersf.o)
 .gnu.attributes
                0x00000830       0x10 /opt/microchip/xc32/v1.31/bin/../lib/gcc/pic32mx/4.5.2/../../../../pic32mx/lib/mips16/libpic32.a(write.o)
 .gnu.attributes
                0x00000840       0x10 /opt/microchip/xc32/v1.31/bin/../lib/gcc/pic32mx/4.5.2/../../../../pic32mx/lib/mips16/libpic32.a(lseek.o)
 .gnu.attributes
                0x00000850       0x10 /opt/microchip/xc32/v1.31/bin/../lib/gcc/pic32mx/4.5.2/../../../../pic32mx/lib/mips16/libe.a(_floatdisf.o)
 .gnu.attributes
                0x00000860       0x10 /opt/microchip/xc32/v1.31/bin/../lib/gcc/pic32mx/4.5.2/../../../../pic32mx/lib/mips16/libe.a(_strtod.o)
 .gnu.attributes
                0x00000870       0x10 /opt/microchip/xc32/v1.31/bin/../lib/gcc/pic32mx/4.5.2/../../../../pic32mx/lib/mips16/libe.a(_strtof.o)
 .gnu.attributes
                0x00000880       0x10 /opt/microchip/xc32/v1.31/bin/../lib/gcc/pic32mx/4.5.2/../../../../pic32mx/lib/mips16/libe.a(_ldexp.o)
 .gnu.attributes
                0x00000890       0x10 /opt/microchip/xc32/v1.31/bin/../lib/gcc/pic32mx/4.5.2/../../../../pic32mx/lib/mips16/libe.a(_ldexpf.o)
 .gnu.attributes
                0x000008a0       0x10 /opt/microchip/xc32/v1.31/bin/../lib/gcc/pic32mx/4.5.2/mips16/libgcc.a(_lshrdi3.o)
 .gnu.attributes
                0x000008b0       0x10 /opt/microchip/xc32/v1.31/bin/../lib/gcc/pic32mx/4.5.2/mips16/libgcc.a(_floatundisf.o)
 .gnu.attributes
                0x000008c0       0x10 /opt/microchip/xc32/v1.31/bin/../lib/gcc/pic32mx/4.5.2/mips16/libgcc.a(_umoddi3.o)
 .gnu.attributes
                0x000008d0       0x10 /opt/microchip/xc32/v1.31/bin/../lib/gcc/pic32mx/4.5.2/../../../../pic32mx/lib/mips16/libc.a(doprnt_cdfFgGnopsuxX.eo)
LOAD /opt/microchip/xc32/v1.31/bin/../lib/gcc/pic32mx/4.5.2/mips16/libgcc.a
START GROUP
LOAD /opt/microchip/xc32/v1.31/bin/../lib/gcc/pic32mx/4.5.2/../../../../pic32mx/lib/mips16/libpic32.a
LOAD /opt/microchip/xc32/v1.31/bin/../lib/gcc/pic32mx/4.5.2/../../../../pic32mx/lib/mips16/libdebug.a
LOAD /opt/microchip/xc32/v1.31/bin/../lib/gcc/pic32mx/4.5.2/../../../../pic32mx/lib/mips16/libm.a
LOAD /opt/microchip/xc32/v1.31/bin/../lib/gcc/pic32mx/4.5.2/../../../../pic32mx/lib/mips16/libe.a
LOAD /opt/microchip/xc32/v1.31/bin/../lib/gcc/pic32mx/4.5.2/../../../../pic32mx/lib/mips16/libdsp.a
LOAD /opt/microchip/xc32/v1.31/bin/../lib/gcc/pic32mx/4.5.2/mips16/libgcc.a
LOAD /opt/microchip/xc32/v1.31/bin/../lib/gcc/pic32mx/4.5.2/../../../../pic32mx/lib/mips16/libpic32.a
LOAD /opt/microchip/xc32/v1.31/bin/../lib/gcc/pic32mx/4.5.2/../../../../pic32mx/lib/mips16/libc.a
LOAD /opt/microchip/xc32/v1.31/bin/../lib/gcc/pic32mx/4.5.2/../../../../pic32mx/lib/mips16/libpic32.a
END GROUP
LOAD /opt/microchip/xc32/v1.31/bin/../lib/gcc/pic32mx/4.5.2/mips16/libgcc.a
LOAD /opt/microchip/xc32/v1.31/bin/../lib/gcc/pic32mx/4.5.2/../../../../pic32mx/lib/mips16/debug-exception-return.o
OUTPUT(dist/default/production/keithley_199.production.elf elf32-tradlittlemips)
LOAD stack
LOAD data_init

.reginfo        0x00000000       0x18
 .reginfo       0x00000000       0x18 /opt/microchip/xc32/v1.31/bin/../lib/gcc/pic32mx/4.5.2/../../../../pic32mx/lib/./proc/32MX350F256L/crt0_mips32r2.o

.stack          0xa0008400      0x400
 .stack         0xa0008400      0x400 stack

.bss            0xa0000210     0x73b0
 .bss           0xa0000210     0x6d60 build/default/production/src/FreeRTOS/portable/MemMang/heap_4.o
 .bss           0xa0006f70      0x3e8 build/default/production/src/FreeRTOS/portable/MPLAB/PIC32MX/port.o
                0xa0006f70                xISRStack
 .bss           0xa0007358      0x140 build/default/production/src/hal/hal_uart.o
 .bss           0xa0007498      0x128 build/default/production/src/tasks/task_scpi.o

.data           0xa00075c0      0x1b4
 .data          0xa00075c0       0xe8 /opt/microchip/xc32/v1.31/bin/../lib/gcc/pic32mx/4.5.2/../../../../pic32mx/lib/mips16/libm.a(log32.o)
 .data          0xa00076a8       0xcc build/default/production/src/drivers/adcctrl.o

.bss            0xa0007774       0xc8
 .bss           0xa0007774       0xc8 build/default/production/src/FreeRTOS/tasks.o

.data           0xa000783c      0x28c
 .data          0xa000783c       0xc8 build/default/production/src/tasks/task_scpi.o
                0xa000783c                trigger_source
                0xa0007870                scpi_context
 .data          0xa0007904       0xa0 /opt/microchip/xc32/v1.31/bin/../lib/gcc/pic32mx/4.5.2/../../../../pic32mx/lib/mips16/libm.a(exp32.o)
 .data          0xa00079a4       0xa0 /opt/microchip/xc32/v1.31/bin/../lib/gcc/pic32mx/4.5.2/../../../../pic32mx/lib/mips16/libc.a(_iob.o)
                0xa00079a4                _iob
 .data          0xa0007a44       0x84 build/default/production/src/hal/hal_io.o

.bss            0xa0007ac8      0x118
 .bss           0xa0007ac8       0x80 build/default/production/src/sys/src/settings.o
 .bss           0xa0007b48       0x40 build/default/production/src/eefs/eefs.o
 .bss           0xa0007b88       0x40 /opt/microchip/xc32/v1.31/bin/../lib/gcc/pic32mx/4.5.2/../../../../pic32mx/lib/mips16/libc.a(_iob.o)
                0xa0007b88                _sibuf
                0xa0007ba8                _sobuf
 .bss           0xa0007bc8       0x18 build/default/production/src/drivers/dispkyb.o

.data           0xa0007be0       0x30
 .data          0xa0007be0       0x18 build/default/production/src/tasks/task_calibration.o
                0xa0007be0                calibration_task
 .data          0xa0007bf8       0x18 build/default/production/src/tasks/task_multimeter.o
                0xa0007bf8                multimeter_task

.data.math_errhandling_flag
                0xa0007c10        0x4
 .data.math_errhandling_flag
                0xa0007c10        0x4 /opt/microchip/xc32/v1.31/bin/../lib/gcc/pic32mx/4.5.2/../../../../pic32mx/lib/mips16/libm.a(s_lib_ver.o)
                0xa0007c10                math_errhandling

._debug_exception
                0xbfc00480       0x24
 ._debug_exception
                0xbfc00480       0x24 /opt/microchip/xc32/v1.31/bin/../lib/gcc/pic32mx/4.5.2/../../../../pic32mx/lib/mips16/debug-exception-return.o
                0xbfc00480                __DbgExecReturn

.text           0x9d000000     0x5d80
 .text          0x9d000000     0x29ac build/default/production/src/FreeRTOS/tasks.o
                0x9d000000                xTaskGenericCreate
                0x9d000298                vTaskDelete
                0x9d000420                vTaskDelayUntil
                0x9d0005f8                vTaskDelay
                0x9d0006ec                eTaskGetState
                0x9d00081c                uxTaskPriorityGet
                0x9d000888                vTaskPrioritySet
                0x9d000b08                vTaskSuspend
                0x9d000d88                vTaskResume
                0x9d000ec8                xTaskResumeFromISR
                0x9d001040                vTaskStartScheduler
                0x9d00112c                vTaskEndScheduler
                0x9d0011a4                vTaskSuspendAll
                0x9d0011d0                xTaskResumeAll
                0x9d00139c                xTaskGetTickCount
                0x9d0013e0                xTaskGetTickCountFromISR
                0x9d001458                uxTaskGetNumberOfTasks
                0x9d00147c                xTaskIncrementTick
                0x9d0016d8                vTaskSwitchContext
                0x9d00185c                vTaskPlaceOnEventList
                0x9d001950                vTaskPlaceOnUnorderedEventList
                0x9d001a7c                xTaskRemoveFromEventList
                0x9d001bc0                xTaskRemoveFromUnorderedEventList
                0x9d001d00                vTaskSetTimeOutState
                0x9d001d64                xTaskCheckForTimeOut
                0x9d001eb4                vTaskMissedYield
                0x9d00240c                uxTaskGetStackHighWaterMark
                0x9d002538                xTaskGetCurrentTaskHandle
                0x9d002564                vTaskPriorityInherit
                0x9d002714                vTaskPriorityDisinherit
                0x9d002860                vTaskEnterCritical
                0x9d0028e0                vTaskExitCritical
                0x9d002964                uxTaskResetEventItemValue
 .text          0x9d0029ac     0x1e04 build/default/production/src/scpi-parser/libscpi/src/parser.o
                0x9d002bb1                SCPI_Parse
                0x9d002cc9                SCPI_Init
                0x9d002d39                SCPI_Input
                0x9d002e81                SCPI_ResultCharacters
                0x9d00301d                SCPI_ResultInt32
                0x9d003039                SCPI_ResultUInt32Base
                0x9d003059                SCPI_ResultInt64
                0x9d003081                SCPI_ResultUInt64Base
                0x9d0030ad                SCPI_ResultFloat
                0x9d003101                SCPI_ResultDouble
                0x9d003159                SCPI_ResultText
                0x9d003221                SCPI_ResultArbitraryBlockHeader
                0x9d003275                SCPI_ResultArbitraryBlockData
                0x9d0032d5                SCPI_ResultArbitraryBlock
                0x9d00330d                SCPI_ResultBool
                0x9d00334d                SCPI_Parameter
                0x9d003441                SCPI_ParamIsNumber
                0x9d003665                SCPI_ParamToInt32
                0x9d003681                SCPI_ParamToUInt32
                0x9d00369d                SCPI_ParamToInt64
                0x9d0036b9                SCPI_ParamToUInt64
                0x9d0036d5                SCPI_ParamToFloat
                0x9d003755                SCPI_ParamToDouble
                0x9d0037d9                SCPI_ParamFloat
                0x9d003869                SCPI_ParamDouble
                0x9d003a31                SCPI_ParamInt32
                0x9d003a51                SCPI_ParamUInt32
                0x9d003a71                SCPI_ParamInt64
                0x9d003a91                SCPI_ParamUInt64
                0x9d003ab1                SCPI_ParamCharacters
                0x9d003b25                SCPI_ParamArbitraryBlock
                0x9d003b95                SCPI_ParamCopyText
                0x9d003c81                SCPI_ParamToChoice
                0x9d003d41                SCPI_ChoiceToName
                0x9d003d89                SCPI_ParamBool
                0x9d003e39                SCPI_ParamChoice
                0x9d003e91                scpiParser_parseProgramData
                0x9d003f89                scpiParser_parseAllProgramData
                0x9d004049                scpiParser_detectProgramMessageUnit
                0x9d004169                SCPI_IsCmd
                0x9d0041a5                SCPI_CmdTag
                0x9d0041c1                SCPI_Match
                0x9d0041e5                SCPI_CommandNumbers
                0x9d004211                SCPI_ParamIsValid
                0x9d004231                SCPI_ParamErrorOccurred
                0x9d0043f1                SCPI_ResultArrayInt8
                0x9d00444d                SCPI_ResultArrayUInt8
                0x9d0044ad                SCPI_ResultArrayInt16
                0x9d00450d                SCPI_ResultArrayUInt16
                0x9d00456d                SCPI_ResultArrayInt32
                0x9d0045cd                SCPI_ResultArrayUInt32
                0x9d00462d                SCPI_ResultArrayInt64
                0x9d00468d                SCPI_ResultArrayUInt64
                0x9d0046f1                SCPI_ResultArrayFloat
                0x9d004751                SCPI_ResultArrayDouble
 .text          0x9d0047b0     0x15d0 build/default/production/src/scpi-parser/libscpi/src/utils.o
                0x9d0047b1                strnpbrk
                0x9d004819                UInt32ToStrBaseSign
                0x9d004995                SCPI_Int32ToStr
                0x9d0049b5                SCPI_UInt32ToStrBase
                0x9d0049d9                UInt64ToStrBaseSign
                0x9d004bf9                SCPI_Int64ToStr
                0x9d004c25                SCPI_UInt64ToStrBase
                0x9d004c55                SCPI_FloatToStr
                0x9d004c81                SCPI_DoubleToStr
                0x9d004cad                strBaseToInt32
                0x9d004cdd                strBaseToUInt32
                0x9d004d0d                strBaseToInt64
                0x9d004d3d                strBaseToUInt64
                0x9d004d6d                strToFloat
                0x9d004d95                strToDouble
                0x9d004dbd                compareStr
                0x9d004ded                compareStrAndNum
                0x9d004e99                skipWhitespace
                0x9d004f9d                matchPattern
                0x9d005041                matchCommand
                0x9d0053f1                composeCompoundCommand
                0x9d0054b1                BSD_strnlen
                0x9d0057b1                SCPI_dtostre
                0x9d005b49                SCPI_GetNativeFormat
                0x9d005b6d                SCPI_Swap16
                0x9d005b91                SCPI_Swap32
                0x9d005bc5                SCPI_Swap64

.text._vfprintf_cdfFgGnopsuxX
                0x9d005d80     0x1388
 .text._vfprintf_cdfFgGnopsuxX
                0x9d005d80     0x1388 /opt/microchip/xc32/v1.31/bin/../lib/gcc/pic32mx/4.5.2/../../../../pic32mx/lib/mips16/libc.a(doprnt_cdfFgGnopsuxX.eo)
                0x9d005d81                _vfprintf_gG
                0x9d005d81                _vfprintf_fFs
                0x9d005d81                _vfprintf_s
                0x9d005d81                _vfprintf_0
                0x9d005d81                _vfprintf_cdfFnopsuxX
                0x9d005d81                _vfprintf_cdfFgGnopsuxX

.text           0x9d007108     0x4c5c
 .text          0x9d007108     0x1230 build/default/production/src/utils/src/fitlinear.o
                0x9d007109                fit_linear
                0x9d007149                gsl_fit_linear
                0x9d007581                gsl_fit_wlinear
                0x9d007a31                gsl_fit_linear_est
                0x9d007ab5                gsl_fit_mul
                0x9d007e79                gsl_fit_wmul
                0x9d0082e1                gsl_fit_mul_est
 .text          0x9d008338     0x1128 /opt/microchip/xc32/v1.31/bin/../lib/gcc/pic32mx/4.5.2/../../../../pic32mx/lib/mips16/libm.a(dp32.o)
                0x9d008338                dpsub
                0x9d008338                __subdf3
                0x9d008340                __adddf3
                0x9d008340                dpadd
                0x9d008764                dpmul
                0x9d008764                __muldf3
                0x9d008a8c                dpdiv
                0x9d008a8c                __divdf3
                0x9d008f40                __floatsidf
                0x9d008f40                litodp
                0x9d008fb4                ultodp
                0x9d009004                __extendsfdf2
                0x9d009004                fptodp
                0x9d0090a8                dptofp
                0x9d0090a8                __truncdfsf2
                0x9d0091a0                __fixdfsi
                0x9d0091a0                dptoli
                0x9d009228                __fixunsdfsi
                0x9d009228                dptoul
                0x9d0092ac                __eqdf2
                0x9d0092ac                __gtdf2
                0x9d0092ac                __ltdf2
                0x9d0092ac                dpcmp
                0x9d0092ac                __ledf2
                0x9d0092ac                __nedf2
                0x9d0092ac                __gedf2
                0x9d0093d0                __negdf2
                0x9d0093e8                fabs
                0x9d0093e8                dpfabs
                0x9d009404                nan
                0x9d009404                dpnan
 .text          0x9d009460     0x108c build/default/production/src/scpi-parser/libscpi/src/lexer.o
                0x9d009525                scpiLex_IsEos
                0x9d0098d9                scpiLex_WhiteSpace
                0x9d0099e5                scpiLex_ProgramHeader
                0x9d009ab5                scpiLex_CharacterProgramData
                0x9d009bf9                scpiLex_DecimalNumericProgramData
                0x9d009c6d                scpiLex_SuffixProgramData
                0x9d009dcd                scpiLex_NondecimalNumericData
                0x9d009fa5                scpiLex_StringProgramData
                0x9d00a0f1                scpiLex_ArbitraryBlockProgramData
                0x9d00a2e5                scpiLex_ProgramExpression
                0x9d00a385                scpiLex_Comma
                0x9d00a3c5                scpiLex_Semicolon
                0x9d00a405                scpiLex_Colon
                0x9d00a445                scpiLex_SpecificCharacter
                0x9d00a489                scpiLex_NewLine
 .text          0x9d00a4ec      0xcc4 build/default/production/src/FreeRTOS/queue.o
                0x9d00a4ed                xQueueGenericReset
                0x9d00a5d9                xQueueGenericCreate
                0x9d00a659                xQueueCreateMutex
                0x9d00a6e5                xQueueGiveMutexRecursive
                0x9d00a741                xQueueTakeMutexRecursive
                0x9d00a7a9                xQueueGenericSend
                0x9d00a991                xQueueGenericSendFromISR
                0x9d00aa99                xQueueGenericReceive
                0x9d00ace5                xQueueReceiveFromISR
                0x9d00adc1                xQueuePeekFromISR
                0x9d00ae71                uxQueueMessagesWaiting
                0x9d00aea5                uxQueueSpacesAvailable
                0x9d00aee1                uxQueueMessagesWaitingFromISR
                0x9d00af09                vQueueDelete
                0x9d00b115                xQueueIsQueueEmptyFromISR
                0x9d00b179                xQueueIsQueueFullFromISR
 .text          0x9d00b1b0      0xbb4 build/default/production/src/hal/isrWrappers.o
                0x9d00b1b0                hal_uart1_isr_wrapper
                0x9d00b35c                hal_uart2_isr_wrapper
                0x9d00b508                hal_uart3_isr_wrapper
                0x9d00b6b4                hal_uart4_isr_wrapper
                0x9d00b860                hal_uart5_isr_wrapper
                0x9d00ba0c                OC3_wrapper
                0x9d00bbb8                CT_wrapper

.text           0x9d00bd68     0x1b3c
 .text          0x9d00bd68      0x9e0 build/default/production/src/sys/src/settings.o
                0x9d00bda5                settings_init
                0x9d00be19                settings_save
                0x9d00bea5                settings_get_resolution
                0x9d00bec9                settings_set_resolution
                0x9d00bf25                settings_restore
                0x9d00bfad                settings_get_integration_period
                0x9d00bfe5                settings_get_input
                0x9d00c009                settings_get_range
                0x9d00c02d                settings_get_channel
                0x9d00c05d                settings_set_input
                0x9d00c089                settings_range_up
                0x9d00c111                settings_range_down
                0x9d00c199                calibration_gain
                0x9d00c1c1                calibration_offset
                0x9d00c1e9                calibration_temp
                0x9d00c211                settings_is_autorange
                0x9d00c251                settings_set_autorange
                0x9d00c281                settings_set_range
                0x9d00c2d9                calibration_save
                0x9d00c351                calibration_restore
                0x9d00c6fd                calibration_get_default
 .text          0x9d00c748      0x8ec /opt/microchip/xc32/v1.31/bin/../lib/gcc/pic32mx/4.5.2/../../../../pic32mx/lib/mips16/libm.a(fp32.o)
                0x9d00c748                __subsf3
                0x9d00c748                fpsub
                0x9d00c750                fpadd
                0x9d00c750                __addsf3
                0x9d00c9bc                __mulsf3
                0x9d00c9bc                fpmul
                0x9d00cb74                __divsf3
                0x9d00cb74                fpdiv
                0x9d00cda0                sitofp
                0x9d00cda0                __floatsisf
                0x9d00cda0                litofp
                0x9d00cdfc                uitofp
                0x9d00cdfc                ultofp
                0x9d00ce48                __fixsfsi
                0x9d00ce48                fptoli
                0x9d00ce48                fptosi
                0x9d00cec0                fptoui
                0x9d00cec0                __fixunssfsi
                0x9d00cec0                fptoul
                0x9d00cf34                __lesf2
                0x9d00cf34                __nesf2
                0x9d00cf34                __gtsf2
                0x9d00cf34                __eqsf2
                0x9d00cf34                __ltsf2
                0x9d00cf34                fpcmp
                0x9d00cf34                __gesf2
                0x9d00cfc8                fabsf
                0x9d00cfc8                fpfabs
                0x9d00cfd8                __negsf2
                0x9d00cfe8                fpnan
                0x9d00cfe8                nanf
 .text          0x9d00d034      0x870 build/default/production/src/hal/hal_uart.o
                0x9d00d0e5                hal_uart_send_buffer_async
                0x9d00d1b1                hal_uart_send_async
                0x9d00d271                hal_uart_get_tx_buffer
                0x9d00d291                hal_uart_sendbreak
                0x9d00d2c1                hal_uart_transmission_has_completed
                0x9d00d305                hal_uart_send_byte
                0x9d00d3d9                hal_uart_open
                0x9d00d479                hal_uart_disable_interrupts
                0x9d00d4b9                hal_uart_interrupt_handler
                0x9d00d81d                hal_uart1_isr_handler
                0x9d00d82d                hal_uart2_isr_handler
                0x9d00d83d                hal_uart3_isr_handler
                0x9d00d84d                hal_uart4_isr_handler
                0x9d00d85d                hal_uart5_isr_handler
                0x9d00d86d                hal_uart_register_data_received
                0x9d00d889                hal_uart_register_buffer_sent

.text           0x9d00d8a8      0x7f0
 .text          0x9d00d8a8      0x7f0 build/default/production/src/utils/src/disfmt.o
                0x9d00d8a9                fmt_format_string
                0x9d00da89                fmt_append_scale
                0x9d00dc7d                fmt_get_refval

.dinit          0x9d00e098      0x730
 .dinit         0x9d00e098      0x730 data_init

.text           0x9d00e7c8      0x6ac
 .text          0x9d00e7c8      0x6ac build/default/production/src/drivers/dispkyb.o
                0x9d00e7c9                display_wait_for_key
                0x9d00e7ed                display_kyb_init
                0x9d00e825                display_evt_clear
                0x9d00e859                display_highlight
                0x9d00e899                display_setmode
                0x9d00e8bd                display_clearmode
                0x9d00e8e5                display_puts
                0x9d00e955                display_adc_indicator
                0x9d00e9a1                hal_disp_adci_toggle
                0x9d00e9f1                display_clear
                0x9d00ea49                display_putc
                0x9d00eaf5                display_test

.text           0x9d00ee78     0x1264
 .text          0x9d00ee78      0x668 build/default/production/src/hal/hal_adc.o
                0x9d00ee79                hal_adc_send_mux
                0x9d00eea5                hal_adc_integration_sequence
                0x9d00ef55                hal_adc_set_integration_period
                0x9d00f12d                hal_adc_init
                0x9d00f341                OC3_handler
 .text          0x9d00f4e0      0x608 build/default/production/src/drivers/adc.o
                0x9d00f4e1                adc_read_value
                0x9d00f7a9                adc_get_max
                0x9d00f7d1                adc_get_input
                0x9d00f7e1                adc_get_range
                0x9d00f7f1                adc_set_range
                0x9d00f821                adc_set_input
                0x9d00f855                adc_set_integration_period
                0x9d00f86d                adc_init
 .text          0x9d00fae8      0x5f4 build/default/production/src/tasks/tskmgr.o
                0x9d00fae9                taskmgr_start

.rodata         0x9d0100dc      0x5dc
 .rodata        0x9d0100dc      0x5dc /opt/microchip/xc32/v1.31/bin/../lib/gcc/pic32mx/4.5.2/../../../../pic32mx/lib/mips16/libmchp_peripheral_32MX350F256L.a(int_tbl_lib.o)
                0x9d0100dc                __IntSrcTbl
                0x9d01049c                __IntVectorTbl

.text           0x9d0106b8     0x2668
 .text          0x9d0106b8      0x5d8 /opt/microchip/xc32/v1.31/bin/../lib/gcc/pic32mx/4.5.2/../../../../pic32mx/lib/mips16/libm.a(log32.o)
                0x9d0106b8                exlog
                0x9d0109a0                dplog
                0x9d0109a0                __mchp_log
                0x9d010afc                dplog10
                0x9d010afc                __mchp_log10
 .text          0x9d010c90      0x5d4 /opt/microchip/xc32/v1.31/bin/../lib/gcc/pic32mx/4.5.2/../../../../pic32mx/lib/mips16/libm.a(func32.o)
                0x9d010c90                sigmax
                0x9d010d98                exmul
                0x9d010e64                exadd
                0x9d010f50                exsub
                0x9d011000                exdiv
 .text          0x9d011264      0x5c8 /opt/microchip/xc32/v1.31/bin/../lib/gcc/pic32mx/4.5.2/../../../../pic32mx/lib/mips16/libm.a(mod32.o)
                0x9d011264                dpfmod
                0x9d011264                fmod
                0x9d011504                dpfrexp
                0x9d011504                frexp
                0x9d0115a8                __mchp_ldexp
                0x9d0115a8                dpldexp
                0x9d011710                modf
                0x9d011710                dpmodf
 .text          0x9d01182c      0x5bc /opt/microchip/xc32/v1.31/bin/../lib/gcc/pic32mx/4.5.2/../../../../pic32mx/lib/mips16/libm.a(sqrt32.o)
                0x9d01182c                exsqrt
                0x9d011ac4                __mchp_sqrt
                0x9d011ac4                dpsqrt
 .text          0x9d011de8      0x538 build/default/production/src/utils/src/strutils.o
                0x9d011e39                utils_dtofixstr
                0x9d011ff5                utils_dtostr
                0x9d0120ed                utils_strtod
                0x9d012105                dtostre
 .text          0x9d012320      0x520 /opt/microchip/xc32/v1.31/bin/../lib/gcc/pic32mx/4.5.2/../../../../pic32mx/lib/mips16/libm.a(pow32.o)
                0x9d012320                __mchp_pow
                0x9d012320                dppow
 .text          0x9d012840      0x4e0 build/default/production/src/scpi-parser/libscpi/src/ieee488.o
                0x9d0128ad                SCPI_RegGet
                0x9d01290d                SCPI_RegSet
                0x9d012a6d                SCPI_RegSetBits
                0x9d012a9d                SCPI_RegClearBits
                0x9d012ad5                SCPI_EventClear
                0x9d012aed                SCPI_CoreCls
                0x9d012b25                SCPI_CoreEse
                0x9d012b59                SCPI_CoreEseQ
                0x9d012b7d                SCPI_CoreEsrQ
                0x9d012bad                SCPI_CoreIdnQ
                0x9d012c19                SCPI_CoreOpc
                0x9d012c35                SCPI_CoreOpcQ
                0x9d012c4d                SCPI_CoreRst
                0x9d012c7d                SCPI_CoreSre
                0x9d012cb1                SCPI_CoreSreQ
                0x9d012cd5                SCPI_CoreStbQ
                0x9d012cf9                SCPI_CoreTstQ
                0x9d012d11                SCPI_CoreWai

.rodata         0x9d012d20      0x4c4
 .rodata        0x9d012d20      0x4c4 build/default/production/src/tasks/task_scpi.o

.text           0x9d0131e4      0x8c8
 .text          0x9d0131e4      0x474 build/default/production/src/hal/hal_io.o
                0x9d0131e5                hal_io_get_segment
                0x9d013201                hal_io_init
                0x9d0132b9                hal_io_displayport_write
                0x9d0132dd                hal_io_keyboard_get_channel
                0x9d013319                hal_io_displayport_map_char_to_segments
                0x9d013551                hal_io_toggle_led
                0x9d013591                hal_io_set_led
                0x9d0135d1                hal_io_clear_led
                0x9d013611                hal_io_set_debugpin
                0x9d013629                hal_io_clear_debugpin
                0x9d013641                hal_io_toggle_debugpin
 .text          0x9d013658      0x454 build/default/production/src/FreeRTOS/portable/MPLAB/PIC32MX/port_asm.o
                0x9d013658                vPortTickInterruptHandler
                0x9d013804                vPortStartFirstTask
                0x9d0138cc                vPortYieldISR

.rodata         0x9d013aac      0x410
 .rodata        0x9d013aac      0x410 build/default/production/src/drivers/adcctrl.o

.text           0x9d013ec0      0x820
 .text          0x9d013ec0      0x410 build/default/production/src/scpi-parser/libscpi/src/units.o
                0x9d014019                SCPI_ParamNumber
                0x9d014209                SCPI_NumberToStr
 .text          0x9d0142d0      0x410 build/default/production/src/utils/fcvt-1.1/fcvt.o
                0x9d014681                e_cvt
                0x9d0146b1                f_cvt

.rodata         0x9d0146e0      0x400
 .rodata        0x9d0146e0      0x400 build/default/production/src/eefs/crc32.o

.text           0x9d014ae0      0xf54
 .text          0x9d014ae0      0x3dc build/default/production/src/drivers/adcctrl.o
                0x9d014ae1                adcctrl_get_sequence_id
                0x9d014ba5                adcctrl_get_sequence
                0x9d014ded                adcctrl_get_next_sequence
                0x9d014e31                adcctrl_reset
                0x9d014e45                adcctrl_get_next_range
                0x9d014e81                adcctrl_get_previous_range
 .text          0x9d014ebc      0x3dc /opt/microchip/xc32/v1.31/bin/../lib/gcc/pic32mx/4.5.2/../../../../pic32mx/lib/mips16/libm.a(fpmod32.o)
                0x9d014ebc                fmodf
                0x9d014ebc                fpfmod
                0x9d015000                fpfrexp
                0x9d015000                frexpf
                0x9d015084                fpldexp
                0x9d015084                __mchp_ldexpf
                0x9d0151c8                modff
                0x9d0151c8                fpmodf
 .text          0x9d015298      0x3d0 build/default/production/src/tasks/task_scpi.o
                0x9d015299                SCPI_Write
                0x9d0155ed                scpi_task
 .text          0x9d015668      0x3cc build/default/production/src/hal/hal_i2c.o
                0x9d015669                hal_eeprom_reset
                0x9d015739                hal_i2c_init
                0x9d015775                hal_i2c_stop
                0x9d015795                start_transfer
                0x9d0157d9                send_byte
                0x9d015815                hal_i2c_start
                0x9d01588d                hal_i2c_rep_start
                0x9d015905                hal_i2c_start_wait
                0x9d015981                hal_i2c_write
                0x9d0159a5                hal_i2c_readAck
                0x9d0159ed                hal_i2c_readNak

.text           0x9d015a38     0x1ac4
 .text          0x9d015a38      0x3b0 build/default/production/src/tasks/task_calibration.o
 .text          0x9d015de8      0x370 /opt/microchip/xc32/v1.31/bin/../lib/gcc/pic32mx/4.5.2/mips16/libgcc.a(_udivdi3.o)
                0x9d015de9                __udivdi3
 .text          0x9d016158      0x370 /opt/microchip/xc32/v1.31/bin/../lib/gcc/pic32mx/4.5.2/mips16/libgcc.a(_umoddi3.o)
                0x9d016159                __umoddi3
 .text          0x9d0164c8      0x360 build/default/production/src/sys/src/system.o
                0x9d0165b9                system_set_configuration
                0x9d016611                system_read_temp
                0x9d016651                system_get_max
                0x9d016665                system_read_input
                0x9d0167c9                system_init
 .text          0x9d016828      0x34c build/default/production/src/FreeRTOS/portable/MemMang/heap_4.o
                0x9d016829                pvPortMalloc
                0x9d016955                vPortFree
                0x9d0169f1                xPortGetFreeHeapSize
                0x9d016a01                xPortGetMinimumEverFreeHeapSize
                0x9d016a11                vPortInitialiseBlocks
 .text          0x9d016b74      0x340 /opt/microchip/xc32/v1.31/bin/../lib/gcc/pic32mx/4.5.2/../../../../pic32mx/lib/mips16/libm.a(exp32.o)
                0x9d016b74                exexp
                0x9d016d58                dpexp
                0x9d016d58                __mchp_exp
 .text          0x9d016eb4      0x334 build/default/production/src/scpi-parser/libscpi/src/error.o
                0x9d016eb5                SCPI_ErrorInit
                0x9d016f61                SCPI_ErrorClear
                0x9d016f81                SCPI_ErrorPop
                0x9d016fa9                SCPI_ErrorCount
                0x9d017019                SCPI_ErrorPush
                0x9d0170d1                SCPI_ErrorTranslate
 .text          0x9d0171e8      0x314 build/default/production/src/FreeRTOS/portable/MPLAB/PIC32MX/port.o
                0x9d0171e9                pxPortInitialiseStack
                0x9d0172e1                vApplicationSetupTickTimerInterrupt
                0x9d017359                vPortEndScheduler
                0x9d017381                xPortStartScheduler
                0x9d0173f1                vPortIncrementTick
                0x9d017469                uxPortSetInterruptMaskFromISR
                0x9d0174d5                vPortClearInterruptMaskFromISR

.rodata         0x9d017500      0x280
 .rodata        0x9d017500      0x280 build/default/production/src/scpi-parser/libscpi/src/units.o
                0x9d017568                scpi_units_def
                0x9d01772c                scpi_special_numbers_def

.text.__strtod  0x9d017780      0x280
 .text.__strtod
                0x9d017780      0x280 /opt/microchip/xc32/v1.31/bin/../lib/gcc/pic32mx/4.5.2/../../../../pic32mx/lib/mips16/libe.a(_strtod.o)
                0x9d017781                __strtod

.text           0x9d017a00      0x498
 .text          0x9d017a00      0x258 build/default/production/src/tasks/task_multimeter.o
 .text          0x9d017c58      0x240 build/default/production/src/eefs/eefs.o
                0x9d017db9                eefs_object_save
                0x9d017e2d                eefs_object_restore

.text.__strtof  0x9d017e98      0x234
 .text.__strtof
                0x9d017e98      0x234 /opt/microchip/xc32/v1.31/bin/../lib/gcc/pic32mx/4.5.2/../../../../pic32mx/lib/mips16/libe.a(_strtof.o)
                0x9d017e99                __strtof

.text           0x9d0180cc      0x534
 .text          0x9d0180cc      0x1e0 build/default/production/src/hal/hal_sys.o
                0x9d0180cd                hal_sys_init
                0x9d01827d                hal_sys_idle
                0x9d01828c                _DefaultInterrupt
 .text          0x9d0182ac      0x1c0 build/default/production/src/scpi-parser/libscpi/src/fifo.o
                0x9d0182ad                fifo_init
                0x9d0182dd                fifo_clear
                0x9d0182fd                fifo_is_empty
                0x9d018315                fifo_is_full
                0x9d018331                fifo_add
                0x9d01838d                fifo_remove
                0x9d0183ed                fifo_remove_last
                0x9d018455                fifo_count
 .text          0x9d01846c      0x194 build/default/production/src/drivers/eeprom.o
                0x9d01846d                eeprom_reset
                0x9d01847d                eeprom_read_page
                0x9d0184f5                eeprom_write_page
                0x9d018565                eeprom_read_byte
                0x9d0185a9                eeprom_write_byte

.text.strtoull  0x9d018600      0x17c
 .text.strtoull
                0x9d018600      0x17c /opt/microchip/xc32/v1.31/bin/../lib/gcc/pic32mx/4.5.2/../../../../pic32mx/lib/mips16/libc.a(strtoll.o)
                0x9d018601                strtoull

.rodata         0x9d01877c      0x178
 .rodata        0x9d01877c      0x178 build/default/production/src/scpi-parser/libscpi/src/error.o

.text           0x9d0188f4      0x528
 .text          0x9d0188f4      0x168 build/default/production/src/utils/src/util_ringbuff.o
                0x9d0188f5                util_ringbuffer_new
                0x9d018965                util_ringbuffer_put
                0x9d0189c5                util_ringbuffer_get
                0x9d018a29                utils_blocking_delay_ms
 .text          0x9d018a5c      0x140 build/default/production/src/drivers/usb_uart.o
                0x9d018a5d                usb_uart_init
                0x9d018a8d                _mon_putc
                0x9d018b0d                usb_uart_readline
 .text          0x9d018b9c      0x140 build/default/production/src/FreeRTOS/list.o
                0x9d018b9d                vListInitialise
                0x9d018bd5                vListInitialiseItem
                0x9d018be9                vListInsertEnd
                0x9d018c29                vListInsert
                0x9d018c91                uxListRemove
 .text          0x9d018cdc      0x140 build/default/production/src/scpi-parser/libscpi/src/minimal.o
                0x9d018cdd                SCPI_Stub
                0x9d018ced                SCPI_StubQ
                0x9d018d05                SCPI_SystemVersionQ
                0x9d018d25                SCPI_SystemErrorNextQ
                0x9d018d5d                SCPI_SystemErrorCountQ
                0x9d018d7d                SCPI_StatusQuestionableEventQ
                0x9d018dad                SCPI_StatusQuestionableEnableQ
                0x9d018dd1                SCPI_StatusQuestionableEnable
                0x9d018e01                SCPI_StatusPreset

.text.PowerSaveIdle
                0x9d018e1c      0x10c
 .text.PowerSaveIdle
                0x9d018e1c      0x10c /opt/microchip/xc32/v1.31/bin/../lib/gcc/pic32mx/4.5.2/../../../../pic32mx/lib/mips16/libmchp_peripheral_32MX350F256L.a(power_idle_lib.o)
                0x9d018e1c                PowerSaveIdle

.rodata         0x9d018f28      0x204
 .rodata        0x9d018f28      0x104 /opt/microchip/xc32/v1.31/bin/../lib/gcc/pic32mx/4.5.2/../../../../pic32mx/lib/mips16/libc.a(ctype.o)
                0x9d018f28                _ctype
 .rodata        0x9d01902c      0x100 /opt/microchip/xc32/v1.31/bin/../lib/gcc/pic32mx/4.5.2/mips16/libgcc.a(_clz.o)
                0x9d01902c                __clz_tab

.text           0x9d01912c       0xfc
 .text          0x9d01912c       0xfc /opt/microchip/xc32/v1.31/bin/../lib/gcc/pic32mx/4.5.2/../../../../pic32mx/lib/mips16/libm.a(ceil32.o)
                0x9d01912c                ceil
                0x9d01912c                dpceil

.text.fwrite    0x9d019228       0xfc
 .text.fwrite   0x9d019228       0xfc /opt/microchip/xc32/v1.31/bin/../lib/gcc/pic32mx/4.5.2/../../../../pic32mx/lib/mips16/libc.a(fwrite.o)
                0x9d019229                fwrite

.text.strtoul   0x9d019324       0xfc
 .text.strtoul  0x9d019324       0xfc /opt/microchip/xc32/v1.31/bin/../lib/gcc/pic32mx/4.5.2/../../../../pic32mx/lib/mips16/libc.a(strtol.o)
                0x9d019325                strtoul

.text.__floatdisf
                0x9d019420       0xf4
 .text.__floatdisf
                0x9d019420       0xf4 /opt/microchip/xc32/v1.31/bin/../lib/gcc/pic32mx/4.5.2/../../../../pic32mx/lib/mips16/libe.a(_floatdisf.o)
                0x9d019421                __floatdisf

.text           0x9d019518       0xf0
 .text          0x9d019518       0xf0 build/default/production/src/drivers/tmp275.o
                0x9d019519                tmp245_init
                0x9d019565                tmp245_read_temp
                0x9d0195d9                tmp245_read_temp_double

.text.scale     0x9d019608       0xe8
 .text.scale    0x9d019608       0xe8 /opt/microchip/xc32/v1.31/bin/../lib/gcc/pic32mx/4.5.2/../../../../pic32mx/lib/mips16/libc.a(doprnt_cdfFgGnopsuxX.eo)

.text.strtoll   0x9d0196f0       0xe0
 .text.strtoll  0x9d0196f0       0xe0 /opt/microchip/xc32/v1.31/bin/../lib/gcc/pic32mx/4.5.2/../../../../pic32mx/lib/mips16/libc.a(strtoll.o)
                0x9d0196f1                strtoll

.text.general_exception
                0x9d0197d0       0xdc
 .text.general_exception
                0x9d0197d0       0xdc /opt/microchip/xc32/v1.31/bin/../lib/gcc/pic32mx/4.5.2/../../../../pic32mx/lib/mips16/libpic32.a(general-exception.o)
                0x9d0197d0                _general_exception_context

.text.ieee754dp_format
                0x9d0198ac       0xd8
 .text.ieee754dp_format
                0x9d0198ac       0xd8 /opt/microchip/xc32/v1.31/bin/../lib/gcc/pic32mx/4.5.2/../../../../pic32mx/lib/mips16/libe.a(_ldexp.o)

.text           0x9d019988       0xd0
 .text          0x9d019988       0xd0 /opt/microchip/xc32/v1.31/bin/../lib/gcc/pic32mx/4.5.2/mips16/libgcc.a(_floatundidf.o)
                0x9d019989                __floatundidf

.text.pow       0x9d019a58       0xd0
 .text.pow      0x9d019a58       0xd0 /opt/microchip/xc32/v1.31/bin/../lib/gcc/pic32mx/4.5.2/../../../../pic32mx/lib/mips16/libm.a(w_pow.o)
                0x9d019a59                pow

.rodata         0x9d019b28       0xd0
 .rodata        0x9d019b28       0xd0 /opt/microchip/xc32/v1.31/bin/../lib/gcc/pic32mx/4.5.2/../../../../pic32mx/lib/mips16/libc.a(doprnt_cdfFgGnopsuxX.eo)

.text.fputc     0x9d019bf8       0xc4
 .text.fputc    0x9d019bf8       0xc4 /opt/microchip/xc32/v1.31/bin/../lib/gcc/pic32mx/4.5.2/../../../../pic32mx/lib/mips16/libc.a(_fputc_simple.o)
                0x9d019bf9                fputc

.text.fseek     0x9d019cbc       0xc0
 .text.fseek    0x9d019cbc       0xc0 /opt/microchip/xc32/v1.31/bin/../lib/gcc/pic32mx/4.5.2/../../../../pic32mx/lib/mips16/libc.a(fseek.o)
                0x9d019cbd                fseek

.text           0x9d019d7c       0xb8
 .text          0x9d019d7c       0xb8 /opt/microchip/xc32/v1.31/bin/../lib/gcc/pic32mx/4.5.2/mips16/libgcc.a(_floatundisf.o)
                0x9d019d7d                __floatundisf

.text.strtol    0x9d019e34       0xb0
 .text.strtol   0x9d019e34       0xb0 /opt/microchip/xc32/v1.31/bin/../lib/gcc/pic32mx/4.5.2/../../../../pic32mx/lib/mips16/libc.a(strtol.o)
                0x9d019e35                strtol

.text._flsbuf   0x9d019ee4       0xb0
 .text._flsbuf  0x9d019ee4       0xb0 /opt/microchip/xc32/v1.31/bin/../lib/gcc/pic32mx/4.5.2/../../../../pic32mx/lib/mips16/libc.a(_flsbuf_simple.o)
                0x9d019ee5                _flsbuf

.text.fround    0x9d019f94       0xb0
 .text.fround   0x9d019f94       0xb0 /opt/microchip/xc32/v1.31/bin/../lib/gcc/pic32mx/4.5.2/../../../../pic32mx/lib/mips16/libc.a(doprnt_cdfFgGnopsuxX.eo)

.text           0x9d01a044       0x90
 .text          0x9d01a044       0x90 build/default/production/src/hal/hal_timer.o
                0x9d01a045                hal_timer_init
                0x9d01a0ad                CT_handler

.text.rintl     0x9d01a0d8       0x90
 .text.rintl    0x9d01a0d8       0x90 /opt/microchip/xc32/v1.31/bin/../lib/gcc/pic32mx/4.5.2/../../../../pic32mx/lib/mips16/libm.a(floor.o)
                0x9d01a0d9                rintl

.rodata         0x9d01a168       0x8c
 .rodata        0x9d01a168       0x8c build/default/production/src/tasks/tskmgr.o

.text.ieee754sp_format
                0x9d01a1f4      0x108
 .text.ieee754sp_format
                0x9d01a1f4       0x84 /opt/microchip/xc32/v1.31/bin/../lib/gcc/pic32mx/4.5.2/../../../../pic32mx/lib/mips16/libe.a(_floatdisf.o)
 .text.ieee754sp_format
                0x9d01a278       0x84 /opt/microchip/xc32/v1.31/bin/../lib/gcc/pic32mx/4.5.2/../../../../pic32mx/lib/mips16/libe.a(_ldexpf.o)

.text.log10     0x9d01a300       0x80
 .text.log10    0x9d01a300       0x80 /opt/microchip/xc32/v1.31/bin/../lib/gcc/pic32mx/4.5.2/../../../../pic32mx/lib/mips16/libm.a(w_log10.o)
                0x9d01a301                log10

.text.__ldexp   0x9d01a380       0x6c
 .text.__ldexp  0x9d01a380       0x6c /opt/microchip/xc32/v1.31/bin/../lib/gcc/pic32mx/4.5.2/../../../../pic32mx/lib/mips16/libe.a(_ldexp.o)
                0x9d01a381                __ldexp

.rodata         0x9d01a3ec       0x68
 .rodata        0x9d01a3ec       0x68 /opt/microchip/xc32/v1.31/bin/../lib/gcc/pic32mx/4.5.2/../../../../pic32mx/lib/mips16/libc.a(powersf.o)
                0x9d01a3ec                _powers_f
                0x9d01a420                _npowers_f

.text.fflush    0x9d01a454       0x60
 .text.fflush   0x9d01a454       0x60 /opt/microchip/xc32/v1.31/bin/../lib/gcc/pic32mx/4.5.2/../../../../pic32mx/lib/mips16/libc.a(fflush.o)
                0x9d01a455                fflush

.text           0x9d01a4b4       0x58
 .text          0x9d01a4b4       0x58 build/default/production/src/eefs/crc32.o
                0x9d01a4b5                crc32

.rodata         0x9d01a50c       0xa4
 .rodata        0x9d01a50c       0x54 /opt/microchip/xc32/v1.31/bin/../lib/gcc/pic32mx/4.5.2/../../../../pic32mx/lib/mips16/libmchp_peripheral_32MX350F256L.a(_ports_tbl_libp.o)
                0x9d01a50c                PortRegTbl
 .rodata        0x9d01a560       0x50 build/default/production/src/utils/src/disfmt.o

.text.main_entry
                0x9d01a5b0       0x4c
 .text.main_entry
                0x9d01a5b0       0x4c /opt/microchip/xc32/v1.31/bin/../lib/gcc/pic32mx/4.5.2/../../../../pic32mx/lib/./proc/32MX350F256L/crt0_mips32r2.o
                0x9d01a5dc                __crt0_exit

.text.UARTEnable
                0x9d01a5fc       0x4c
 .text.UARTEnable
                0x9d01a5fc       0x4c /opt/microchip/xc32/v1.31/bin/../lib/gcc/pic32mx/4.5.2/../../../../pic32mx/lib/mips16/libmchp_peripheral_32MX350F256L.a(uart_lib.o)
                0x9d01a5fd                UARTEnable

.text           0x9d01a648       0x48
 .text          0x9d01a648       0x48 build/default/production/src/tasks/main.o
                0x9d01a649                main
                0x9d01a669                vAssertCalled
                0x9d01a671                vApplicationIdleHook
                0x9d01a681                vApplicationStackOverflowHook
                0x9d01a689                vApplicationMallocFailedHook

.rodata.f5pow.f5pow
                0x9d01a690       0x48
 .rodata.f5pow.f5pow
                0x9d01a690       0x48 /opt/microchip/xc32/v1.31/bin/../lib/gcc/pic32mx/4.5.2/../../../../pic32mx/lib/mips16/libe.a(_strtod.o)

.rodata         0x9d01a6d8       0x44
 .rodata        0x9d01a6d8       0x44 build/default/production/src/FreeRTOS/portable/MPLAB/PIC32MX/port.o
                0x9d01a6ec                xISRStackTop

.text           0x9d01a71c       0x44
 .text          0x9d01a71c       0x44 build/default/production/src/hal/hal_spi.o
                0x9d01a71d                hal_spi_init_16bit
                0x9d01a749                hal_spi_write_16bit

.text.SpiChnOpen
                0x9d01a760       0x44
 .text.SpiChnOpen
                0x9d01a760       0x44 /opt/microchip/xc32/v1.31/bin/../lib/gcc/pic32mx/4.5.2/../../../../pic32mx/lib/mips16/libmchp_peripheral_32MX350F256L.a(spi_chn_open_lib.o)
                0x9d01a761                SpiChnOpen

.text           0x9d01a7a4       0x44
 .text          0x9d01a7a4       0x44 /opt/microchip/xc32/v1.31/bin/../lib/gcc/pic32mx/4.5.2/../../../../pic32mx/lib/mips16/libpic32.a(pic32_software_reset.o)
                0x9d01a7a4                __pic32_software_reset

.text.write     0x9d01a7e8       0x44
 .text.write    0x9d01a7e8       0x44 /opt/microchip/xc32/v1.31/bin/../lib/gcc/pic32mx/4.5.2/../../../../pic32mx/lib/mips16/libpic32.a(write.o)
                0x9d01a7e9                write

.text.__ldexpf  0x9d01a82c       0x44
 .text.__ldexpf
                0x9d01a82c       0x44 /opt/microchip/xc32/v1.31/bin/../lib/gcc/pic32mx/4.5.2/../../../../pic32mx/lib/mips16/libe.a(_ldexpf.o)
                0x9d01a82d                __ldexpf

.text.sqrt      0x9d01a870       0x40
 .text.sqrt     0x9d01a870       0x40 /opt/microchip/xc32/v1.31/bin/../lib/gcc/pic32mx/4.5.2/../../../../pic32mx/lib/mips16/libm.a(w_sqrt.o)
                0x9d01a871                sqrt

.text.strstr    0x9d01a8b0       0x40
 .text.strstr   0x9d01a8b0       0x40 /opt/microchip/xc32/v1.31/bin/../lib/gcc/pic32mx/4.5.2/../../../../pic32mx/lib/mips16/libc.a(strstr.o)
                0x9d01a8b1                strstr

.rodata         0x9d01a8f0       0x78
 .rodata        0x9d01a8f0       0x3c build/default/production/src/scpi-parser/libscpi/src/parser.o
 .rodata        0x9d01a92c       0x3c build/default/production/src/scpi-parser/libscpi/src/utils.o

.text.memcmp    0x9d01a968       0x3c
 .text.memcmp   0x9d01a968       0x3c /opt/microchip/xc32/v1.31/bin/../lib/gcc/pic32mx/4.5.2/../../../../pic32mx/lib/mips16/libc.a(memcmp.o)
                0x9d01a969                memcmp

.text.strncat   0x9d01a9a4       0x3c
 .text.strncat  0x9d01a9a4       0x3c /opt/microchip/xc32/v1.31/bin/../lib/gcc/pic32mx/4.5.2/../../../../pic32mx/lib/mips16/libc.a(strncat.o)
                0x9d01a9a5                strncat

.text.strncmp   0x9d01a9e0       0x3c
 .text.strncmp  0x9d01a9e0       0x3c /opt/microchip/xc32/v1.31/bin/../lib/gcc/pic32mx/4.5.2/../../../../pic32mx/lib/mips16/libc.a(strncmp.o)
                0x9d01a9e1                strncmp

.rodata         0x9d01aa1c       0x38
 .rodata        0x9d01aa1c       0x38 build/default/production/src/utils/src/strutils.o

.text.SpiChnPutC
                0x9d01aa54       0x38
 .text.SpiChnPutC
                0x9d01aa54       0x38 /opt/microchip/xc32/v1.31/bin/../lib/gcc/pic32mx/4.5.2/../../../../pic32mx/lib/mips16/libmchp_peripheral_32MX350F256L.a(spi_chn_putc_lib.o)
                0x9d01aa55                SpiChnPutC

.text.UARTSetDataRate
                0x9d01aa8c       0x38
 .text.UARTSetDataRate
                0x9d01aa8c       0x38 /opt/microchip/xc32/v1.31/bin/../lib/gcc/pic32mx/4.5.2/../../../../pic32mx/lib/mips16/libmchp_peripheral_32MX350F256L.a(uart_lib.o)
                0x9d01aa8d                UARTSetDataRate

.text.I2CBusIsIdle
                0x9d01aac4       0x38
 .text.I2CBusIsIdle
                0x9d01aac4       0x38 /opt/microchip/xc32/v1.31/bin/../lib/gcc/pic32mx/4.5.2/../../../../pic32mx/lib/mips16/libmchp_peripheral_32MX350F256L.a(I2CBusIsIdle.o)
                0x9d01aac5                I2CBusIsIdle

.text._bootstrap_exception_handler
                0x9d01aafc       0x38
 .text._bootstrap_exception_handler
                0x9d01aafc       0x38 /opt/microchip/xc32/v1.31/bin/../lib/gcc/pic32mx/4.5.2/../../../../pic32mx/lib/mips16/libpic32.a(default-bootstrap-exception-handler.o)
                0x9d01aafc                _bootstrap_exception_handler

.text.strncasecmp
                0x9d01ab34       0x38
 .text.strncasecmp
                0x9d01ab34       0x38 /opt/microchip/xc32/v1.31/bin/../lib/gcc/pic32mx/4.5.2/../../../../pic32mx/lib/mips16/libc.a(strncasecmp.o)
                0x9d01ab35                strncasecmp

.rodata         0x9d01ab6c       0x34
 .rodata        0x9d01ab6c       0x34 build/default/production/src/FreeRTOS/tasks.o

.text.memmove   0x9d01aba0       0x34
 .text.memmove  0x9d01aba0       0x34 /opt/microchip/xc32/v1.31/bin/../lib/gcc/pic32mx/4.5.2/../../../../pic32mx/lib/mips16/libc.a(memmove.o)
                0x9d01aba1                memmove

.text.ftell     0x9d01abd4       0x34
 .text.ftell    0x9d01abd4       0x34 /opt/microchip/xc32/v1.31/bin/../lib/gcc/pic32mx/4.5.2/../../../../pic32mx/lib/mips16/libc.a(fseek.o)
                0x9d01abd5                ftell

.rodata         0x9d01ac08       0x30
 .rodata        0x9d01ac08       0x30 build/default/production/src/FreeRTOS/portable/MemMang/heap_4.o

.text.INTConfigureSystem
                0x9d01ac38       0x30
 .text.INTConfigureSystem
                0x9d01ac38       0x30 /opt/microchip/xc32/v1.31/bin/../lib/gcc/pic32mx/4.5.2/../../../../pic32mx/lib/mips16/libmchp_peripheral_32MX350F256L.a(int_configure_system_lib.o)
                0x9d01ac38                INTConfigureSystem

.text.I2CReceiverEnable
                0x9d01ac68       0x30
 .text.I2CReceiverEnable
                0x9d01ac68       0x30 /opt/microchip/xc32/v1.31/bin/../lib/gcc/pic32mx/4.5.2/../../../../pic32mx/lib/mips16/libmchp_peripheral_32MX350F256L.a(I2CReceiverEnable.o)
                0x9d01ac69                I2CReceiverEnable

.text.strncpy   0x9d01ac98       0x30
 .text.strncpy  0x9d01ac98       0x30 /opt/microchip/xc32/v1.31/bin/../lib/gcc/pic32mx/4.5.2/../../../../pic32mx/lib/mips16/libc.a(strncpy.o)
                0x9d01ac99                strncpy

.text._vsnprintf_gG
                0x9d01acc8       0x30
 .text._vsnprintf_gG
                0x9d01acc8       0x30 /opt/microchip/xc32/v1.31/bin/../lib/gcc/pic32mx/4.5.2/../../../../pic32mx/lib/mips16/libc.a(vsnprintf_gG.eo)
                0x9d01acc9                _vsnprintf_gG

.text._ssize.clone.0
                0x9d01acf8       0x30
 .text._ssize.clone.0
                0x9d01acf8       0x30 /opt/microchip/xc32/v1.31/bin/../lib/gcc/pic32mx/4.5.2/../../../../pic32mx/lib/mips16/libc.a(fseek.o)

.text.INTEnable
                0x9d01ad28       0x2c
 .text.INTEnable
                0x9d01ad28       0x2c /opt/microchip/xc32/v1.31/bin/../lib/gcc/pic32mx/4.5.2/../../../../pic32mx/lib/mips16/libmchp_peripheral_32MX350F256L.a(int_tbl_lib.o)
                0x9d01ad29                INTEnable

.text.I2CGetStatus
                0x9d01ad54       0x2c
 .text.I2CGetStatus
                0x9d01ad54       0x2c /opt/microchip/xc32/v1.31/bin/../lib/gcc/pic32mx/4.5.2/../../../../pic32mx/lib/mips16/libmchp_peripheral_32MX350F256L.a(I2CGetStatus.o)
                0x9d01ad55                I2CGetStatus

.text.I2CSetFrequency
                0x9d01ad80       0x2c
 .text.I2CSetFrequency
                0x9d01ad80       0x2c /opt/microchip/xc32/v1.31/bin/../lib/gcc/pic32mx/4.5.2/../../../../pic32mx/lib/mips16/libmchp_peripheral_32MX350F256L.a(I2CSetFrequency.o)
                0x9d01ad81                I2CSetFrequency

.text.copysignl
                0x9d01adac       0x2c
 .text.copysignl
                0x9d01adac       0x2c /opt/microchip/xc32/v1.31/bin/../lib/gcc/pic32mx/4.5.2/../../../../pic32mx/lib/mips16/libm.a(support.o)
                0x9d01adad                copysignl

.text           0x9d01add8       0x2c
 .text          0x9d01add8       0x2c /opt/microchip/xc32/v1.31/bin/../lib/gcc/pic32mx/4.5.2/mips16/libgcc.a(_lshrdi3.o)
                0x9d01add9                __lshrdi3

.text.UARTConfigure
                0x9d01ae04       0x28
 .text.UARTConfigure
                0x9d01ae04       0x28 /opt/microchip/xc32/v1.31/bin/../lib/gcc/pic32mx/4.5.2/../../../../pic32mx/lib/mips16/libmchp_peripheral_32MX350F256L.a(uart_lib.o)
                0x9d01ae05                UARTConfigure

.text           0x9d01ae30       0x50
 .text          0x9d01ae30       0x28 /opt/microchip/xc32/v1.31/bin/../lib/gcc/pic32mx/4.5.2/mips16/libgcc.a(floatunsidf.o)
                0x9d01ae31                __floatunsidf
 .text          0x9d01ae58       0x28 /opt/microchip/xc32/v1.31/bin/../lib/gcc/pic32mx/4.5.2/mips16/libgcc.a(floatunsisf.o)
                0x9d01ae59                __floatunsisf

.text.__unorddf2
                0x9d01ae80       0x28
 .text.__unorddf2
                0x9d01ae80       0x28 /opt/microchip/xc32/v1.31/bin/../lib/gcc/pic32mx/4.5.2/../../../../pic32mx/lib/mips16/libe.a(_unorddf2.o)
                0x9d01ae81                __unorddf2

.text.fputs     0x9d01aea8       0x28
 .text.fputs    0x9d01aea8       0x28 /opt/microchip/xc32/v1.31/bin/../lib/gcc/pic32mx/4.5.2/../../../../pic32mx/lib/mips16/libc.a(puts.o)
                0x9d01aea9                fputs

.text.I2CAcknowledgeByte
                0x9d01aed0       0x24
 .text.I2CAcknowledgeByte
                0x9d01aed0       0x24 /opt/microchip/xc32/v1.31/bin/../lib/gcc/pic32mx/4.5.2/../../../../pic32mx/lib/mips16/libmchp_peripheral_32MX350F256L.a(I2CAcknowledgeByte.o)
                0x9d01aed1                I2CAcknowledgeByte

.text.I2CEnable
                0x9d01aef4       0x24
 .text.I2CEnable
                0x9d01aef4       0x24 /opt/microchip/xc32/v1.31/bin/../lib/gcc/pic32mx/4.5.2/../../../../pic32mx/lib/mips16/libmchp_peripheral_32MX350F256L.a(I2CEnable.o)
                0x9d01aef5                I2CEnable

.text.I2CRepeatStart
                0x9d01af18       0x24
 .text.I2CRepeatStart
                0x9d01af18       0x24 /opt/microchip/xc32/v1.31/bin/../lib/gcc/pic32mx/4.5.2/../../../../pic32mx/lib/mips16/libmchp_peripheral_32MX350F256L.a(I2CRepeatStart.o)
                0x9d01af19                I2CRepeatStart

.text.I2CSendByte
                0x9d01af3c       0x24
 .text.I2CSendByte
                0x9d01af3c       0x24 /opt/microchip/xc32/v1.31/bin/../lib/gcc/pic32mx/4.5.2/../../../../pic32mx/lib/mips16/libmchp_peripheral_32MX350F256L.a(I2CSendByte.o)
                0x9d01af3d                I2CSendByte

.text.I2CStart  0x9d01af60       0x24
 .text.I2CStart
                0x9d01af60       0x24 /opt/microchip/xc32/v1.31/bin/../lib/gcc/pic32mx/4.5.2/../../../../pic32mx/lib/mips16/libmchp_peripheral_32MX350F256L.a(I2CStart.o)
                0x9d01af61                I2CStart

.text.isinfl    0x9d01af84       0x24
 .text.isinfl   0x9d01af84       0x24 /opt/microchip/xc32/v1.31/bin/../lib/gcc/pic32mx/4.5.2/../../../../pic32mx/lib/mips16/libpic32.a(isinf.o)
                0x9d01af85                isinfl

.text.INTSetVectorPriority
                0x9d01afa8       0x20
 .text.INTSetVectorPriority
                0x9d01afa8       0x20 /opt/microchip/xc32/v1.31/bin/../lib/gcc/pic32mx/4.5.2/../../../../pic32mx/lib/mips16/libmchp_peripheral_32MX350F256L.a(int_tbl_lib.o)
                0x9d01afa9                INTSetVectorPriority

.text.PORTSetPinsDigitalIn
                0x9d01afc8       0x20
 .text.PORTSetPinsDigitalIn
                0x9d01afc8       0x20 /opt/microchip/xc32/v1.31/bin/../lib/gcc/pic32mx/4.5.2/../../../../pic32mx/lib/mips16/libmchp_peripheral_32MX350F256L.a(port_set_pins_digital_in_lib.o)
                0x9d01afc9                PORTSetPinsDigitalIn

.text.PORTSetPinsDigitalOut
                0x9d01afe8       0x20
 .text.PORTSetPinsDigitalOut
                0x9d01afe8       0x20 /opt/microchip/xc32/v1.31/bin/../lib/gcc/pic32mx/4.5.2/../../../../pic32mx/lib/mips16/libmchp_peripheral_32MX350F256L.a(port_set_pins_digital_out_lib.o)
                0x9d01afe9                PORTSetPinsDigitalOut

.text.ieee754dp_isnan
                0x9d01b008       0x20
 .text.ieee754dp_isnan
                0x9d01b008       0x20 /opt/microchip/xc32/v1.31/bin/../lib/gcc/pic32mx/4.5.2/../../../../pic32mx/lib/mips16/libe.a(_unorddf2.o)

.text.puts      0x9d01b028       0x20
 .text.puts     0x9d01b028       0x20 /opt/microchip/xc32/v1.31/bin/../lib/gcc/pic32mx/4.5.2/../../../../pic32mx/lib/mips16/libc.a(puts.o)
                0x9d01b029                puts

.text           0x9d01b048       0x1c
 .text          0x9d01b048       0x1c build/default/production/src/hal/exceptions.o
                0x9d01b049                _general_exception_handler

.text.INTRestoreInterrupts
                0x9d01b064       0x1c
 .text.INTRestoreInterrupts
                0x9d01b064       0x1c /opt/microchip/xc32/v1.31/bin/../lib/gcc/pic32mx/4.5.2/../../../../pic32mx/lib/mips16/libmchp_peripheral_32MX350F256L.a(int_restore_interrupts_lib.o)
                0x9d01b064                INTRestoreInterrupts

.text.I2CByteWasAcknowledged
                0x9d01b080       0x1c
 .text.I2CByteWasAcknowledged
                0x9d01b080       0x1c /opt/microchip/xc32/v1.31/bin/../lib/gcc/pic32mx/4.5.2/../../../../pic32mx/lib/mips16/libmchp_peripheral_32MX350F256L.a(I2CByteWasAcknowledged.o)
                0x9d01b081                I2CByteWasAcknowledged

.text.I2CTransmissionHasCompleted
                0x9d01b09c       0x1c
 .text.I2CTransmissionHasCompleted
                0x9d01b09c       0x1c /opt/microchip/xc32/v1.31/bin/../lib/gcc/pic32mx/4.5.2/../../../../pic32mx/lib/mips16/libmchp_peripheral_32MX350F256L.a(I2CTransmissionHasCompleted.o)
                0x9d01b09d                I2CTransmissionHasCompleted

.rodata         0x9d01b0b8       0x18
 .rodata        0x9d01b0b8       0x18 build/default/production/src/FreeRTOS/queue.o

.text.CheKseg0CacheOn
                0x9d01b0d0       0x18
 .text.CheKseg0CacheOn
                0x9d01b0d0       0x18 /opt/microchip/xc32/v1.31/bin/../lib/gcc/pic32mx/4.5.2/../../../../pic32mx/lib/mips16/libmchp_peripheral_32MX350F256L.a(pcache.o)
                0x9d01b0d0                CheKseg0CacheOn

.text.INTClearFlag
                0x9d01b0e8       0x18
 .text.INTClearFlag
                0x9d01b0e8       0x18 /opt/microchip/xc32/v1.31/bin/../lib/gcc/pic32mx/4.5.2/../../../../pic32mx/lib/mips16/libmchp_peripheral_32MX350F256L.a(int_tbl_lib.o)
                0x9d01b0e9                INTClearFlag

.text.INTGetFlag
                0x9d01b100       0x18
 .text.INTGetFlag
                0x9d01b100       0x18 /opt/microchip/xc32/v1.31/bin/../lib/gcc/pic32mx/4.5.2/../../../../pic32mx/lib/mips16/libmchp_peripheral_32MX350F256L.a(int_tbl_lib.o)
                0x9d01b101                INTGetFlag

.text.PORTReadBits
                0x9d01b118       0x18
 .text.PORTReadBits
                0x9d01b118       0x18 /opt/microchip/xc32/v1.31/bin/../lib/gcc/pic32mx/4.5.2/../../../../pic32mx/lib/mips16/libmchp_peripheral_32MX350F256L.a(port_read_bits_lib.o)
                0x9d01b119                PORTReadBits

.text.UARTSetFifoMode
                0x9d01b130       0x18
 .text.UARTSetFifoMode
                0x9d01b130       0x18 /opt/microchip/xc32/v1.31/bin/../lib/gcc/pic32mx/4.5.2/../../../../pic32mx/lib/mips16/libmchp_peripheral_32MX350F256L.a(uart_lib.o)
                0x9d01b131                UARTSetFifoMode

.text.I2CAcknowledgeHasCompleted
                0x9d01b148       0x18
 .text.I2CAcknowledgeHasCompleted
                0x9d01b148       0x18 /opt/microchip/xc32/v1.31/bin/../lib/gcc/pic32mx/4.5.2/../../../../pic32mx/lib/mips16/libmchp_peripheral_32MX350F256L.a(I2CAcknowledgeHasCompleted.o)
                0x9d01b149                I2CAcknowledgeHasCompleted

.text.I2CReceivedDataIsAvailable
                0x9d01b160       0x18
 .text.I2CReceivedDataIsAvailable
                0x9d01b160       0x18 /opt/microchip/xc32/v1.31/bin/../lib/gcc/pic32mx/4.5.2/../../../../pic32mx/lib/mips16/libmchp_peripheral_32MX350F256L.a(I2CReceivedDataIsAvailable.o)
                0x9d01b161                I2CReceivedDataIsAvailable

.text.I2CTransmitterIsReady
                0x9d01b178       0x18
 .text.I2CTransmitterIsReady
                0x9d01b178       0x18 /opt/microchip/xc32/v1.31/bin/../lib/gcc/pic32mx/4.5.2/../../../../pic32mx/lib/mips16/libmchp_peripheral_32MX350F256L.a(I2CTransmitterIsReady.o)
                0x9d01b179                I2CTransmitterIsReady

.text           0x9d01b190       0x18
 .text          0x9d01b190       0x18 /opt/microchip/xc32/v1.31/bin/../lib/gcc/pic32mx/4.5.2/../../../../pic32mx/lib/mips16/libpic32.a(default-nmi-handler.o)
                0x9d01b190                _nmi_handler

.text.tolower   0x9d01b1a8       0x18
 .text.tolower  0x9d01b1a8       0x18 /opt/microchip/xc32/v1.31/bin/../lib/gcc/pic32mx/4.5.2/../../../../pic32mx/lib/mips16/libc.a(ctypef.o)
                0x9d01b1a9                tolower

.text.toupper   0x9d01b1c0       0x18
 .text.toupper  0x9d01b1c0       0x18 /opt/microchip/xc32/v1.31/bin/../lib/gcc/pic32mx/4.5.2/../../../../pic32mx/lib/mips16/libc.a(ctypef.o)
                0x9d01b1c1                toupper

.text.memcpy    0x9d01b1d8       0x18
 .text.memcpy   0x9d01b1d8       0x18 /opt/microchip/xc32/v1.31/bin/../lib/gcc/pic32mx/4.5.2/../../../../pic32mx/lib/mips16/libc.a(memcpy.o)
                0x9d01b1d9                memcpy

.text._printf_cdfFnopsuxX
                0x9d01b1f0       0x18
 .text._printf_cdfFnopsuxX
                0x9d01b1f0       0x18 /opt/microchip/xc32/v1.31/bin/../lib/gcc/pic32mx/4.5.2/../../../../pic32mx/lib/mips16/libc.a(printf_cdfFnopsuxX.eo)
                0x9d01b1f1                _printf_cdfFnopsuxX
                0x9d01b1f1                _printf_s
                0x9d01b1f1                _printf_fFs
                0x9d01b1f1                _printf_0

.text.ieee754dp_isinf
                0x9d01b208       0x18
 .text.ieee754dp_isinf
                0x9d01b208       0x18 /opt/microchip/xc32/v1.31/bin/../lib/gcc/pic32mx/4.5.2/../../../../pic32mx/lib/mips16/libe.a(_strtod.o)

.rodata.f5pow.f5pow
                0x9d01b220       0x18
 .rodata.f5pow.f5pow
                0x9d01b220       0x18 /opt/microchip/xc32/v1.31/bin/../lib/gcc/pic32mx/4.5.2/../../../../pic32mx/lib/mips16/libe.a(_strtof.o)

.rodata         0x9d01b238       0x14
 .rodata        0x9d01b238       0x14 /opt/microchip/xc32/v1.31/bin/../lib/gcc/pic32mx/4.5.2/../../../../pic32mx/lib/mips16/libmchp_peripheral_32MX350F256L.a(spi_map_tbl_libp.o)
                0x9d01b238                _SpiMapTbl

.text.PORTClearBits
                0x9d01b24c       0x14
 .text.PORTClearBits
                0x9d01b24c       0x14 /opt/microchip/xc32/v1.31/bin/../lib/gcc/pic32mx/4.5.2/../../../../pic32mx/lib/mips16/libmchp_peripheral_32MX350F256L.a(port_clear_bits_lib.o)
                0x9d01b24d                PORTClearBits

.text.PORTSetBits
                0x9d01b260       0x14
 .text.PORTSetBits
                0x9d01b260       0x14 /opt/microchip/xc32/v1.31/bin/../lib/gcc/pic32mx/4.5.2/../../../../pic32mx/lib/mips16/libmchp_peripheral_32MX350F256L.a(port_set_bits_lib.o)
                0x9d01b261                PORTSetBits

.text.PORTToggleBits
                0x9d01b274       0x14
 .text.PORTToggleBits
                0x9d01b274       0x14 /opt/microchip/xc32/v1.31/bin/../lib/gcc/pic32mx/4.5.2/../../../../pic32mx/lib/mips16/libmchp_peripheral_32MX350F256L.a(port_toggle_bits_lib.o)
                0x9d01b275                PORTToggleBits

.text.UARTSetLineControl
                0x9d01b288       0x14
 .text.UARTSetLineControl
                0x9d01b288       0x14 /opt/microchip/xc32/v1.31/bin/../lib/gcc/pic32mx/4.5.2/../../../../pic32mx/lib/mips16/libmchp_peripheral_32MX350F256L.a(uart_lib.o)
                0x9d01b289                UARTSetLineControl

.rodata         0x9d01b29c       0x14
 .rodata        0x9d01b29c       0x14 /opt/microchip/xc32/v1.31/bin/../lib/gcc/pic32mx/4.5.2/../../../../pic32mx/lib/mips16/libmchp_peripheral_32MX350F256L.a(uart_lib.o)
                0x9d01b29c                uartReg

.text.I2CGetByte
                0x9d01b2b0       0x14
 .text.I2CGetByte
                0x9d01b2b0       0x14 /opt/microchip/xc32/v1.31/bin/../lib/gcc/pic32mx/4.5.2/../../../../pic32mx/lib/mips16/libmchp_peripheral_32MX350F256L.a(I2CGetByte.o)
                0x9d01b2b1                I2CGetByte

.text.I2CStop   0x9d01b2c4       0x14
 .text.I2CStop  0x9d01b2c4       0x14 /opt/microchip/xc32/v1.31/bin/../lib/gcc/pic32mx/4.5.2/../../../../pic32mx/lib/mips16/libmchp_peripheral_32MX350F256L.a(I2CStop.o)
                0x9d01b2c5                I2CStop

.text.memset    0x9d01b2d8       0x14
 .text.memset   0x9d01b2d8       0x14 /opt/microchip/xc32/v1.31/bin/../lib/gcc/pic32mx/4.5.2/../../../../pic32mx/lib/mips16/libc.a(memset.o)
                0x9d01b2d9                memset

.text.strchr    0x9d01b2ec       0x14
 .text.strchr   0x9d01b2ec       0x14 /opt/microchip/xc32/v1.31/bin/../lib/gcc/pic32mx/4.5.2/../../../../pic32mx/lib/mips16/libc.a(strchr.o)
                0x9d01b2ed                strchr

.text.UpdateCoreTimer
                0x9d01b300       0x10
 .text.UpdateCoreTimer
                0x9d01b300       0x10 /opt/microchip/xc32/v1.31/bin/../lib/gcc/pic32mx/4.5.2/../../../../pic32mx/lib/mips16/libmchp_peripheral.a(update_core_timer_lib.o)
                0x9d01b300                UpdateCoreTimer

.text.SpiChnWriteC
                0x9d01b310       0x10
 .text.SpiChnWriteC
                0x9d01b310       0x10 /opt/microchip/xc32/v1.31/bin/../lib/gcc/pic32mx/4.5.2/../../../../pic32mx/lib/mips16/libmchp_peripheral_32MX350F256L.a(spi_chn_putc_lib.o)
                0x9d01b311                SpiChnWriteC

.text.I2CConfigure
                0x9d01b320       0x10
 .text.I2CConfigure
                0x9d01b320       0x10 /opt/microchip/xc32/v1.31/bin/../lib/gcc/pic32mx/4.5.2/../../../../pic32mx/lib/mips16/libmchp_peripheral_32MX350F256L.a(I2CConfigure.o)
                0x9d01b321                I2CConfigure

.text.strlen    0x9d01b330       0x10
 .text.strlen   0x9d01b330       0x10 /opt/microchip/xc32/v1.31/bin/../lib/gcc/pic32mx/4.5.2/../../../../pic32mx/lib/mips16/libc.a(strlen.o)
                0x9d01b331                strlen

.text._snprintf_gG
                0x9d01b340       0x10
 .text._snprintf_gG
                0x9d01b340       0x10 /opt/microchip/xc32/v1.31/bin/../lib/gcc/pic32mx/4.5.2/../../../../pic32mx/lib/mips16/libc.a(snprintf_gG.eo)
                0x9d01b341                _snprintf_gG

.text.ieee754sp_isinf
                0x9d01b350       0x10
 .text.ieee754sp_isinf
                0x9d01b350       0x10 /opt/microchip/xc32/v1.31/bin/../lib/gcc/pic32mx/4.5.2/../../../../pic32mx/lib/mips16/libe.a(_strtof.o)

.text.builddp   0x9d01b360       0x10
 .text.builddp  0x9d01b360       0x10 /opt/microchip/xc32/v1.31/bin/../lib/gcc/pic32mx/4.5.2/../../../../pic32mx/lib/mips16/libe.a(_ldexp.o)

.rodata         0x9d01b370       0x18
 .rodata        0x9d01b370        0xc build/default/production/src/tasks/task_calibration.o
 .rodata        0x9d01b37c        0xc build/default/production/src/utils/fcvt-1.1/fcvt.o

.text.OpenCoreTimer
                0x9d01b388        0xc
 .text.OpenCoreTimer
                0x9d01b388        0xc /opt/microchip/xc32/v1.31/bin/../lib/gcc/pic32mx/4.5.2/../../../../pic32mx/lib/mips16/libmchp_peripheral.a(open_core_timer_lib.o)
                0x9d01b388                OpenCoreTimer

.text._dstrtod  0x9d01b394        0xc
 .text._dstrtod
                0x9d01b394        0xc /opt/microchip/xc32/v1.31/bin/../lib/gcc/pic32mx/4.5.2/../../../../pic32mx/lib/mips16/libc.a(strtod.o)
                0x9d01b395                _dstrtod

.text.strtof    0x9d01b3a0        0xc
 .text.strtof   0x9d01b3a0        0xc /opt/microchip/xc32/v1.31/bin/../lib/gcc/pic32mx/4.5.2/../../../../pic32mx/lib/mips16/libc.a(strtof.o)
                0x9d01b3a1                strtof

.text.buildsp   0x9d01b3ac       0x18
 .text.buildsp  0x9d01b3ac        0xc /opt/microchip/xc32/v1.31/bin/../lib/gcc/pic32mx/4.5.2/../../../../pic32mx/lib/mips16/libe.a(_floatdisf.o)
 .text.buildsp  0x9d01b3b8        0xc /opt/microchip/xc32/v1.31/bin/../lib/gcc/pic32mx/4.5.2/../../../../pic32mx/lib/mips16/libe.a(_ldexpf.o)

.rodata         0x9d01b3c4        0x8
 .rodata        0x9d01b3c4        0x8 build/default/production/src/scpi-parser/libscpi/src/minimal.o

.text.INTDisableInterrupts
                0x9d01b3cc        0x8
 .text.INTDisableInterrupts
                0x9d01b3cc        0x8 /opt/microchip/xc32/v1.31/bin/../lib/gcc/pic32mx/4.5.2/../../../../pic32mx/lib/mips16/libmchp_peripheral_32MX350F256L.a(int_disable_interrupts_lib.o)
                0x9d01b3cc                INTDisableInterrupts

.rodata         0x9d01b3d4        0x8
 .rodata        0x9d01b3d4        0x8 /opt/microchip/xc32/v1.31/bin/../lib/gcc/pic32mx/4.5.2/../../../../pic32mx/lib/mips16/libmchp_peripheral_32MX350F256L.a(I2CPrivate.o)
                0x9d01b3d4                i2cBase

.rodata         0x9d00bd64        0x4
 .rodata        0x9d00bd64        0x4 build/default/production/src/scpi-parser/libscpi/src/ieee488.o

.text._on_reset
                0x9d00d8a4        0x4
 .text._on_reset
                0x9d00d8a4        0x4 /opt/microchip/xc32/v1.31/bin/../lib/gcc/pic32mx/4.5.2/../../../../pic32mx/lib/mips16/libpic32.a(default-on-reset.o)
                0x9d00d8a5                _on_reset

.text._on_bootstrap
                0x9d00ee74        0x4
 .text._on_bootstrap
                0x9d00ee74        0x4 /opt/microchip/xc32/v1.31/bin/../lib/gcc/pic32mx/4.5.2/../../../../pic32mx/lib/mips16/libpic32.a(default-on-bootstrap.o)
                0x9d00ee75                _on_bootstrap

.text.lseek     0x9d013ebc        0x4
 .text.lseek    0x9d013ebc        0x4 /opt/microchip/xc32/v1.31/bin/../lib/gcc/pic32mx/4.5.2/../../../../pic32mx/lib/mips16/libpic32.a(lseek.o)
                0x9d013ebd                lseek
